(dp0
S"216006804['attack', (13, 6)]"
p1
I1000
sS"79691780['attack', (11, 2)]"
p2
I-1000
sS"105906178['guard']"
p3
I0
sS"74448916['move', (7, 1)]"
p4
I-1000
sS"549453832['attack', (13, 16)]"
p5
I-1000
sS"542113824['move', (6, 16)]"
p6
I1000
sS"353370176['move', (16, 10)]"
p7
I1000
sS"114294832['attack', (13, 4)]"
p8
I-1000
sS"250609792['move', (15, 6)]"
p9
I2000
sS"213909504['move', (13, 6)]"
p10
I-1000
sS"516947968['attack', (12, 15)]"
p11
I-1000
sS"477102086['attack', (6, 14)]"
p12
I1000
sS"217055296['move', (15, 5)]"
p13
I-1000
sS"115343360['attack', (15, 3)]"
p14
I0
sS"286261249['move', (18, 8)]"
p15
I-1000
sS"78643200['attack', (11, 3)]"
p16
I-1000
sS"139460672['attack', (6, 4)]"
p17
I1000
sS"146800640['attack', (12, 5)]"
p18
I13000
sS"547356672['attack', (11, 16)]"
p19
I5000
sS"44040384['move', (11, 1)]"
p20
I1000
sS"249561108['attack', (14, 8)]"
p21
I1000
sS"546308096['move', (9, 15)]"
p22
I-1000
sS"438304784['attack', (2, 14)]"
p23
I-1000
sS"179306624['attack', (11, 6)]"
p24
I1000
sS"42991620['move', (8, 1)]"
p25
I1000
sS"372244484['attack', (3, 10)]"
p26
I-1000
sS"75497536['move', (9, 2)]"
p27
I1000
sS"175112192['move', (7, 4)]"
p28
I-1000
sS"417333252['attack', (15, 12)]"
p29
I1000
sS"380633088['attack', (12, 11)]"
p30
I1000
sS"178257929['attack', (10, 4)]"
p31
I1000
sS"542113792['move', (4, 16)]"
p32
I-1000
sS"271581184['attack', (3, 9)]"
p33
I-1000
sS"213909506['move', (12, 5)]"
p34
I1000
sS"248512545['attack', (14, 7)]"
p35
I1000
sS"472907808['move', (4, 14)]"
p36
I3000
sS"383778848['attack', (14, 12)]"
p37
I0
sS"404750400['attack', (2, 11)]"
p38
I-1000
sS"544210948['move', (7, 17)]"
p39
I3000
sS"284164160['attack', (14, 8)]"
p40
I-1000
sS"112197640['guard']"
p41
I-1000
sS"236978176['guard']"
p42
I-1000
sS"353370112['attack', (16, 10)]"
p43
I2000
sS"216006658['attack', (14, 7)]"
p44
I-1000
sS"269484032['attack', (2, 8)]"
p45
I0
sS"352321548['move', (17, 10)]"
p46
I-1000
sS"351273025['guard']"
p47
I-1000
sS"44040256['attack', (11, 1)]"
p48
I0
sS"170917888['attack', (3, 6)]"
p49
I0
sS"549453848['move', (11, 16)]"
p50
I1000
sS"113246272['move', (13, 3)]"
p51
I2000
sS"386924545['move', (17, 12)]"
p52
I-1000
sS"337641480['attack', (2, 11)]"
p53
I0
sS"249561236['move', (13, 7)]"
p54
I-1000
sS"248512514['move', (13, 6)]"
p55
I-1000
sS"508559360['attack', (5, 16)]"
p56
I0
sS"138412160['attack', (5, 4)]"
p57
I1000
sS"371195968['attack', (2, 10)]"
p58
I-1000
sS"248512576['attack', (12, 7)]"
p59
I7000
sS"508559361['guard']"
p60
I1000
sS"315621376['move', (13, 8)]"
p61
I-1000
sS"148897792['attack', (14, 3)]"
p62
I0
sS"216006722['move', (14, 7)]"
p63
I-1000
sS"545259584['attack', (8, 17)]"
p64
I1000
sS"247463938['move', (11, 7)]"
p65
I-1000
sS"414187520['attack', (11, 11)]"
p66
I0
sS"144703504['guard']"
p67
I-1000
sS"251658242['move', (15, 7)]"
p68
I1000
sS"179306560['move', (11, 4)]"
p69
I-1000
sS"40894528['guard']"
p70
I-1000
sS"282067017['attack', (13, 9)]"
p71
I1000
sS"181403654['move', (13, 4)]"
p72
I-1000
sS"77594624['move', (10, 3)]"
p73
I8000
sS"247463938['attack', (13, 7)]"
p74
I-1000
sS"483393600['guard']"
p75
I6000
sS"217055269['guard']"
p76
I-1000
sS"314572833['move', (13, 9)]"
p77
I1000
sS"412090368['attack', (10, 12)]"
p78
I0
sS"285212690['move', (15, 8)]"
p79
I1000
sS"475004936['attack', (5, 15)]"
p80
I1000
sS"283115585['attack', (13, 8)]"
p81
I0
sS"450887696['attack', (14, 12)]"
p82
I0
sS"379584512['move', (10, 10)]"
p83
I-1000
sS"303038466['attack', (0, 9)]"
p84
I0
sS"546308224['move', (8, 16)]"
p85
I-1000
sS"249561104['move', (14, 8)]"
p86
I-1000
sS"450887813['attack', (15, 13)]"
p87
I-1000
sS"182452230['attack', (15, 5)]"
p88
I-1000
sS"447742048['move', (11, 12)]"
p89
I-1000
sS"316669957['move', (15, 9)]"
p90
I1000
sS"450887746['attack', (13, 13)]"
p91
I-1000
sS"338690176['move', (4, 10)]"
p92
I1000
sS"181403648['move', (12, 5)]"
p93
I-1000
sS"542113792['attack', (5, 15)]"
p94
I-1000
sS"452984832['move', (16, 12)]"
p95
I-1000
sS"439353344['attack', (3, 14)]"
p96
I-1000
sS"175112201['move', (7, 4)]"
p97
I1000
sS"314572816['guard']"
p98
I0
sS"548405284['move', (11, 17)]"
p99
I-1000
sS"370147360['move', (1, 10)]"
p100
I1000
sS"452984840['attack', (17, 13)]"
p101
I0
sS"115343360['attack', (14, 4)]"
p102
I0
sS"550502400['move', (13, 15)]"
p103
I3000
sS"146800772['move', (13, 4)]"
p104
I-1000
sS"319815681['move', (16, 9)]"
p105
I1000
sS"180355204['move', (11, 5)]"
p106
I-1000
sS"112197642['attack', (11, 2)]"
p107
I1000
sS"183500928['attack', (15, 4)]"
p108
I0
sS"112197632['move', (12, 3)]"
p109
I1000
sS"481296387['move', (12, 14)]"
p110
I-1000
sS"110100481['move', (9, 2)]"
p111
I0
sS"371196032['attack', (3, 11)]"
p112
I1000
sS"448790534['move', (12, 14)]"
p113
I-1000
sS"450887698['attack', (15, 13)]"
p114
I-1000
sS"182452256['attack', (13, 5)]"
p115
I0
sS"304087040['attack', (2, 10)]"
p116
I0
sS"441450624['attack', (6, 13)]"
p117
I0
sS"549453825['move', (13, 16)]"
p118
I-1000
sS"41943040['move', (7, 1)]"
p119
I-2000
sS"114294785['move', (12, 3)]"
p120
I1000
sS"386924560['move', (17, 10)]"
p121
I1000
sS"483393538['move', (12, 14)]"
p122
I-1000
sS"171966496['move', (3, 5)]"
p123
I-1000
sS"352321600['move', (16, 11)]"
p124
I1000
sS"506462240['attack', (3, 14)]"
p125
I2000
sS"380633088['attack', (10, 11)]"
p126
I-1000
sS"419430400['move', (16, 11)]"
p127
I1000
sS"178257936['move', (10, 4)]"
p128
I1000
sS"249561170['move', (15, 7)]"
p129
I1000
sS"277872640['move', (9, 7)]"
p130
I1000
sS"548405248['move', (11, 15)]"
p131
I-2000
sS"416284680['move', (13, 13)]"
p132
I0
sS"444596290['attack', (8, 12)]"
p133
I-1000
sS"285212674['attack', (15, 8)]"
p134
I-1000
sS"513802248['move', (9, 15)]"
p135
I-1000
sS"180355202['move', (13, 5)]"
p136
I1000
sS"545259520['move', (9, 16)]"
p137
I-1000
sS"210763785['attack', (9, 5)]"
p138
I-1000
sS"386924544['move', (17, 10)]"
p139
I0
sS"508559488['guard']"
p140
I1000
sS"78643328['guard']"
p141
I1000
sS"249561112['move', (15, 7)]"
p142
I-1000
sS"240123936['attack', (5, 6)]"
p143
I-1000
sS"238026784['move', (4, 7)]"
p144
I1000
sS"285212673['attack', (15, 8)]"
p145
I0
sS"513802306['move', (10, 14)]"
p146
I1000
sS"115343364['attack', (14, 4)]"
p147
I-1000
sS"383778848['guard']"
p148
I-1000
sS"181403656['attack', (13, 6)]"
p149
I-1000
sS"449839104['move', (13, 14)]"
p150
I-1000
sS"405798920['move', (3, 13)]"
p151
I1000
sS"542113792['move', (5, 15)]"
p152
I-2000
sS"510656512['move', (7, 16)]"
p153
I-1000
sS"144703490['attack', (10, 3)]"
p154
I0
sS"218103872['attack', (16, 5)]"
p155
I0
sS"282066992['attack', (13, 9)]"
p156
I1000
sS"282066962['move', (12, 8)]"
p157
I1000
sS"243269632['guard']"
p158
I0
sS"279969792['move', (12, 8)]"
p159
I0
sS"441450496['attack', (5, 12)]"
p160
I-1000
sS"438304768['attack', (3, 13)]"
p161
I0
sS"248512736['move', (13, 8)]"
p162
I3000
sS"285212676['attack', (17, 8)]"
p163
I-1000
sS"184549376['attack', (16, 6)]"
p164
I-1000
sS"250609665['move', (16, 7)]"
p165
I0
sS"452984960['move', (17, 13)]"
p166
I3000
sS"250609794['move', (15, 8)]"
p167
I1000
sS"475004928['attack', (5, 13)]"
p168
I9000
sS"249561120['move', (14, 6)]"
p169
I0
sS"75497473['move', (8, 3)]"
p170
I1000
sS"349175808['attack', (13, 9)]"
p171
I0
sS"285212673['move', (16, 9)]"
p172
I-1000
sS"349175824['move', (12, 10)]"
p173
I-1000
sS"110100608['attack', (9, 4)]"
p174
I2000
sS"386924544['attack', (17, 10)]"
p175
I-1000
sS"404750336['attack', (2, 11)]"
p176
I1000
sS"578813954['attack', (8, 16)]"
p177
I-1000
sS"450887680['move', (14, 14)]"
p178
I4000
sS"147849344['attack', (13, 3)]"
p179
I0
sS"249561328['move', (13, 7)]"
p180
I1000
sS"283115528['attack', (13, 8)]"
p181
I-1000
sS"80740352['move', (13, 3)]"
p182
I0
sS"549453825['attack', (13, 16)]"
p183
I0
sS"444596224['move', (7, 13)]"
p184
I-1000
sS"473956480['guard']"
p185
I4000
sS"581959696['attack', (12, 17)]"
p186
I0
sS"383778848['move', (15, 11)]"
p187
I-1000
sS"211812352['guard']"
p188
I-2000
sS"175112321['move', (6, 5)]"
p189
I1000
sS"579862529['attack', (9, 16)]"
p190
I-1000
sS"214958080['move', (12, 6)]"
p191
I-1000
sS"385875986['move', (15, 11)]"
p192
I1000
sS"114294848['attack', (13, 4)]"
p193
I1000
sS"417333312['attack', (14, 11)]"
p194
I1000
sS"514850836['move', (11, 14)]"
p195
I1000
sS"349175872['attack', (12, 10)]"
p196
I1000
sS"248512512['attack', (12, 7)]"
p197
I3000
sS"217055233['attack', (15, 5)]"
p198
I0
sS"44040200['attack', (10, 2)]"
p199
I2000
sS"515899396['attack', (13, 15)]"
p200
I3000
sS"408944768['attack', (6, 11)]"
p201
I1000
sS"218103812['attack', (17, 6)]"
p202
I1000
sS"517996545['move', (14, 14)]"
p203
I-1000
sS"517996545['attack', (13, 15)]"
p204
I-1000
sS"235929600['guard']"
p205
I-1000
sS"146800648['guard']"
p206
I-2000
sS"417333253['attack', (13, 12)]"
p207
I1000
sS"513802244['attack', (10, 16)]"
p208
I6000
sS"353370192['move', (17, 11)]"
p209
I-1000
sS"80740352['move', (14, 2)]"
p210
I-1000
sS"103809024['attack', (3, 2)]"
p211
I7000
sS"484442112['attack', (13, 14)]"
p212
I-1000
sS"404750400['attack', (3, 12)]"
p213
I1000
sS"141557760['move', (6, 4)]"
p214
I-1000
sS"578813953['attack', (7, 17)]"
p215
I0
sS"352321540['move', (16, 11)]"
p216
I-1000
sS"178257920['attack', (11, 5)]"
p217
I-1000
sS"207618048['move', (6, 7)]"
p218
I1000
sS"451936256['attack', (16, 13)]"
p219
I-1000
sS"374341696['move', (5, 10)]"
p220
I1000
sS"218103873['move', (17, 6)]"
p221
I-1000
sS"304087168['move', (2, 10)]"
p222
I-1000
sS"113246209['attack', (12, 4)]"
p223
I-1000
sS"309329920['move', (8, 9)]"
p224
I1000
sS"248512530['attack', (12, 7)]"
p225
I-1000
sS"506462224['move', (4, 15)]"
p226
I-1000
sS"374341652['attack', (6, 11)]"
p227
I1000
sS"406847488['move', (5, 12)]"
p228
I0
sS"452984841['attack', (16, 12)]"
p229
I-1000
sS"217055240['move', (14, 6)]"
p230
I0
sS"210763840['move', (8, 6)]"
p231
I-1000
sS"448790656['move', (12, 14)]"
p232
I-1000
sS"248512672['attack', (14, 7)]"
p233
I-1000
sS"386924672['attack', (17, 12)]"
p234
I0
sS"140509192['attack', (6, 3)]"
p235
I1000
sS"317718530['move', (16, 9)]"
p236
I-1000
sS"476053512['move', (5, 14)]"
p237
I1000
sS"73400320['move', (6, 3)]"
p238
I2000
sS"337641480['attack', (3, 10)]"
p239
I-1000
sS"407896064['guard']"
p240
I0
sS"452984960['attack', (16, 14)]"
p241
I-2000
sS"438304768['move', (2, 12)]"
p242
I2000
sS"282067008['move', (13, 7)]"
p243
I-1000
sS"40894496['attack', (7, 2)]"
p244
I-1000
sS"44040196['attack', (9, 1)]"
p245
I0
sS"450887680['move', (14, 12)]"
p246
I0
sS"485490816['move', (14, 14)]"
p247
I-1000
sS"217055272['attack', (16, 6)]"
p248
I1000
sS"351273024['attack', (14, 10)]"
p249
I0
sS"111149064['move', (11, 3)]"
p250
I-1000
sS"439353376['attack', (4, 13)]"
p251
I-1000
sS"149946368['move', (14, 4)]"
p252
I1000
sS"110100610['attack', (10, 3)]"
p253
I-1000
sS"372244608['move', (2, 11)]"
p254
I1000
sS"250609670['move', (16, 7)]"
p255
I-1000
sS"44040192['attack', (11, 1)]"
p256
I2000
sS"284164128['guard']"
p257
I-1000
sS"45088776['move', (11, 2)]"
p258
I1000
sS"515899404['attack', (11, 15)]"
p259
I1000
sS"78643328['attack', (11, 3)]"
p260
I-1000
sS"543162384['attack', (5, 16)]"
p261
I-2000
sS"444596225['attack', (8, 14)]"
p262
I-1000
sS"481296416['move', (12, 14)]"
p263
I8000
sS"216006848['attack', (15, 6)]"
p264
I1000
sS"472907796['attack', (2, 14)]"
p265
I1000
sS"349175809['move', (14, 10)]"
p266
I-1000
sS"110100496['move', (8, 3)]"
p267
I-1000
sS"317718528['move', (14, 9)]"
p268
I-1000
sS"214958112['move', (13, 7)]"
p269
I4000
sS"577765377['attack', (7, 16)]"
p270
I0
sS"509608000['move', (6, 14)]"
p271
I-1000
sS"351273024['move', (15, 11)]"
p272
I0
sS"73400332['move', (6, 3)]"
p273
I-1000
sS"514850945['guard']"
p274
I-1000
sS"516947976['move', (13, 16)]"
p275
I-1000
sS"248512513['attack', (13, 6)]"
p276
I0
sS"438304769['attack', (1, 13)]"
p277
I0
sS"169869314['attack', (2, 4)]"
p278
I1000
sS"383778817['attack', (14, 10)]"
p279
I1000
sS"146800656['attack', (11, 4)]"
p280
I4000
sS"106954768['move', (6, 2)]"
p281
I-1000
sS"543162496['move', (5, 16)]"
p282
I0
sS"217055232['attack', (15, 7)]"
p283
I0
sS"439353368['attack', (3, 14)]"
p284
I1000
sS"211812416['move', (10, 7)]"
p285
I0
sS"247463939['attack', (12, 8)]"
p286
I1000
sS"44040192['move', (11, 1)]"
p287
I-1000
sS"146800786['move', (13, 4)]"
p288
I1000
sS"484442176['move', (15, 14)]"
p289
I0
sS"350224386['move', (15, 10)]"
p290
I-1000
sS"304087044['attack', (1, 9)]"
p291
I-1000
sS"170917890['attack', (3, 4)]"
p292
I2000
sS"448790528['move', (11, 13)]"
p293
I-1000
sS"148897796['move', (14, 5)]"
p294
I2000
sS"346030080['attack', (10, 11)]"
p295
I-1000
sS"482344964['move', (13, 14)]"
p296
I-1000
sS"372244512['attack', (3, 10)]"
p297
I-1000
sS"317718592['move', (15, 8)]"
p298
I1000
sS"173015042['guard']"
p299
I-1000
sS"445644800['move', (8, 13)]"
p300
I2000
sS"177209344['attack', (10, 5)]"
p301
I0
sS"145752128['move', (10, 4)]"
p302
I0
sS"284164256['attack', (15, 9)]"
p303
I2000
sS"184549504['move', (16, 6)]"
p304
I-1000
sS"406847488['attack', (4, 11)]"
p305
I-1000
sS"42991616['attack', (9, 2)]"
p306
I-1000
sS"440401928['guard']"
p307
I5000
sS"286261249['attack', (16, 8)]"
p308
I-1000
sS"182452230['move', (14, 4)]"
p309
I-1000
sS"448790528['move', (13, 13)]"
p310
I3000
sS"482344968['guard']"
p311
I-1000
sS"218103808['attack', (17, 6)]"
p312
I-1000
sS"180355072['move', (11, 5)]"
p313
I-1000
sS"178257920['attack', (10, 4)]"
p314
I0
sS"450887684['attack', (14, 14)]"
p315
I-1000
sS"217055237['move', (15, 5)]"
p316
I0
sS"443547712['move', (7, 12)]"
p317
I1000
sS"111149128['attack', (10, 2)]"
p318
I-1000
sS"519045120['attack', (15, 14)]"
p319
I-1000
sS"235929602['attack', (2, 7)]"
p320
I-1000
sS"41943168['attack', (8, 2)]"
p321
I-1000
sS"181403648['attack', (13, 4)]"
p322
I-1000
sS"183500932['attack', (16, 5)]"
p323
I1000
sS"244318208['attack', (9, 6)]"
p324
I-1000
sS"313524224['move', (12, 9)]"
p325
I1000
sS"450887808['move', (14, 14)]"
p326
I1000
sS"235929600['move', (1, 6)]"
p327
I-1000
sS"419430400['attack', (15, 12)]"
p328
I-1000
sS"544210960['move', (7, 15)]"
p329
I0
sS"138412064['move', (5, 4)]"
p330
I1000
sS"577765376['attack', (7, 18)]"
p331
I7000
sS"248512516['move', (14, 7)]"
p332
I1000
sS"315621520['move', (13, 10)]"
p333
I1000
sS"337641504['move', (1, 10)]"
p334
I1000
sS"351272992['guard']"
p335
I4000
sS"418381838['attack', (14, 12)]"
p336
I-1000
sS"205520896['guard']"
p337
I0
sS"182452226['move', (15, 5)]"
p338
I-1000
sS"281018370['move', (11, 8)]"
p339
I-1000
sS"218103936['move', (16, 5)]"
p340
I0
sS"178257920['move', (10, 6)]"
p341
I-1000
sS"109051906['move', (8, 2)]"
p342
I-1000
sS"149946372['attack', (16, 4)]"
p343
I-1000
sS"203423744['attack', (2, 7)]"
p344
I-1000
sS"450887685['attack', (14, 14)]"
p345
I1000
sS"547356800['attack', (11, 16)]"
p346
I-1000
sS"106954768['attack', (7, 3)]"
p347
I-1000
sS"217055248['move', (15, 7)]"
p348
I2000
sS"549453952['attack', (12, 17)]"
p349
I3000
sS"513802240['guard']"
p350
I23000
sS"216006720['attack', (14, 5)]"
p351
I-1000
sS"273678352['move', (5, 7)]"
p352
I-1000
sS"543162369['attack', (6, 15)]"
p353
I-2000
sS"337641472['attack', (3, 10)]"
p354
I-1000
sS"415236096['move', (13, 12)]"
p355
I0
sS"249561281['move', (13, 7)]"
p356
I-1000
sS"350224400['attack', (14, 9)]"
p357
I1000
sS"214958176['move', (13, 5)]"
p358
I1000
sS"546308100['attack', (9, 17)]"
p359
I1000
sS"182452352['attack', (14, 4)]"
p360
I1000
sS"385876096['attack', (16, 10)]"
p361
I-1000
sS"171966488['attack', (3, 5)]"
p362
I-1000
sS"350224385['attack', (14, 11)]"
p363
I-1000
sS"213909510['move', (12, 7)]"
p364
I1000
sS"105906186['attack', (5, 2)]"
p365
I-1000
sS"319815684['guard']"
p366
I0
sS"44040256['guard']"
p367
I2000
sS"217055296['attack', (16, 6)]"
p368
I0
sS"384827525['attack', (16, 11)]"
p369
I-1000
sS"179306496['attack', (11, 6)]"
p370
I-1000
sS"305135744['move', (4, 9)]"
p371
I1000
sS"80740416['attack', (14, 2)]"
p372
I-1000
sS"315621376['guard']"
p373
I0
sS"483393552['attack', (13, 13)]"
p374
I-1000
sS"183500832['attack', (15, 6)]"
p375
I0
sS"105906178['attack', (4, 3)]"
p376
I1000
sS"416284672['attack', (12, 12)]"
p377
I-1000
sS"116392128['attack', (14, 3)]"
p378
I-1000
sS"182452248['attack', (13, 5)]"
p379
I1000
sS"80740360['move', (13, 1)]"
p380
I-1000
sS"477102080['attack', (6, 14)]"
p381
I-1000
sS"251658240['attack', (17, 7)]"
p382
I-1000
sS"546308096['move', (10, 16)]"
p383
I-1000
sS"106954756['attack', (6, 4)]"
p384
I-1000
sS"249561090['move', (14, 8)]"
p385
I1000
sS"181403648['attack', (12, 5)]"
p386
I-1000
sS"218103809['move', (16, 7)]"
p387
I-1000
sS"80740352['guard']"
p388
I-1000
sS"42991680['move', (8, 1)]"
p389
I1000
sS"45088768['move', (12, 1)]"
p390
I4000
sS"404750340['guard']"
p391
I-1000
sS"303038464['attack', (0, 9)]"
p392
I-1000
sS"319815681['attack', (17, 10)]"
p393
I0
sS"72351744['guard']"
p394
I0
sS"77594648['attack', (9, 2)]"
p395
I1000
sS"339738624['move', (5, 10)]"
p396
I1000
sS"517996560['move', (14, 14)]"
p397
I0
sS"283115520['attack', (14, 7)]"
p398
I-1000
sS"350224385['attack', (14, 9)]"
p399
I-1000
sS"439353344['move', (2, 13)]"
p400
I4000
sS"312475648['attack', (9, 9)]"
p401
I3000
sS"452984832['move', (16, 14)]"
p402
I-1000
sS"481296544['attack', (10, 14)]"
p403
I-1000
sS"314572800['attack', (12, 8)]"
p404
I-1000
sS"303038468['attack', (2, 9)]"
p405
I-1000
sS"508559360['attack', (4, 15)]"
p406
I0
sS"282067152['move', (13, 9)]"
p407
I-1000
sS"45088768['move', (10, 1)]"
p408
I-1000
sS"440401922['attack', (4, 12)]"
p409
I-1000
sS"319815680['attack', (18, 9)]"
p410
I0
sS"250609674['move', (15, 8)]"
p411
I1000
sS"577765377['move', (7, 18)]"
p412
I-1000
sS"250609856['attack', (15, 6)]"
p413
I1000
sS"247464064['guard']"
p414
I1000
sS"348127234['attack', (12, 9)]"
p415
I-1000
sS"217055280['move', (15, 7)]"
p416
I1000
sS"113246208['attack', (12, 2)]"
p417
I7000
sS"317718576['attack', (15, 8)]"
p418
I-1000
sS"484442128['attack', (14, 15)]"
p419
I4000
sS"251658248['move', (15, 7)]"
p420
I1000
sS"386924544['attack', (16, 11)]"
p421
I-1000
sS"183500832['attack', (14, 5)]"
p422
I0
sS"484442144['move', (14, 15)]"
p423
I-1000
sS"481296400['attack', (12, 14)]"
p424
I-1000
sS"73400448['attack', (7, 2)]"
p425
I1000
sS"415236104['attack', (11, 12)]"
p426
I-1000
sS"384827408['attack', (14, 11)]"
p427
I-1000
sS"318767232['move', (16, 8)]"
p428
I-1000
sS"449839105['move', (14, 13)]"
p429
I-1000
sS"339738784['attack', (4, 11)]"
p430
I1000
sS"517996592['move', (14, 14)]"
p431
I1000
sS"484442241['move', (15, 14)]"
p432
I1000
sS"45088768['attack', (11, 2)]"
p433
I-1000
sS"515899520['attack', (12, 16)]"
p434
I-1000
sS"239075328['attack', (4, 6)]"
p435
I-1000
sS"111149088['move', (9, 3)]"
p436
I2000
sS"246415360['move', (11, 8)]"
p437
I-1000
sS"40894464['move', (8, 1)]"
p438
I2000
sS"138412104['guard']"
p439
I-1000
sS"106954768['move', (7, 3)]"
p440
I-1000
sS"182452226['attack', (15, 5)]"
p441
I-1000
sS"109051969['attack', (8, 4)]"
p442
I0
sS"144703490['attack', (10, 5)]"
p443
I-1000
sS"75497472['attack', (8, 1)]"
p444
I-1000
sS"351273024['guard']"
p445
I-1000
sS"179306498['move', (10, 5)]"
p446
I1000
sS"451936385['attack', (14, 13)]"
p447
I1000
sS"352321664['attack', (15, 10)]"
p448
I-1000
sS"109051940['move', (8, 2)]"
p449
I1000
sS"477102080['move', (7, 15)]"
p450
I-1000
sS"116391940['move', (15, 4)]"
p451
I1000
sS"283115536['attack', (14, 7)]"
p452
I-1000
sS"336592896['attack', (1, 11)]"
p453
I-1000
sS"76546080['attack', (9, 1)]"
p454
I-1000
sS"251658256['attack', (16, 8)]"
p455
I0
sS"247463968['guard']"
p456
I7000
sS"514850944['attack', (10, 15)]"
p457
I-1000
sS"77594640['move', (10, 3)]"
p458
I2000
sS"206569472['move', (5, 5)]"
p459
I2000
sS"350224384['move', (14, 11)]"
p460
I1000
sS"350224386['guard']"
p461
I-1000
sS"115343424['attack', (14, 4)]"
p462
I-1000
sS"543162368['move', (5, 16)]"
p463
I0
sS"414187522['attack', (11, 13)]"
p464
I-1000
sS"408944640['guard']"
p465
I10000
sS"546308128['attack', (9, 15)]"
p466
I3000
sS"113246273['move', (12, 2)]"
p467
I-1000
sS"484442256['guard']"
p468
I-1000
sS"371195912['move', (1, 11)]"
p469
I3000
sS"283115600['move', (13, 8)]"
p470
I-1000
sS"249561168['attack', (13, 7)]"
p471
I-1000
sS"351272960['attack', (15, 9)]"
p472
I9000
sS"146800648['attack', (11, 4)]"
p473
I-1000
sS"282066945['attack', (13, 7)]"
p474
I-1000
sS"477102080['move', (7, 13)]"
p475
I-1000
sS"143654912['move', (8, 4)]"
p476
I0
sS"416284676['guard']"
p477
I-1000
sS"181403680['move', (12, 5)]"
p478
I2000
sS"217055280['move', (15, 5)]"
p479
I-1000
sS"142606336['guard']"
p480
I8000
sS"319815744['attack', (17, 10)]"
p481
I-1000
sS"473956354['guard']"
p482
I1000
sS"42991616['move', (9, 2)]"
p483
I-1000
sS"547356688['move', (10, 17)]"
p484
I1000
sS"415236096['attack', (12, 11)]"
p485
I0
sS"236978178['move', (2, 8)]"
p486
I-1000
sS"549453825['attack', (12, 17)]"
p487
I2000
sS"147849253['move', (12, 4)]"
p488
I1000
sS"336592896['move', (1, 9)]"
p489
I-1000
sS"147849224['attack', (14, 4)]"
p490
I-1000
sS"419430404['attack', (16, 11)]"
p491
I0
sS"406847552['attack', (4, 11)]"
p492
I4000
sS"382730272['attack', (13, 10)]"
p493
I2000
sS"283115524['attack', (13, 8)]"
p494
I1000
sS"549453955['attack', (11, 16)]"
p495
I1000
sS"183500802['move', (15, 4)]"
p496
I-1000
sS"483393545['move', (13, 13)]"
p497
I1000
sS"216006752['move', (15, 6)]"
p498
I3000
sS"382730273['attack', (14, 11)]"
p499
I1000
sS"116392068['guard']"
p500
I1000
sS"319815696['move', (17, 8)]"
p501
I-1000
sS"404750402['attack', (3, 12)]"
p502
I-1000
sS"317718656['move', (15, 10)]"
p503
I-1000
sS"104857608['move', (4, 2)]"
p504
I0
sS"351272961['move', (15, 9)]"
p505
I-1000
sS"179306497['move', (10, 5)]"
p506
I-1000
sS"110100546['move', (10, 3)]"
p507
I-1000
sS"181403648['guard']"
p508
I-1000
sS"116391936['attack', (15, 4)]"
p509
I-1000
sS"184549380['move', (16, 6)]"
p510
I1000
sS"247463936['attack', (12, 8)]"
p511
I5000
sS"272629761['attack', (5, 8)]"
p512
I1000
sS"208666624['guard']"
p513
I0
sS"216006784['attack', (14, 5)]"
p514
I3000
sS"269484032['move', (1, 9)]"
p515
I-1000
sS"509607936['attack', (6, 16)]"
p516
I0
sS"404750336['move', (1, 12)]"
p517
I-1000
sS"111149064['attack', (10, 2)]"
p518
I0
sS"477102098['attack', (8, 14)]"
p519
I1000
sS"314572864['move', (13, 9)]"
p520
I1000
sS"482345124['move', (12, 13)]"
p521
I-1000
sS"212860928['attack', (11, 7)]"
p522
I-1000
sS"284164098['move', (15, 7)]"
p523
I1000
sS"519045136['attack', (14, 15)]"
p524
I0
sS"384827392['guard']"
p525
I0
sS"113246212['move', (12, 2)]"
p526
I1000
sS"184549380['move', (16, 4)]"
p527
I0
sS"286261376['guard']"
p528
I-2000
sS"44040324['attack', (10, 2)]"
p529
I-1000
sS"314572800['move', (11, 9)]"
p530
I-1000
sS"351273024['move', (14, 10)]"
p531
I2000
sS"218103808['move', (16, 7)]"
p532
I1000
sS"305135616['move', (3, 10)]"
p533
I-1000
sS"80740356['move', (14, 2)]"
p534
I2000
sS"316670016['attack', (15, 9)]"
p535
I2000
sS"508559360['guard']"
p536
I-1000
sS"174063618['guard']"
p537
I0
sS"184549508['attack', (17, 5)]"
p538
I2000
sS"182452320['attack', (14, 6)]"
p539
I1000
sS"116391936['attack', (15, 2)]"
p540
I-1000
sS"41943040['move', (9, 1)]"
p541
I-1000
sS"352321729['move', (16, 11)]"
p542
I1000
sS"549453984['move', (13, 16)]"
p543
I-1000
sS"247463968['attack', (12, 8)]"
p544
I0
sS"217055265['guard']"
p545
I1000
sS"218103816['attack', (16, 5)]"
p546
I-1000
sS"384827424['move', (15, 10)]"
p547
I1000
sS"485490696['move', (15, 15)]"
p548
I-1000
sS"111149064['attack', (10, 4)]"
p549
I0
sS"210763776['move', (10, 6)]"
p550
I-1000
sS"169869312['attack', (2, 4)]"
p551
I-1000
sS"416284801['move', (13, 13)]"
p552
I1000
sS"112197728['attack', (12, 3)]"
p553
I-1000
sS"478150784['guard']"
p554
I-1000
sS"103809030['attack', (3, 2)]"
p555
I1000
sS"578813960['attack', (9, 17)]"
p556
I-1000
sS"106954754['attack', (7, 3)]"
p557
I1000
sS"174063696['guard']"
p558
I-1000
sS"543162368['move', (7, 16)]"
p559
I1000
sS"146800784['attack', (11, 4)]"
p560
I-1000
sS"352321760['move', (16, 9)]"
p561
I1000
sS"249561089['attack', (15, 7)]"
p562
I-1000
sS"450887680['move', (13, 13)]"
p563
I-1000
sS"351272964['move', (16, 10)]"
p564
I-1000
sS"276824066['attack', (8, 7)]"
p565
I1000
sS"381681664['move', (12, 10)]"
p566
I0
sS"407896064['attack', (6, 12)]"
p567
I0
sS"285212816['move', (16, 7)]"
p568
I-1000
sS"80740356['attack', (14, 2)]"
p569
I0
sS"516947972['move', (12, 15)]"
p570
I-1000
sS"251658240['move', (17, 7)]"
p571
I-1000
sS"104857728['move', (3, 3)]"
p572
I0
sS"542113792['move', (5, 17)]"
p573
I-1000
sS"416284688['guard']"
p574
I2000
sS"506462210['move', (2, 15)]"
p575
I0
sS"404750354['guard']"
p576
I-1000
sS"578813984['move', (9, 17)]"
p577
I1000
sS"350224512['attack', (15, 10)]"
p578
I-1000
sS"515899392['attack', (13, 15)]"
p579
I-1000
sS"239075328['move', (3, 7)]"
p580
I2000
sS"137363457['attack', (3, 3)]"
p581
I-1000
sS"203423744['move', (1, 6)]"
p582
I-1000
sS"182452290['move', (15, 5)]"
p583
I1000
sS"184549504['attack', (15, 5)]"
p584
I1000
sS"407896100['attack', (5, 11)]"
p585
I1000
sS"246415360['move', (12, 7)]"
p586
I-1000
sS"250609680['attack', (16, 7)]"
p587
I0
sS"547356737['attack', (11, 16)]"
p588
I-1000
sS"77594625['attack', (10, 1)]"
p589
I1000
sS"353370128['attack', (17, 11)]"
p590
I-1000
sS"519045121['move', (15, 14)]"
p591
I1000
sS"116392064['attack', (14, 3)]"
p592
I1000
sS"148897816['move', (14, 5)]"
p593
I-1000
sS"386924560['move', (16, 11)]"
p594
I-1000
sS"549453825['move', (12, 15)]"
p595
I-1000
sS"147849216['attack', (13, 3)]"
p596
I0
sS"438304770['attack', (1, 13)]"
p597
I4000
sS"316670080['move', (14, 10)]"
p598
I1000
sS"485490688['attack', (15, 15)]"
p599
I0
sS"76546056['attack', (10, 2)]"
p600
I-1000
sS"475004944['move', (5, 13)]"
p601
I-1000
sS"110100488['move', (9, 2)]"
p602
I0
sS"140509188['move', (5, 4)]"
p603
I1000
sS"184549568['guard']"
p604
I1000
sS"305135620['attack', (4, 9)]"
p605
I-1000
sS"80740352['attack', (13, 1)]"
p606
I-1000
sS"270532672['move', (2, 9)]"
p607
I-1000
sS"517996553['attack', (14, 16)]"
p608
I-1000
sS"481296512['move', (10, 14)]"
p609
I-1000
sS"212860944['move', (11, 7)]"
p610
I-1000
sS"149946368['attack', (15, 3)]"
p611
I0
sS"108003336['move', (7, 2)]"
p612
I-1000
sS"382730242['guard']"
p613
I-1000
sS"104857632['attack', (5, 3)]"
p614
I-1000
sS"207618049['move', (6, 5)]"
p615
I0
sS"146800644['move', (13, 4)]"
p616
I1000
sS"75497552['guard']"
p617
I-1000
sS"112197640['move', (10, 3)]"
p618
I-1000
sS"438304768['attack', (2, 12)]"
p619
I-1000
sS"440401952['attack', (3, 13)]"
p620
I0
sS"507510792['attack', (5, 15)]"
p621
I3000
sS"353370112['attack', (17, 11)]"
p622
I-1000
sS"438304784['move', (1, 13)]"
p623
I-1000
sS"80740360['attack', (14, 2)]"
p624
I2000
sS"315621378['move', (13, 10)]"
p625
I1000
sS"353370116['attack', (17, 9)]"
p626
I-1000
sS"374341640['move', (6, 11)]"
p627
I-1000
sS"472907840['move', (3, 15)]"
p628
I-1000
sS"110100496['attack', (9, 2)]"
p629
I-1000
sS"303038464['move', (1, 10)]"
p630
I-1000
sS"548405408['attack', (11, 15)]"
p631
I1000
sS"106954753['guard']"
p632
I-1000
sS"179306505['move', (11, 6)]"
p633
I1000
sS"340787328['attack', (6, 10)]"
p634
I2000
sS"384827568['guard']"
p635
I-1000
sS"76546064['guard']"
p636
I-1000
sS"516948000['attack', (13, 16)]"
p637
I-1000
sS"315621392['move', (14, 9)]"
p638
I-1000
sS"138412032['attack', (3, 4)]"
p639
I-1000
sS"213909504['move', (12, 7)]"
p640
I0
sS"314572800['attack', (12, 10)]"
p641
I3000
sS"542113794['move', (4, 16)]"
p642
I-1000
sS"114294912['attack', (12, 3)]"
p643
I1000
sS"511705104['move', (7, 15)]"
p644
I1000
sS"79691776['attack', (12, 3)]"
p645
I7000
sS"243269632['attack', (8, 8)]"
p646
I6000
sS"308281344['move', (7, 9)]"
p647
I1000
sS"144703520['guard']"
p648
I-1000
sS"516948048['attack', (12, 15)]"
p649
I1000
sS"547356712['guard']"
p650
I-1000
sS"249561104['move', (14, 6)]"
p651
I-1000
sS"405798912['attack', (2, 12)]"
p652
I-1000
sS"73400384['attack', (5, 2)]"
p653
I1000
sS"337641632['move', (2, 9)]"
p654
I1000
sS"214958082['move', (13, 7)]"
p655
I1000
sS"170917888['attack', (3, 4)]"
p656
I-1000
sS"41943040['move', (8, 0)]"
p657
I-1000
sS"507510912['attack', (4, 16)]"
p658
I2000
sS"148897792['move', (14, 5)]"
p659
I2000
sS"286261320['move', (17, 9)]"
p660
I1000
sS"238026753['move', (3, 8)]"
p661
I-1000
sS"418381832['guard']"
p662
I0
sS"351272964['move', (14, 10)]"
p663
I0
sS"350224532['guard']"
p664
I1000
sS"579862672['move', (10, 17)]"
p665
I1000
sS"375390336['move', (5, 11)]"
p666
I1000
sS"336592900['move', (1, 9)]"
p667
I0
sS"483393544['move', (13, 13)]"
p668
I-1000
sS"477102112['move', (7, 15)]"
p669
I-1000
sS"417333376['attack', (15, 12)]"
p670
I0
sS"175112200['attack', (7, 4)]"
p671
I0
sS"444596224['attack', (9, 13)]"
p672
I0
sS"577765376['move', (7, 16)]"
p673
I-1000
sS"481296386['move', (11, 13)]"
p674
I-1000
sS"372244482['guard']"
p675
I-1000
sS"176160768['move', (7, 5)]"
p676
I3000
sS"475004960['move', (5, 13)]"
p677
I1000
sS"316669952['attack', (14, 10)]"
p678
I1000
sS"318767106['attack', (16, 8)]"
p679
I-1000
sS"580911136['attack', (9, 17)]"
p680
I0
sS"314572802['guard']"
p681
I-1000
sS"110100484['guard']"
p682
I-1000
sS"579862536['attack', (8, 17)]"
p683
I0
sS"353370112['guard']"
p684
I0
sS"404750340['attack', (2, 11)]"
p685
I0
sS"145752074['attack', (12, 4)]"
p686
I1000
sS"581959824['move', (11, 18)]"
p687
I1000
sS"337641480['attack', (1, 10)]"
p688
I-1000
sS"337641473['guard']"
p689
I1000
sS"217055376['move', (14, 6)]"
p690
I1000
sS"485490704['move', (15, 13)]"
p691
I-1000
sS"482345120['move', (11, 14)]"
p692
I2000
sS"439353346['attack', (2, 13)]"
p693
I-1000
sS"249561217['move', (14, 8)]"
p694
I2000
sS"385876096['attack', (15, 11)]"
p695
I1000
sS"476053568['attack', (6, 13)]"
p696
I1000
sS"478150664['attack', (9, 14)]"
p697
I2000
sS"517996546['guard']"
p698
I1000
sS"314572832['attack', (12, 8)]"
p699
I-1000
sS"146800688['move', (11, 4)]"
p700
I1000
sS"216006896['attack', (14, 5)]"
p701
I1000
sS"182452240['move', (14, 4)]"
p702
I-1000
sS"175112192['attack', (6, 5)]"
p703
I2000
sS"104857608['move', (5, 3)]"
p704
I-1000
sS"173015040['attack', (5, 6)]"
p705
I0
sS"110100480['attack', (8, 3)]"
p706
I7000
sS"106954752['attack', (6, 4)]"
p707
I16000
sS"184549376['move', (17, 5)]"
p708
I0
sS"417333248['move', (14, 13)]"
p709
I2000
sS"248512514['move', (14, 7)]"
p710
I-1000
sS"114294786['move', (12, 3)]"
p711
I-1000
sS"512753664['move', (9, 16)]"
p712
I1000
sS"76546064['move', (8, 2)]"
p713
I1000
sS"578813968['move', (7, 17)]"
p714
I0
sS"283115523['guard']"
p715
I-1000
sS"146800672['attack', (13, 4)]"
p716
I0
sS"145752072['attack', (11, 3)]"
p717
I1000
sS"145752072['move', (12, 4)]"
p718
I-1000
sS"72351748['move', (6, 2)]"
p719
I1000
sS"382730304['attack', (14, 11)]"
p720
I3000
sS"448790529['move', (12, 14)]"
p721
I1000
sS"142606352['guard']"
p722
I0
sS"348127232['guard']"
p723
I-1000
sS"285212672['move', (16, 7)]"
p724
I2000
sS"445644800['attack', (9, 12)]"
p725
I-1000
sS"384827400['move', (14, 11)]"
p726
I1000
sS"140509264['move', (5, 4)]"
p727
I2000
sS"184549376['attack', (16, 4)]"
p728
I-1000
sS"147849216['attack', (13, 5)]"
p729
I0
sS"406847520['move', (4, 13)]"
p730
I-1000
sS"315621376['attack', (13, 10)]"
p731
I-1000
sS"305135680['guard']"
p732
I2000
sS"316670017['attack', (13, 9)]"
p733
I1000
sS"417333312['move', (14, 13)]"
p734
I0
sS"184549388['guard']"
p735
I-1000
sS"285212820['attack', (17, 8)]"
p736
I1000
sS"336592896['move', (1, 11)]"
p737
I-1000
sS"41943044['attack', (8, 0)]"
p738
I-1000
sS"452984833['move', (16, 14)]"
p739
I-1000
sS"276824064['move', (8, 9)]"
p740
I-1000
sS"581959680['move', (11, 16)]"
p741
I7000
sS"249561097['move', (14, 6)]"
p742
I-2000
sS"44040224['guard']"
p743
I-1000
sS"547356816['attack', (11, 16)]"
p744
I1000
sS"249561097['move', (15, 7)]"
p745
I-1000
sS"307232832['move', (5, 10)]"
p746
I0
sS"314572800['guard']"
p747
I-1000
sS"316669954['attack', (14, 10)]"
p748
I1000
sS"381681728['move', (13, 11)]"
p749
I2000
sS"348127232['move', (11, 10)]"
p750
I7000
sS"147849218['guard']"
p751
I5000
sS"580911136['attack', (11, 17)]"
p752
I0
sS"111149096['move', (9, 3)]"
p753
I1000
sS"316669968['attack', (14, 10)]"
p754
I3000
sS"114294784['move', (14, 3)]"
p755
I0
sS"284164112['attack', (14, 8)]"
p756
I1000
sS"353370117['attack', (17, 9)]"
p757
I1000
sS"140509188['move', (6, 5)]"
p758
I-1000
sS"385876100['attack', (16, 12)]"
p759
I1000
sS"284164289['guard']"
p760
I1000
sS"384827392['move', (15, 12)]"
p761
I-1000
sS"106954784['guard']"
p762
I-1000
sS"519045248['attack', (14, 15)]"
p763
I-1000
sS"116392000['move', (15, 2)]"
p764
I-1000
sS"313524224['move', (11, 8)]"
p765
I-2000
sS"443547648['move', (7, 14)]"
p766
I2000
sS"214958092['attack', (14, 6)]"
p767
I1000
sS"104857604['guard']"
p768
I0
sS"316669953['move', (14, 8)]"
p769
I-2000
sS"404750416['move', (2, 11)]"
p770
I-1000
sS"480247904['attack', (10, 13)]"
p771
I-1000
sS"374341664['move', (4, 11)]"
p772
I1000
sS"340787200['attack', (4, 10)]"
p773
I15000
sS"479199232['attack', (8, 14)]"
p774
I-2000
sS"349175840['attack', (14, 10)]"
p775
I-1000
sS"248512524['move', (13, 8)]"
p776
I-1000
sS"484442112['move', (15, 14)]"
p777
I-1000
sS"115343392['move', (14, 2)]"
p778
I-1000
sS"511705216['guard']"
p779
I-1000
sS"42991680['move', (9, 2)]"
p780
I-1000
sS"440401936['attack', (4, 14)]"
p781
I1000
sS"348127232['move', (13, 10)]"
p782
I-1000
sS"412090368['attack', (9, 13)]"
p783
I-1000
sS"337641600['move', (1, 10)]"
p784
I1000
sS"149946433['move', (16, 4)]"
p785
I1000
sS"515899408['move', (12, 16)]"
p786
I1000
sS"183500816['move', (15, 4)]"
p787
I0
sS"449839104['attack', (13, 14)]"
p788
I0
sS"409993216['guard']"
p789
I-1000
sS"44040320['move', (9, 1)]"
p790
I1000
sS"245366784['attack', (9, 7)]"
p791
I-1000
sS"141557760['attack', (8, 4)]"
p792
I0
sS"249561232['attack', (13, 7)]"
p793
I9000
sS"319815680['attack', (16, 9)]"
p794
I0
sS"447741952['move', (12, 13)]"
p795
I1000
sS"417333248['move', (14, 11)]"
p796
I0
sS"480247840['guard']"
p797
I0
sS"109051920['attack', (8, 4)]"
p798
I1000
sS"72351776['move', (5, 3)]"
p799
I1000
sS"415236096['attack', (13, 12)]"
p800
I12000
sS"171966464['guard']"
p801
I1000
sS"548405248['attack', (10, 16)]"
p802
I-1000
sS"383779008['attack', (14, 12)]"
p803
I2000
sS"285212688['attack', (16, 9)]"
p804
I0
sS"480247820['guard']"
p805
I1000
sS"439353352['move', (3, 14)]"
p806
I-1000
sS"481296384['attack', (12, 14)]"
p807
I15000
sS"113246209['attack', (12, 2)]"
p808
I-1000
sS"438304784['attack', (3, 13)]"
p809
I-1000
sS"285212672['attack', (15, 8)]"
p810
I-1000
sS"73400384['attack', (6, 1)]"
p811
I-1000
sS"145752068['move', (10, 4)]"
p812
I-1000
sS"174063632['guard']"
p813
I4000
sS"115343400['attack', (13, 3)]"
p814
I0
sS"137363457['move', (3, 3)]"
p815
I-1000
sS"509608000['attack', (6, 14)]"
p816
I-1000
sS"382730304['attack', (13, 10)]"
p817
I0
sS"41943042['move', (9, 1)]"
p818
I2000
sS"142606340['move', (8, 5)]"
p819
I1000
sS"111149200['attack', (9, 3)]"
p820
I-1000
sS"75497504['attack', (8, 3)]"
p821
I1000
sS"316669952['move', (13, 9)]"
p822
I-1000
sS"140509296['move', (6, 5)]"
p823
I-1000
sS"510656512['move', (8, 15)]"
p824
I-1000
sS"482344960['move', (12, 15)]"
p825
I1000
sS"245366784['move', (10, 6)]"
p826
I-1000
sS"184549440['attack', (17, 5)]"
p827
I-1000
sS"282066944['attack', (12, 8)]"
p828
I-1000
sS"271581184['move', (3, 7)]"
p829
I-1000
sS"214958116['attack', (13, 5)]"
p830
I1000
sS"384827394['move', (16, 11)]"
p831
I1000
sS"248512514['attack', (13, 6)]"
p832
I-1000
sS"115343424['move', (15, 3)]"
p833
I-1000
sS"141557762['move', (7, 5)]"
p834
I1000
sS"404750338['move', (2, 13)]"
p835
I2000
sS"337641504['attack', (1, 10)]"
p836
I-1000
sS"545259520['attack', (8, 15)]"
p837
I-1000
sS"141557776['move', (7, 3)]"
p838
I1000
sS"141557760['move', (7, 3)]"
p839
I-1000
sS"218103808['move', (17, 6)]"
p840
I0
sS"303038496['move', (0, 9)]"
p841
I-1000
sS"371195904['attack', (1, 11)]"
p842
I-1000
sS"285212672['move', (15, 8)]"
p843
I0
sS"182452289['attack', (15, 5)]"
p844
I0
sS"382730240['move', (12, 11)]"
p845
I3000
sS"206569488['move', (5, 7)]"
p846
I-1000
sS"184549376['move', (16, 6)]"
p847
I-1000
sS"442499200['guard']"
p848
I-1000
sS"144703488['attack', (11, 4)]"
p849
I14000
sS"546308096['attack', (10, 16)]"
p850
I0
sS"548405248['move', (11, 17)]"
p851
I-1000
sS"284164104['attack', (14, 8)]"
p852
I0
sS"306184192['move', (4, 10)]"
p853
I0
sS"545259528['attack', (9, 16)]"
p854
I-1000
sS"508559372['move', (4, 15)]"
p855
I-1000
sS"545259521['guard']"
p856
I-1000
sS"284164102['attack', (15, 7)]"
p857
I-1000
sS"385875969['guard']"
p858
I-1000
sS"247463936['attack', (11, 7)]"
p859
I-1000
sS"181403651['attack', (13, 4)]"
p860
I-1000
sS"318767107['attack', (15, 9)]"
p861
I1000
sS"147849280['move', (12, 4)]"
p862
I1000
sS"438304768['move', (2, 14)]"
p863
I-1000
sS"142606336['move', (8, 3)]"
p864
I-1000
sS"547356675['move', (10, 17)]"
p865
I-1000
sS"514850817['move', (11, 16)]"
p866
I-1000
sS"405799040['attack', (3, 13)]"
p867
I0
sS"173015168['attack', (5, 4)]"
p868
I-1000
sS"181403650['attack', (13, 4)]"
p869
I1000
sS"406847552['attack', (4, 13)]"
p870
I0
sS"178257922['guard']"
p871
I-1000
sS"250609796['move', (14, 7)]"
p872
I-1000
sS"235929604['move', (0, 7)]"
p873
I-1000
sS"337641536['attack', (2, 11)]"
p874
I1000
sS"405798976['attack', (4, 12)]"
p875
I0
sS"76546049['attack', (9, 1)]"
p876
I-1000
sS"415236112['move', (12, 11)]"
p877
I2000
sS"412090372['move', (9, 13)]"
p878
I1000
sS"351272962['guard']"
p879
I-1000
sS"549453833['attack', (12, 15)]"
p880
I1000
sS"543162368['move', (6, 17)]"
p881
I-1000
sS"406847492['guard']"
p882
I1000
sS"246415392['guard']"
p883
I1000
sS"315621377['move', (13, 10)]"
p884
I-1000
sS"315621440['attack', (13, 10)]"
p885
I-1000
sS"374341648['move', (6, 11)]"
p886
I1000
sS"171966464['move', (3, 5)]"
p887
I-1000
sS"347078688['attack', (11, 11)]"
p888
I1000
sS"116391944['guard']"
p889
I3000
sS"114294792['guard']"
p890
I-1000
sS"144703489['move', (11, 4)]"
p891
I2000
sS"218103808['attack', (15, 6)]"
p892
I0
sS"169869312['guard']"
p893
I-1000
sS"451936257['attack', (15, 12)]"
p894
I-1000
sS"275775488['move', (8, 8)]"
p895
I-1000
sS"204472320['attack', (3, 5)]"
p896
I-1000
sS"242221058['attack', (7, 6)]"
p897
I1000
sS"306184192['attack', (4, 8)]"
p898
I-1000
sS"513802272['move', (9, 15)]"
p899
I-1000
sS"250609668['move', (15, 8)]"
p900
I-1000
sS"545259556['attack', (8, 15)]"
p901
I-1000
sS"374341632['move', (5, 10)]"
p902
I1000
sS"416284673['move', (13, 13)]"
p903
I1000
sS"204472324['move', (3, 5)]"
p904
I-1000
sS"303038468['move', (1, 10)]"
p905
I1000
sS"106954912['guard']"
p906
I-1000
sS"343932928['move', (8, 9)]"
p907
I-1000
sS"418381824['guard']"
p908
I-1000
sS"579862552['move', (9, 16)]"
p909
I-1000
sS"103809056['move', (3, 2)]"
p910
I0
sS"251658240['attack', (16, 8)]"
p911
I-1000
sS"338690048['attack', (2, 10)]"
p912
I0
sS"318767186['move', (16, 10)]"
p913
I1000
sS"419430404['attack', (17, 12)]"
p914
I-1000
sS"404750337['move', (2, 13)]"
p915
I-1000
sS"249561088['attack', (14, 6)]"
p916
I0
sS"349175808['move', (14, 10)]"
p917
I2000
sS"484442116['attack', (13, 14)]"
p918
I3000
sS"235929664['attack', (2, 7)]"
p919
I2000
sS"507510824['attack', (4, 16)]"
p920
I1000
sS"77594625['attack', (10, 3)]"
p921
I0
sS"203423744['attack', (2, 5)]"
p922
I-1000
sS"516947984['attack', (13, 14)]"
p923
I5000
sS"113246210['attack', (12, 2)]"
p924
I1000
sS"482345094['move', (12, 13)]"
p925
I-1000
sS"149946368['attack', (16, 4)]"
p926
I-1000
sS"479199232['attack', (9, 13)]"
p927
I-1000
sS"485490688['attack', (15, 13)]"
p928
I-1000
sS"483393568['attack', (12, 14)]"
p929
I0
sS"143654928['attack', (9, 5)]"
p930
I-1000
sS"235929602['attack', (1, 8)]"
p931
I-1000
sS"577765376['attack', (7, 16)]"
p932
I-1000
sS"145752066['attack', (11, 3)]"
p933
I0
sS"476053632['attack', (5, 14)]"
p934
I0
sS"212860929['attack', (11, 7)]"
p935
I-1000
sS"478150656['attack', (8, 13)]"
p936
I11000
sS"315621408['move', (13, 10)]"
p937
I1000
sS"440401944['attack', (4, 14)]"
p938
I1000
sS"441450500['move', (5, 12)]"
p939
I1000
sS"78643328['attack', (12, 2)]"
p940
I-1000
sS"507510793['attack', (4, 16)]"
p941
I-1000
sS"145752066['attack', (12, 4)]"
p942
I-1000
sS"404750340['move', (3, 12)]"
p943
I-1000
sS"416284720['move', (12, 12)]"
p944
I1000
sS"449839168['guard']"
p945
I-1000
sS"286261248['attack', (18, 8)]"
p946
I0
sS"104857600['move', (4, 2)]"
p947
I-1000
sS"145752064['attack', (12, 4)]"
p948
I-1000
sS"148897792['attack', (14, 5)]"
p949
I0
sS"181403776['attack', (13, 4)]"
p950
I-1000
sS"444596224['attack', (8, 12)]"
p951
I0
sS"336592928['move', (0, 10)]"
p952
I2000
sS"516947968['attack', (13, 16)]"
p953
I0
sS"141557792['attack', (8, 4)]"
p954
I0
sS"148897808['attack', (14, 3)]"
p955
I-1000
sS"76546112['move', (8, 2)]"
p956
I-1000
sS"110100520['attack', (8, 3)]"
p957
I1000
sS"213909508['attack', (11, 6)]"
p958
I0
sS"548405248['attack', (11, 15)]"
p959
I-2000
sS"485490689['move', (14, 14)]"
p960
I-1000
sS"315621376['attack', (12, 9)]"
p961
I0
sS"448790528['attack', (11, 13)]"
p962
I0
sS"248512521['move', (12, 7)]"
p963
I1000
sS"514850848['move', (11, 16)]"
p964
I1000
sS"235929604['move', (2, 7)]"
p965
I0
sS"350224402['move', (14, 11)]"
p966
I1000
sS"216006658['guard']"
p967
I-1000
sS"77594656['move', (11, 2)]"
p968
I0
sS"338690104['move', (2, 10)]"
p969
I1000
sS"181403648['move', (13, 6)]"
p970
I-1000
sS"103809056['attack', (4, 3)]"
p971
I-1000
sS"350224513['attack', (15, 10)]"
p972
I-1000
sS"316670100['attack', (14, 10)]"
p973
I1000
sS"182452232['guard']"
p974
I-1000
sS"484442176['attack', (14, 15)]"
p975
I0
sS"137363488['attack', (3, 5)]"
p976
I1000
sS"113246400['attack', (12, 2)]"
p977
I2000
sS"349175840['attack', (12, 10)]"
p978
I0
sS"515899456['attack', (12, 14)]"
p979
I0
sS"145752256['move', (11, 5)]"
p980
I1000
sS"315621409['guard']"
p981
I1000
sS"516947968['move', (13, 14)]"
p982
I7000
sS"514850825['attack', (11, 16)]"
p983
I1000
sS"315621505['move', (12, 9)]"
p984
I-1000
sS"452984840['attack', (16, 12)]"
p985
I-1000
sS"76546112['move', (9, 3)]"
p986
I0
sS"240123968['move', (5, 8)]"
p987
I-1000
sS"343932928['move', (9, 10)]"
p988
I-1000
sS"513802256['move', (10, 16)]"
p989
I-1000
sS"112197632['move', (11, 2)]"
p990
I-1000
sS"209715232['move', (8, 7)]"
p991
I1000
sS"547356880['move', (9, 16)]"
p992
I1000
sS"439353370['move', (4, 13)]"
p993
I-1000
sS"241172608['move', (5, 7)]"
p994
I-1000
sS"417333249['move', (15, 12)]"
p995
I-1000
sS"252706816['attack', (18, 7)]"
p996
I-1000
sS"384827395['move', (14, 11)]"
p997
I1000
sS"336592896['attack', (2, 10)]"
p998
I-1000
sS"350224404['move', (15, 10)]"
p999
I-1000
sS"251658240['move', (16, 8)]"
p1000
I-1000
sS"308281345['move', (6, 10)]"
p1001
I-1000
sS"384827536['move', (14, 11)]"
p1002
I-1000
sS"180355074['attack', (13, 5)]"
p1003
I-1000
sS"114294816['move', (13, 4)]"
p1004
I0
sS"74448976['guard']"
p1005
I-1000
sS"42991616['guard']"
p1006
I-1000
sS"548405248['attack', (12, 16)]"
p1007
I-1000
sS"278921216['attack', (10, 9)]"
p1008
I-1000
sS"416284672['move', (12, 12)]"
p1009
I3000
sS"141557888['attack', (7, 5)]"
p1010
I0
sS"544210952['move', (8, 16)]"
p1011
I1000
sS"517996553['move', (13, 15)]"
p1012
I-1000
sS"79691784['move', (13, 2)]"
p1013
I1000
sS"517996560['attack', (14, 14)]"
p1014
I1000
sS"481296512['guard']"
p1015
I-1000
sS"509607952['move', (5, 15)]"
p1016
I1000
sS"417333248['attack', (14, 13)]"
p1017
I0
sS"249561280['attack', (14, 8)]"
p1018
I-1000
sS"578813952['guard']"
p1019
I12000
sS"484442160['move', (14, 15)]"
p1020
I1000
sS"439353376['attack', (3, 12)]"
p1021
I-1000
sS"353370116['guard']"
p1022
I3000
sS"510656512['attack', (6, 15)]"
p1023
I0
sS"482344961['move', (11, 14)]"
p1024
I-1000
sS"181403664['move', (14, 5)]"
p1025
I1000
sS"545259714['attack', (7, 16)]"
p1026
I1000
sS"347078656['move', (12, 10)]"
p1027
I0
sS"418381836['attack', (15, 11)]"
p1028
I-1000
sS"182452224['attack', (15, 5)]"
p1029
I-1000
sS"285212864['attack', (16, 7)]"
p1030
I1000
sS"218103872['move', (15, 6)]"
p1031
I-1000
sS"283115602['attack', (14, 9)]"
p1032
I-1000
sS"483393536['attack', (13, 13)]"
p1033
I0
sS"250609672['move', (14, 7)]"
p1034
I-1000
sS"281018432['move', (12, 9)]"
p1035
I0
sS"284164128['move', (15, 7)]"
p1036
I-1000
sS"283115536['attack', (14, 9)]"
p1037
I-1000
sS"283115525['attack', (14, 9)]"
p1038
I-1000
sS"110100512['attack', (9, 4)]"
p1039
I-1000
sS"418381824['move', (15, 13)]"
p1040
I5000
sS"248512642['attack', (13, 6)]"
p1041
I1000
sS"209715200['move', (8, 5)]"
p1042
I1000
sS"483393648['attack', (13, 13)]"
p1043
I-1000
sS"79691904['move', (12, 3)]"
p1044
I1000
sS"338690192['attack', (3, 11)]"
p1045
I1000
sS"145752064['attack', (11, 5)]"
p1046
I-2000
sS"478150722['move', (8, 15)]"
p1047
I1000
sS"383778852['attack', (13, 11)]"
p1048
I-1000
sS"171966464['move', (4, 6)]"
p1049
I-1000
sS"382730244['attack', (14, 11)]"
p1050
I-1000
sS"216006721['attack', (14, 5)]"
p1051
I5000
sS"283115521['attack', (15, 8)]"
p1052
I-1000
sS"249561092['attack', (15, 7)]"
p1053
I-1000
sS"106954784['move', (7, 3)]"
p1054
I0
sS"181403649['attack', (13, 4)]"
p1055
I1000
sS"438304784['move', (2, 12)]"
p1056
I1000
sS"281018400['move', (12, 7)]"
p1057
I-1000
sS"517996545['attack', (14, 14)]"
p1058
I-1000
sS"548405248['attack', (11, 17)]"
p1059
I-1000
sS"149946368['guard']"
p1060
I-1000
sS"45088768['attack', (10, 1)]"
p1061
I-1000
sS"142606344['attack', (9, 4)]"
p1062
I0
sS"177209408['guard']"
p1063
I2000
sS"115343360['attack', (13, 3)]"
p1064
I0
sS"249561312['attack', (14, 8)]"
p1065
I-1000
sS"484442113['attack', (13, 14)]"
p1066
I-1000
sS"440402050['move', (4, 14)]"
p1067
I1000
sS"480247812['attack', (9, 14)]"
p1068
I1000
sS"482345024['move', (12, 13)]"
p1069
I1000
sS"248512644['move', (13, 8)]"
p1070
I1000
sS"442499080['attack', (5, 13)]"
p1071
I1000
sS"270532608['attack', (2, 7)]"
p1072
I0
sS"516947972['attack', (13, 16)]"
p1073
I0
sS"41943040['attack', (9, 1)]"
p1074
I-1000
sS"284164224['move', (15, 9)]"
p1075
I-1000
sS"419430401['attack', (15, 12)]"
p1076
I3000
sS"516947974['attack', (13, 16)]"
p1077
I1000
sS"251658304['attack', (17, 7)]"
p1078
I2000
sS"380633090['move', (11, 12)]"
p1079
I-1000
sS"250609673['guard']"
p1080
I-1000
sS"580911232['attack', (10, 16)]"
p1081
I-1000
sS"419430400['attack', (17, 12)]"
p1082
I-2000
sS"441450624['attack', (5, 14)]"
p1083
I1000
sS"476053506['guard']"
p1084
I-1000
sS"580911112['attack', (10, 18)]"
p1085
I0
sS"105906208['attack', (4, 3)]"
p1086
I-1000
sS"42991648['move', (10, 1)]"
p1087
I0
sS"106954816['move', (7, 3)]"
p1088
I2000
sS"317718544['attack', (16, 9)]"
p1089
I2000
sS"271581184['attack', (3, 7)]"
p1090
I1000
sS"180355073['attack', (11, 5)]"
p1091
I1000
sS"179306560['guard']"
p1092
I-1000
sS"139460608['move', (6, 4)]"
p1093
I8000
sS"249561264['attack', (15, 7)]"
p1094
I1000
sS"579862536['attack', (10, 17)]"
p1095
I1000
sS"183500800['attack', (15, 6)]"
p1096
I22000
sS"73400384['guard']"
p1097
I-1000
sS"336592897['attack', (0, 10)]"
p1098
I-1000
sS"549453872['attack', (13, 16)]"
p1099
I1000
sS"252706824['attack', (17, 6)]"
p1100
I-1000
sS"408944640['move', (6, 13)]"
p1101
I-1000
sS"140509186['move', (5, 4)]"
p1102
I-1000
sS"112197796['move', (12, 3)]"
p1103
I1000
sS"216006768['attack', (14, 7)]"
p1104
I1000
sS"508559376['attack', (5, 14)]"
p1105
I0
sS"145752082['guard']"
p1106
I-1000
sS"578813954['move', (7, 17)]"
p1107
I0
sS"279969792['move', (11, 7)]"
p1108
I-1000
sS"449839104['move', (13, 12)]"
p1109
I0
sS"45088768['guard']"
p1110
I-1000
sS"451936288['attack', (14, 13)]"
p1111
I2000
sS"371195969['attack', (3, 11)]"
p1112
I-1000
sS"372244480['attack', (3, 10)]"
p1113
I8000
sS"110100490['attack', (9, 2)]"
p1114
I-1000
sS"182452228['guard']"
p1115
I0
sS"307232772['attack', (5, 10)]"
p1116
I0
sS"218103872['move', (16, 5)]"
p1117
I1000
sS"544210951['attack', (6, 16)]"
p1118
I1000
sS"218103820['attack', (16, 5)]"
p1119
I-1000
sS"337641472['move', (2, 9)]"
p1120
I-1000
sS"73400324['move', (7, 2)]"
p1121
I1000
sS"481296512['move', (11, 13)]"
p1122
I-1000
sS"214958272['attack', (13, 7)]"
p1123
I-1000
sS"482345088['move', (11, 14)]"
p1124
I8000
sS"147849360['move', (13, 3)]"
p1125
I1000
sS"149946372['guard']"
p1126
I-1000
sS"439353344['move', (3, 14)]"
p1127
I0
sS"517996545['guard']"
p1128
I0
sS"77594632['attack', (10, 3)]"
p1129
I2000
sS"148897800['guard']"
p1130
I1000
sS"283115520['guard']"
p1131
I8000
sS"249561088['attack', (15, 7)]"
p1132
I-1000
sS"174063616['guard']"
p1133
I-1000
sS"115343488['attack', (14, 2)]"
p1134
I-1000
sS"173015072['move', (6, 5)]"
p1135
I1000
sS"249561092['move', (15, 7)]"
p1136
I1000
sS"75497472['move', (7, 2)]"
p1137
I6000
sS"416284708['move', (14, 12)]"
p1138
I-1000
sS"549453848['move', (12, 17)]"
p1139
I-1000
sS"441450496['move', (6, 13)]"
p1140
I1000
sS"352321536['attack', (15, 10)]"
p1141
I-1000
sS"517996545['attack', (14, 16)]"
p1142
I-1000
sS"249561092['attack', (14, 6)]"
p1143
I0
sS"111149060['move', (10, 4)]"
p1144
I-1000
sS"341835784['move', (6, 11)]"
p1145
I1000
sS"249561234['attack', (14, 8)]"
p1146
I5000
sS"76546112['attack', (9, 1)]"
p1147
I0
sS"482345152['move', (12, 15)]"
p1148
I-1000
sS"384827432['move', (14, 11)]"
p1149
I1000
sS"348127376['attack', (13, 10)]"
p1150
I1000
sS"179306520['move', (11, 6)]"
p1151
I-1000
sS"283115528['move', (14, 9)]"
p1152
I1000
sS"547356673['move', (11, 16)]"
p1153
I1000
sS"547356673['attack', (11, 16)]"
p1154
I0
sS"316669968['move', (14, 10)]"
p1155
I-1000
sS"472907776['move', (3, 13)]"
p1156
I2000
sS"108003328['move', (6, 3)]"
p1157
I4000
sS"251658305['move', (16, 8)]"
p1158
I-1000
sS"382730260['move', (12, 11)]"
p1159
I1000
sS"347078656['move', (11, 9)]"
p1160
I1000
sS"248512640['move', (13, 8)]"
p1161
I0
sS"417333252['move', (14, 11)]"
p1162
I-1000
sS"516947970['attack', (13, 14)]"
p1163
I0
sS"580911104['move', (11, 17)]"
p1164
I-1000
sS"383778848['move', (13, 11)]"
p1165
I-1000
sS"475004932['attack', (5, 15)]"
p1166
I-1000
sS"452984832['move', (17, 13)]"
p1167
I-1000
sS"548405248['move', (10, 16)]"
p1168
I-1000
sS"310378496['move', (8, 10)]"
p1169
I-1000
sS"416284696['attack', (13, 13)]"
p1170
I-1000
sS"184549440['move', (15, 5)]"
p1171
I1000
sS"452984832['guard']"
p1172
I-1000
sS"284164162['attack', (16, 8)]"
p1173
I-1000
sS"248512544['attack', (14, 7)]"
p1174
I11000
sS"251658240['attack', (16, 6)]"
p1175
I-1000
sS"103809026['move', (3, 4)]"
p1176
I-1000
sS"116391936['move', (15, 4)]"
p1177
I2000
sS"515899456['attack', (13, 15)]"
p1178
I1000
sS"450887688['attack', (13, 13)]"
p1179
I0
sS"205520896['move', (5, 6)]"
p1180
I1000
sS"304087040['attack', (3, 9)]"
p1181
I17000
sS"146800642['attack', (13, 4)]"
p1182
I0
sS"380633152['guard']"
p1183
I1000
sS"177209346['attack', (8, 5)]"
p1184
I-1000
sS"175112200['move', (8, 5)]"
p1185
I1000
sS"447742016['attack', (11, 14)]"
p1186
I-1000
sS"519045120['attack', (14, 15)]"
p1187
I-1000
sS"371195936['attack', (3, 11)]"
p1188
I1000
sS"449839136['move', (13, 12)]"
p1189
I2000
sS"282067011['move', (14, 8)]"
p1190
I-1000
sS"114294784['move', (12, 3)]"
p1191
I0
sS"384827520['attack', (16, 11)]"
p1192
I0
sS"285212800['guard']"
p1193
I-1000
sS"404750400['move', (1, 12)]"
p1194
I-1000
sS"281018374['guard']"
p1195
I1000
sS"249561216['move', (14, 6)]"
p1196
I3000
sS"449839104['move', (14, 13)]"
p1197
I2000
sS"515899392['attack', (11, 15)]"
p1198
I9000
sS"249561096['attack', (14, 8)]"
p1199
I1000
sS"113246304['attack', (13, 3)]"
p1200
I1000
sS"235929600['attack', (1, 8)]"
p1201
I6000
sS"507510784['attack', (5, 15)]"
p1202
I0
sS"379584514['move', (10, 10)]"
p1203
I-1000
sS"580911120['attack', (10, 18)]"
p1204
I4000
sS"442499072['attack', (7, 13)]"
p1205
I9000
sS"138412036['move', (3, 4)]"
p1206
I1000
sS"450887810['attack', (15, 13)]"
p1207
I1000
sS"112197636['move', (10, 3)]"
p1208
I1000
sS"148897796['attack', (14, 5)]"
p1209
I-1000
sS"385876004['move', (15, 11)]"
p1210
I-1000
sS"247463936['move', (12, 8)]"
p1211
I-1000
sS"549453826['attack', (12, 15)]"
p1212
I-1000
sS"283115584['attack', (14, 9)]"
p1213
I4000
sS"314572801['attack', (13, 9)]"
p1214
I1000
sS"349175816['attack', (14, 10)]"
p1215
I-1000
sS"41943040['attack', (8, 2)]"
p1216
I-1000
sS"269484032['move', (2, 8)]"
p1217
I1000
sS"169869312['move', (1, 5)]"
p1218
I-1000
sS"352321696['attack', (16, 11)]"
p1219
I0
sS"206569472['guard']"
p1220
I0
sS"416284816['move', (12, 12)]"
p1221
I1000
sS"411041792['attack', (8, 11)]"
p1222
I-1000
sS"352321680['attack', (15, 10)]"
p1223
I1000
sS"105906176['guard']"
p1224
I-1000
sS"182452224['move', (14, 6)]"
p1225
I2000
sS"384827392['move', (14, 11)]"
p1226
I-1000
sS"315621424['attack', (13, 10)]"
p1227
I-1000
sS"42991616['attack', (10, 1)]"
p1228
I-1000
sS"549453954['guard']"
p1229
I1000
sS"149946432['move', (16, 4)]"
p1230
I-1000
sS"304087042['attack', (1, 9)]"
p1231
I1000
sS"450887696['move', (14, 14)]"
p1232
I2000
sS"216006664['guard']"
p1233
I1000
sS"441450504['move', (5, 14)]"
p1234
I2000
sS"248512514['attack', (12, 7)]"
p1235
I-1000
sS"248512528['move', (14, 7)]"
p1236
I0
sS"80740356['move', (13, 3)]"
p1237
I-1000
sS"145752160['attack', (12, 4)]"
p1238
I1000
sS"351273040['attack', (16, 10)]"
p1239
I2000
sS"519045128['move', (15, 16)]"
p1240
I-1000
sS"173015040['move', (6, 5)]"
p1241
I-1000
sS"116391944['attack', (14, 3)]"
p1242
I-1000
sS"303038466['guard']"
p1243
I-1000
sS"472907776['attack', (3, 13)]"
p1244
I-1000
sS"105906176['attack', (5, 2)]"
p1245
I-1000
sS"303038464['attack', (2, 9)]"
p1246
I2000
sS"78643296['attack', (11, 3)]"
p1247
I1000
sS"547356672['move', (11, 16)]"
p1248
I0
sS"339738656['move', (4, 11)]"
p1249
I1000
sS"485490688['move', (16, 14)]"
p1250
I-1000
sS"75497680['attack', (7, 2)]"
p1251
I1000
sS"114294792['move', (13, 4)]"
p1252
I1000
sS"510656512['attack', (7, 14)]"
p1253
I-1000
sS"349175812['attack', (13, 9)]"
p1254
I-1000
sS"144703492['attack', (10, 3)]"
p1255
I-1000
sS"511705216['move', (7, 15)]"
p1256
I0
sS"476053504['move', (7, 14)]"
p1257
I1000
sS"383778944['attack', (14, 12)]"
p1258
I1000
sS"211812352['attack', (10, 5)]"
p1259
I3000
sS"319815680['attack', (17, 10)]"
p1260
I1000
sS"477102082['attack', (6, 14)]"
p1261
I2000
sS"179306512['guard']"
p1262
I3000
sS"149946368['move', (16, 4)]"
p1263
I-1000
sS"109051904['attack', (8, 4)]"
p1264
I-1000
sS"383778816['move', (15, 11)]"
p1265
I2000
sS"481296576['attack', (11, 15)]"
p1266
I1000
sS"216006660['attack', (14, 5)]"
p1267
I-1000
sS"176160840['move', (8, 6)]"
p1268
I-1000
sS"183500904['move', (15, 4)]"
p1269
I1000
sS"41943104['attack', (7, 1)]"
p1270
I2000
sS"385875968['move', (17, 11)]"
p1271
I3000
sS"145752064['move', (11, 5)]"
p1272
I-1000
sS"149946384['move', (15, 3)]"
p1273
I-1000
sS"549453832['attack', (11, 16)]"
p1274
I-1000
sS"181403652['guard']"
p1275
I-1000
sS"181403648['move', (13, 4)]"
p1276
I0
sS"182452260['move', (13, 5)]"
p1277
I1000
sS"578814096['move', (9, 17)]"
p1278
I1000
sS"507510784['attack', (3, 15)]"
p1279
I-1000
sS"236978178['attack', (2, 6)]"
p1280
I0
sS"451936320['move', (16, 13)]"
p1281
I-1000
sS"173015088['move', (6, 5)]"
p1282
I1000
sS"451936272['move', (16, 13)]"
p1283
I-1000
sS"148897792['attack', (13, 4)]"
p1284
I-1000
sS"579862529['move', (9, 18)]"
p1285
I0
sS"42991616['attack', (9, 0)]"
p1286
I-1000
sS"108003456['attack', (6, 3)]"
p1287
I-1000
sS"439353408['move', (4, 13)]"
p1288
I3000
sS"483393568['attack', (13, 13)]"
p1289
I0
sS"548405280['attack', (10, 16)]"
p1290
I5000
sS"318767136['attack', (17, 9)]"
p1291
I-1000
sS"580911104['move', (10, 18)]"
p1292
I-1000
sS"249561088['attack', (13, 7)]"
p1293
I0
sS"114294820['attack', (13, 2)]"
p1294
I1000
sS"444596226['move', (8, 12)]"
p1295
I-1000
sS"318767104['attack', (16, 10)]"
p1296
I-1000
sS"519045128['attack', (15, 14)]"
p1297
I0
sS"251658249['move', (17, 7)]"
p1298
I1000
sS"386924544['attack', (18, 11)]"
p1299
I-2000
sS"72351808['move', (4, 2)]"
p1300
I-1000
sS"483393544['attack', (13, 15)]"
p1301
I0
sS"176160769['attack', (9, 5)]"
p1302
I-1000
sS"169869316['guard']"
p1303
I0
sS"386924560['attack', (17, 12)]"
p1304
I-1000
sS"379584512['attack', (11, 11)]"
p1305
I0
sS"577765378['move', (6, 17)]"
p1306
I-1000
sS"212860928['move', (11, 5)]"
p1307
I-1000
sS"249561248['attack', (13, 7)]"
p1308
I2000
sS"385875972['move', (15, 11)]"
p1309
I0
sS"217055304['move', (16, 6)]"
p1310
I-1000
sS"336592896['move', (0, 10)]"
p1311
I-1000
sS"578813960['guard']"
p1312
I2000
sS"76546056['attack', (9, 3)]"
p1313
I0
sS"106954756['attack', (6, 2)]"
p1314
I0
sS"248512608['move', (13, 8)]"
p1315
I2000
sS"80740352['attack', (12, 2)]"
p1316
I-1000
sS"352321664['move', (15, 10)]"
p1317
I0
sS"548405256['attack', (12, 16)]"
p1318
I-1000
sS"216006658['move', (13, 6)]"
p1319
I0
sS"77594785['attack', (11, 2)]"
p1320
I-1000
sS"580911104['guard']"
p1321
I-2000
sS"506462208['move', (3, 14)]"
p1322
I2000
sS"184549384['move', (16, 6)]"
p1323
I1000
sS"79691790['move', (12, 1)]"
p1324
I-1000
sS"113246340['guard']"
p1325
I0
sS"173015104['move', (4, 5)]"
p1326
I-1000
sS"283115544['move', (14, 9)]"
p1327
I-1000
sS"210763776['move', (9, 7)]"
p1328
I0
sS"580911112['move', (10, 18)]"
p1329
I-1000
sS"270532608['attack', (3, 8)]"
p1330
I0
sS"106954768['move', (6, 4)]"
p1331
I0
sS"483393536['move', (13, 15)]"
p1332
I3000
sS"548405378['guard']"
p1333
I1000
sS"352321536['move', (16, 11)]"
p1334
I2000
sS"148897864['attack', (14, 3)]"
p1335
I-1000
sS"283115552['move', (13, 8)]"
p1336
I0
sS"244318208['move', (9, 6)]"
p1337
I2000
sS"544210944['attack', (8, 16)]"
p1338
I-2000
sS"282066946['guard']"
p1339
I2000
sS"72351746['guard']"
p1340
I-1000
sS"148897856['move', (14, 5)]"
p1341
I2000
sS"80740352['move', (13, 1)]"
p1342
I-1000
sS"315621412['attack', (13, 8)]"
p1343
I1000
sS"418381828['move', (15, 11)]"
p1344
I-1000
sS"114294788['guard']"
p1345
I-1000
sS"550502416['move', (14, 16)]"
p1346
I1000
sS"304087048['attack', (3, 9)]"
p1347
I1000
sS"183500806['attack', (16, 5)]"
p1348
I-1000
sS"384827396['move', (15, 10)]"
p1349
I-1000
sS"78643200['guard']"
p1350
I3000
sS"439353352['move', (2, 13)]"
p1351
I1000
sS"105906176['attack', (4, 3)]"
p1352
I0
sS"42991618['move', (9, 2)]"
p1353
I1000
sS"41943048['move', (8, 2)]"
p1354
I2000
sS"475004992['move', (5, 15)]"
p1355
I0
sS"404750336['attack', (3, 12)]"
p1356
I0
sS"544210958['move', (7, 15)]"
p1357
I-1000
sS"480247816['move', (10, 15)]"
p1358
I1000
sS"449839112['move', (13, 14)]"
p1359
I1000
sS"449839170['move', (14, 13)]"
p1360
I-1000
sS"274726912['guard']"
p1361
I7000
sS"78643264['move', (10, 2)]"
p1362
I1000
sS"282066960['attack', (13, 9)]"
p1363
I13000
sS"385875968['guard']"
p1364
I0
sS"111149056['move', (10, 2)]"
p1365
I4000
sS"183500864['guard']"
p1366
I1000
sS"513802304['guard']"
p1367
I4000
sS"514850816['move', (11, 14)]"
p1368
I2000
sS"252706948['move', (16, 7)]"
p1369
I-1000
sS"440401936['move', (3, 13)]"
p1370
I0
sS"371195904['move', (1, 11)]"
p1371
I1000
sS"545259522['move', (8, 15)]"
p1372
I-1000
sS"284164128['move', (14, 8)]"
p1373
I-1000
sS"476053508['attack', (6, 13)]"
p1374
I-1000
sS"344981504['attack', (9, 11)]"
p1375
I4000
sS"112197635['attack', (12, 3)]"
p1376
I-1000
sS"143654912['move', (10, 4)]"
p1377
I1000
sS"251658245['move', (17, 7)]"
p1378
I-1000
sS"515899400['move', (12, 14)]"
p1379
I1000
sS"441450528['guard']"
p1380
I-1000
sS"41943040['attack', (7, 1)]"
p1381
I-1000
sS"284164096['move', (15, 7)]"
p1382
I5000
sS"337641472['attack', (2, 11)]"
p1383
I-1000
sS"383778818['attack', (13, 11)]"
p1384
I-1000
sS"285212704['attack', (16, 9)]"
p1385
I1000
sS"482344968['attack', (12, 13)]"
p1386
I1000
sS"112197672['attack', (10, 3)]"
p1387
I1000
sS"75497488['guard']"
p1388
I0
sS"239075456['move', (3, 7)]"
p1389
I1000
sS"182452288['attack', (15, 5)]"
p1390
I1000
sS"404750369['attack', (2, 13)]"
p1391
I1000
sS"547356736['attack', (9, 16)]"
p1392
I3000
sS"249561218['attack', (15, 7)]"
p1393
I-1000
sS"110100608['move', (10, 3)]"
p1394
I-1000
sS"111149184['move', (11, 3)]"
p1395
I1000
sS"282066948['attack', (14, 8)]"
p1396
I2000
sS"184549376['move', (16, 4)]"
p1397
I-1000
sS"141557761['attack', (7, 5)]"
p1398
I2000
sS"544210944['move', (7, 17)]"
p1399
I-1000
sS"104857728['attack', (3, 3)]"
p1400
I1000
sS"415236098['attack', (12, 11)]"
p1401
I-1000
sS"44040194['attack', (9, 1)]"
p1402
I1000
sS"550502528['move', (12, 16)]"
p1403
I-1000
sS"75497490['attack', (7, 2)]"
p1404
I1000
sS"251658240['move', (15, 7)]"
p1405
I3000
sS"283115529['attack', (15, 8)]"
p1406
I1000
sS"338690064['attack', (4, 10)]"
p1407
I0
sS"79691778['attack', (11, 2)]"
p1408
I-1000
sS"318767104['attack', (17, 9)]"
p1409
I0
sS"479199360['attack', (9, 15)]"
p1410
I1000
sS"42991616['attack', (8, 1)]"
p1411
I-1000
sS"483393538['attack', (14, 14)]"
p1412
I1000
sS"507510784['attack', (4, 16)]"
p1413
I-1000
sS"472907777['attack', (3, 13)]"
p1414
I1000
sS"416284672['guard']"
p1415
I-1000
sS"137363456['move', (3, 3)]"
p1416
I1000
sS"213909537['guard']"
p1417
I-1000
sS"544211056['move', (7, 15)]"
p1418
I1000
sS"75497474['attack', (7, 2)]"
p1419
I-1000
sS"514850853['move', (11, 14)]"
p1420
I-1000
sS"519045120['guard']"
p1421
I-2000
sS"204472320['attack', (4, 6)]"
p1422
I-2000
sS"75497492['attack', (9, 2)]"
p1423
I1000
sS"477102080['attack', (7, 15)]"
p1424
I6000
sS"182452230['guard']"
p1425
I-1000
sS"75497474['move', (9, 2)]"
p1426
I1000
sS"577765408['attack', (7, 18)]"
p1427
I0
sS"183500808['attack', (14, 5)]"
p1428
I1000
sS"217055240['guard']"
p1429
I1000
sS"545259536['move', (8, 17)]"
p1430
I1000
sS"475004932['guard']"
p1431
I-1000
sS"285212800['move', (17, 8)]"
p1432
I1000
sS"548405378['move', (11, 17)]"
p1433
I-1000
sS"406847616['attack', (3, 12)]"
p1434
I-1000
sS"548405248['guard']"
p1435
I-1000
sS"384827392['attack', (14, 11)]"
p1436
I-1000
sS"543162368['move', (6, 15)]"
p1437
I-1000
sS"248512548['guard']"
p1438
I1000
sS"478150680['move', (9, 14)]"
p1439
I-1000
sS"248512706['attack', (14, 7)]"
p1440
I1000
sS"108003394['attack', (7, 4)]"
p1441
I1000
sS"283115624['move', (14, 7)]"
p1442
I1000
sS"106954760['attack', (6, 4)]"
p1443
I-1000
sS"169869312['attack', (1, 5)]"
p1444
I-1000
sS"548405344['move', (11, 17)]"
p1445
I0
sS"305135688['move', (4, 9)]"
p1446
I1000
sS"511705090['attack', (9, 15)]"
p1447
I2000
sS"513802272['move', (10, 14)]"
p1448
I-1000
sS"549453953['move', (12, 17)]"
p1449
I1000
sS"304087056['move', (2, 10)]"
p1450
I-1000
sS"546308160['attack', (10, 16)]"
p1451
I0
sS"478150688['move', (7, 14)]"
p1452
I1000
sS"137363458['move', (4, 4)]"
p1453
I1000
sS"216006656['guard']"
p1454
I6000
sS"317718538['attack', (14, 9)]"
p1455
I1000
sS"271581184['move', (2, 8)]"
p1456
I-1000
sS"247463936['move', (13, 7)]"
p1457
I-1000
sS"451936288['move', (14, 13)]"
p1458
I-1000
sS"413138944['attack', (11, 12)]"
p1459
I-1000
sS"577765409['attack', (6, 17)]"
p1460
I-1000
sS"579862531['move', (8, 17)]"
p1461
I-1000
sS"250609664['move', (14, 7)]"
p1462
I1000
sS"337641496['attack', (1, 10)]"
p1463
I1000
sS"514850821['guard']"
p1464
I-1000
sS"250609696['attack', (16, 7)]"
p1465
I2000
sS"510656544['move', (8, 15)]"
p1466
I-1000
sS"214958080['guard']"
p1467
I-2000
sS"304087104['move', (3, 9)]"
p1468
I2000
sS"441450500['guard']"
p1469
I-1000
sS"285212800['attack', (16, 9)]"
p1470
I-1000
sS"273678344['guard']"
p1471
I1000
sS"545259536['move', (7, 16)]"
p1472
I-1000
sS"217055364['attack', (15, 5)]"
p1473
I-1000
sS"218103936['move', (15, 6)]"
p1474
I0
sS"284164208['attack', (15, 7)]"
p1475
I1000
sS"543162498['guard']"
p1476
I1000
sS"179306496['attack', (10, 5)]"
p1477
I0
sS"406847492['attack', (4, 11)]"
p1478
I-1000
sS"249561089['move', (14, 8)]"
p1479
I1000
sS"116391936['move', (15, 2)]"
p1480
I-1000
sS"106954755['move', (6, 4)]"
p1481
I-1000
sS"548405330['move', (11, 15)]"
p1482
I1000
sS"438304768['move', (3, 13)]"
p1483
I-1000
sS"73400320['guard']"
p1484
I-1000
sS"448790534['move', (11, 13)]"
p1485
I-1000
sS"516948000['guard']"
p1486
I-1000
sS"452984832['attack', (15, 13)]"
p1487
I1000
sS"203423746['guard']"
p1488
I0
sS"313524224['attack', (10, 9)]"
p1489
I-1000
sS"146800641['move', (11, 4)]"
p1490
I-1000
sS"216006720['move', (14, 7)]"
p1491
I10000
sS"452984832['attack', (16, 14)]"
p1492
I-1000
sS"278921216['attack', (10, 7)]"
p1493
I3000
sS"542113792['attack', (6, 16)]"
p1494
I-1000
sS"79691778['move', (11, 2)]"
p1495
I-1000
sS"381681664['move', (12, 12)]"
p1496
I1000
sS"546308256['attack', (10, 16)]"
p1497
I-1000
sS"174063744['guard']"
p1498
I0
sS"180355074['move', (12, 6)]"
p1499
I1000
sS"351272968['attack', (15, 11)]"
p1500
I1000
sS"173015080['attack', (6, 5)]"
p1501
I-1000
sS"76546180['attack', (9, 3)]"
p1502
I1000
sS"303038528['attack', (2, 9)]"
p1503
I-1000
sS"113246336['move', (12, 4)]"
p1504
I1000
sS"544210944['attack', (7, 17)]"
p1505
I-1000
sS"270532608['guard']"
p1506
I-1000
sS"316669953['attack', (14, 8)]"
p1507
I-1000
sS"74448896['move', (8, 2)]"
p1508
I0
sS"517996552['attack', (14, 16)]"
p1509
I2000
sS"77594656['attack', (10, 1)]"
p1510
I-1000
sS"269484048['move', (0, 8)]"
p1511
I2000
sS"114294802['attack', (13, 2)]"
p1512
I-1000
sS"40894464['attack', (7, 2)]"
p1513
I0
sS"286261248['move', (17, 7)]"
p1514
I-1000
sS"286261376['move', (17, 9)]"
p1515
I1000
sS"40894466['attack', (6, 1)]"
p1516
I2000
sS"182452238['attack', (14, 4)]"
p1517
I1000
sS"407896080['attack', (4, 12)]"
p1518
I1000
sS"44040192['attack', (10, 0)]"
p1519
I-1000
sS"578813960['attack', (8, 16)]"
p1520
I-1000
sS"375390208['move', (5, 11)]"
p1521
I-1000
sS"106954764['move', (6, 2)]"
p1522
I1000
sS"315621376['attack', (13, 8)]"
p1523
I-1000
sS"581959680['attack', (11, 16)]"
p1524
I0
sS"316670048['move', (15, 9)]"
p1525
I-1000
sS"336592912['guard']"
p1526
I-2000
sS"139460610['move', (4, 4)]"
p1527
I0
sS"204472320['guard']"
p1528
I-2000
sS"316669956['move', (15, 9)]"
p1529
I-1000
sS"485490816['move', (16, 14)]"
p1530
I1000
sS"108003340['move', (7, 2)]"
p1531
I1000
sS"148897920['move', (13, 4)]"
p1532
I1000
sS"216006660['move', (15, 6)]"
p1533
I-1000
sS"80740352['attack', (13, 3)]"
p1534
I-1000
sS"510656545['guard']"
p1535
I1000
sS"419430404['move', (17, 12)]"
p1536
I0
sS"549453833['attack', (13, 16)]"
p1537
I-1000
sS"147849220['move', (13, 3)]"
p1538
I1000
sS"516947988['move', (12, 15)]"
p1539
I1000
sS"544210944['move', (8, 16)]"
p1540
I-1000
sS"40894528['attack', (7, 2)]"
p1541
I1000
sS"519045248['move', (15, 14)]"
p1542
I1000
sS"149946384['attack', (15, 5)]"
p1543
I-1000
sS"383778816['attack', (13, 11)]"
p1544
I0
sS"171966464['attack', (4, 4)]"
p1545
I-1000
sS"110100496['move', (9, 2)]"
p1546
I0
sS"510656544['guard']"
p1547
I0
sS"547356848['attack', (10, 15)]"
p1548
I1000
sS"385875976['attack', (16, 12)]"
p1549
I-1000
sS"519045120['attack', (16, 15)]"
p1550
I-1000
sS"442499076['move', (6, 14)]"
p1551
I-1000
sS"438304769['move', (1, 13)]"
p1552
I-1000
sS"74448898['attack', (8, 2)]"
p1553
I1000
sS"203423750['move', (1, 6)]"
p1554
I-1000
sS"108003328['move', (7, 4)]"
p1555
I-1000
sS"439353520['attack', (4, 13)]"
p1556
I1000
sS"506462208['attack', (2, 15)]"
p1557
I0
sS"370147328['move', (1, 10)]"
p1558
I2000
sS"284164100['move', (16, 8)]"
p1559
I-1000
sS"249561218['move', (13, 7)]"
p1560
I-1000
sS"386924560['move', (17, 12)]"
p1561
I-1000
sS"385875976['move', (16, 12)]"
p1562
I-1000
sS"250609668['guard']"
p1563
I0
sS"183500872['attack', (16, 5)]"
p1564
I-1000
sS"370147329['move', (1, 12)]"
p1565
I-1000
sS"74448912['move', (7, 1)]"
p1566
I0
sS"472907778['move', (4, 14)]"
p1567
I1000
sS"416284672['attack', (13, 13)]"
p1568
I0
sS"371195910['move', (1, 11)]"
p1569
I1000
sS"480247841['move', (10, 13)]"
p1570
I-1000
sS"249561088['guard']"
p1571
I1000
sS"485490692['attack', (15, 15)]"
p1572
I1000
sS"106954760['attack', (6, 2)]"
p1573
I1000
sS"174063744['move', (7, 5)]"
p1574
I1000
sS"75497472['attack', (9, 2)]"
p1575
I0
sS"580911105['attack', (10, 16)]"
p1576
I1000
sS"511705152['guard']"
p1577
I1000
sS"116391936['move', (14, 3)]"
p1578
I-1000
sS"452984832['attack', (16, 12)]"
p1579
I-1000
sS"413138946['move', (11, 12)]"
p1580
I-1000
sS"111149120['move', (9, 3)]"
p1581
I-1000
sS"105906304['guard']"
p1582
I-1000
sS"286261312['move', (16, 8)]"
p1583
I-1000
sS"580911104['attack', (9, 17)]"
p1584
I-1000
sS"485490688['move', (15, 15)]"
p1585
I-1000
sS"549453824['attack', (11, 16)]"
p1586
I7000
sS"212860928['attack', (11, 5)]"
p1587
I-1000
sS"511705088['attack', (8, 14)]"
p1588
I18000
sS"377487360['move', (8, 10)]"
p1589
I2000
sS"145752104['attack', (12, 4)]"
p1590
I-1000
sS"375390208['attack', (5, 11)]"
p1591
I0
sS"578814080['attack', (8, 16)]"
p1592
I-1000
sS"506462209['move', (3, 16)]"
p1593
I0
sS"544210944['attack', (6, 16)]"
p1594
I-1000
sS"578814082['attack', (7, 17)]"
p1595
I-1000
sS"283115521['move', (14, 9)]"
p1596
I0
sS"382730240['move', (13, 10)]"
p1597
I-1000
sS"273678336['move', (6, 8)]"
p1598
I2000
sS"438304784['move', (3, 13)]"
p1599
I-1000
sS"75497476['attack', (7, 2)]"
p1600
I1000
sS"405798912['move', (3, 13)]"
p1601
I1000
sS"245366800['attack', (10, 8)]"
p1602
I0
sS"351272961['attack', (14, 10)]"
p1603
I-1000
sS"217055296['attack', (15, 7)]"
p1604
I0
sS"115343392['guard']"
p1605
I2000
sS"176160769['guard']"
p1606
I0
sS"110100482['attack', (9, 2)]"
p1607
I2000
sS"112197644['attack', (10, 3)]"
p1608
I-1000
sS"105906224['move', (5, 4)]"
p1609
I-1000
sS"484442240['move', (15, 14)]"
p1610
I-1000
sS"210763776['guard']"
p1611
I-1000
sS"441450628['move', (5, 14)]"
p1612
I1000
sS"448790536['move', (13, 13)]"
p1613
I1000
sS"76546048['move', (9, 3)]"
p1614
I5000
sS"411041792['guard']"
p1615
I-1000
sS"40894468['move', (8, 1)]"
p1616
I1000
sS"452984840['guard']"
p1617
I-1000
sS"348127297['attack', (13, 10)]"
p1618
I1000
sS"241172480['attack', (5, 7)]"
p1619
I0
sS"40894528['attack', (7, 0)]"
p1620
I-1000
sS"351272962['move', (15, 11)]"
p1621
I-1000
sS"385876160['move', (17, 11)]"
p1622
I1000
sS"276824064['attack', (8, 9)]"
p1623
I0
sS"440401968['guard']"
p1624
I2000
sS"216006672['move', (14, 7)]"
p1625
I1000
sS"386924552['guard']"
p1626
I2000
sS"353370240['attack', (17, 11)]"
p1627
I0
sS"519045120['move', (15, 14)]"
p1628
I-1000
sS"182452230['move', (13, 5)]"
p1629
I-1000
sS"548405376['guard']"
p1630
I0
sS"145752068['move', (12, 4)]"
p1631
I-1000
sS"214958082['guard']"
p1632
I0
sS"109051936['move', (7, 3)]"
p1633
I1000
sS"578813960['attack', (7, 17)]"
p1634
I-1000
sS"517996688['move', (15, 15)]"
p1635
I-2000
sS"482344976['move', (11, 14)]"
p1636
I1000
sS"516947984['move', (14, 15)]"
p1637
I-1000
sS"104857728['attack', (5, 3)]"
p1638
I-1000
sS"373293184['attack', (3, 11)]"
p1639
I-1000
sS"115343488['attack', (15, 3)]"
p1640
I0
sS"449839137['move', (13, 14)]"
p1641
I-1000
sS"76546057['move', (9, 3)]"
p1642
I2000
sS"340787216['attack', (6, 10)]"
p1643
I0
sS"137363460['move', (3, 3)]"
p1644
I1000
sS"441450562['attack', (5, 12)]"
p1645
I-1000
sS"336592898['attack', (1, 11)]"
p1646
I5000
sS"208666624['attack', (7, 7)]"
p1647
I0
sS"547356800['attack', (9, 16)]"
p1648
I0
sS"282066944['move', (13, 7)]"
p1649
I-1000
sS"80740416['attack', (13, 1)]"
p1650
I-1000
sS"110100484['attack', (8, 3)]"
p1651
I1000
sS"318767112['guard']"
p1652
I1000
sS"214958144['attack', (14, 6)]"
p1653
I0
sS"352321539['move', (15, 10)]"
p1654
I-1000
sS"384827408['attack', (15, 12)]"
p1655
I4000
sS"106954762['attack', (7, 3)]"
p1656
I1000
sS"416284674['move', (13, 13)]"
p1657
I1000
sS"519045121['attack', (15, 14)]"
p1658
I-1000
sS"214958080['move', (13, 5)]"
p1659
I2000
sS"515899412['move', (12, 16)]"
p1660
I-1000
sS"547356752['move', (9, 16)]"
p1661
I1000
sS"353370112['attack', (18, 10)]"
p1662
I-1000
sS"40894464['attack', (6, 1)]"
p1663
I-1000
sS"176160769['move', (8, 6)]"
p1664
I-1000
sS"140509204['move', (6, 5)]"
p1665
I1000
sS"246415362['attack', (12, 7)]"
p1666
I1000
sS"149946376['attack', (15, 3)]"
p1667
I-1000
sS"106954885['attack', (6, 4)]"
p1668
I-1000
sS"209715216['move', (9, 6)]"
p1669
I-1000
sS"579862528['move', (8, 17)]"
p1670
I0
sS"73400320['attack', (7, 2)]"
p1671
I-2000
sS"516947968['guard']"
p1672
I0
sS"171966472['guard']"
p1673
I0
sS"407896192['attack', (4, 12)]"
p1674
I-1000
sS"286261312['move', (18, 8)]"
p1675
I-1000
sS"416284672['attack', (14, 12)]"
p1676
I-1000
sS"244318224['attack', (9, 8)]"
p1677
I-1000
sS"544210945['attack', (8, 16)]"
p1678
I0
sS"149946376['move', (15, 3)]"
p1679
I1000
sS"513802248['attack', (11, 15)]"
p1680
I-1000
sS"343932930['move', (9, 10)]"
p1681
I1000
sS"249561152['attack', (14, 8)]"
p1682
I-1000
sS"270532608['move', (1, 8)]"
p1683
I-1000
sS"148897793['move', (14, 3)]"
p1684
I-2000
sS"286261252['move', (17, 9)]"
p1685
I-1000
sS"579862529['move', (10, 17)]"
p1686
I-1000
sS"246415368['guard']"
p1687
I1000
sS"146800704['attack', (12, 3)]"
p1688
I2000
sS"179306528['attack', (11, 6)]"
p1689
I0
sS"178257938['move', (9, 5)]"
p1690
I1000
sS"284164097['attack', (15, 7)]"
p1691
I-1000
sS"251658241['attack', (17, 7)]"
p1692
I1000
sS"203423744['attack', (1, 6)]"
p1693
I5000
sS"248512514['attack', (14, 7)]"
p1694
I-1000
sS"384827416['attack', (15, 12)]"
p1695
I-1000
sS"581959681['attack', (10, 17)]"
p1696
I0
sS"112197808['attack', (12, 3)]"
p1697
I1000
sS"406847488['attack', (3, 12)]"
p1698
I5000
sS"179306496['guard']"
p1699
I10000
sS"112197664['attack', (11, 2)]"
p1700
I1000
sS"451936256['move', (14, 13)]"
p1701
I7000
sS"174063616['attack', (6, 6)]"
p1702
I4000
sS"140509249['attack', (6, 3)]"
p1703
I-1000
sS"579862528['attack', (9, 18)]"
p1704
I4000
sS"317718528['attack', (15, 10)]"
p1705
I-1000
sS"319815872['move', (17, 8)]"
p1706
I-1000
sS"44040192['move', (9, 1)]"
p1707
I-1000
sS"549453824['move', (12, 17)]"
p1708
I-1000
sS"450887680['move', (15, 13)]"
p1709
I0
sS"251658272['attack', (16, 6)]"
p1710
I-1000
sS"249561098['guard']"
p1711
I-1000
sS"104857602['move', (4, 2)]"
p1712
I-1000
sS"108003472['attack', (8, 3)]"
p1713
I-1000
sS"381681688['move', (12, 10)]"
p1714
I1000
sS"371195920['move', (3, 11)]"
p1715
I1000
sS"216006688['move', (14, 7)]"
p1716
I0
sS"514850888['guard']"
p1717
I1000
sS"545259552['move', (8, 15)]"
p1718
I0
sS"373293060['move', (5, 11)]"
p1719
I1000
sS"283115664['move', (15, 8)]"
p1720
I1000
sS"404750368['attack', (2, 13)]"
p1721
I-1000
sS"379584516['attack', (11, 11)]"
p1722
I1000
sS"183500804['attack', (15, 6)]"
p1723
I-1000
sS"204472320['move', (2, 6)]"
p1724
I-2000
sS"178257921['attack', (10, 4)]"
p1725
I1000
sS"252706816['move', (17, 8)]"
p1726
I1000
sS"449839108['attack', (14, 13)]"
p1727
I1000
sS"483393728['attack', (14, 14)]"
p1728
I1000
sS"546308225['move', (10, 16)]"
p1729
I1000
sS"548405258['guard']"
p1730
I1000
sS"485490689['move', (15, 13)]"
p1731
I-1000
sS"40894470['move', (6, 1)]"
p1732
I-1000
sS"272629760['attack', (4, 9)]"
p1733
I0
sS"110100496['attack', (10, 3)]"
p1734
I1000
sS"548405253['move', (10, 16)]"
p1735
I-1000
sS"104857600['attack', (4, 4)]"
p1736
I4000
sS"283115616['move', (14, 9)]"
p1737
I0
sS"484442112['move', (14, 15)]"
p1738
I-2000
sS"340787264['attack', (6, 10)]"
p1739
I2000
sS"577765378['guard']"
p1740
I1000
sS"184549388['attack', (15, 5)]"
p1741
I1000
sS"513802240['attack', (11, 15)]"
p1742
I-1000
sS"316669952['guard']"
p1743
I-1000
sS"450887744['attack', (13, 13)]"
p1744
I6000
sS"338690176['attack', (3, 11)]"
p1745
I-1000
sS"579862568['attack', (8, 17)]"
p1746
I-1000
sS"417333264['move', (13, 12)]"
p1747
I2000
sS"251658256['attack', (17, 7)]"
p1748
I0
sS"480247844['move', (10, 15)]"
p1749
I-1000
sS"515899584['move', (12, 14)]"
p1750
I1000
sS"75497472['move', (8, 1)]"
p1751
I-1000
sS"173015042['attack', (5, 4)]"
p1752
I-1000
sS"115343362['move', (15, 3)]"
p1753
I1000
sS"182452225['move', (14, 6)]"
p1754
I-1000
sS"145752064['attack', (11, 3)]"
p1755
I-1000
sS"174063648['attack', (5, 5)]"
p1756
I3000
sS"510656515['attack', (7, 16)]"
p1757
I-1000
sS"511705096['attack', (8, 16)]"
p1758
I1000
sS"145752096['move', (11, 3)]"
p1759
I-1000
sS"250609808['move', (15, 8)]"
p1760
I0
sS"517996576['move', (14, 14)]"
p1761
I-1000
sS"140509196['move', (6, 3)]"
p1762
I-1000
sS"349175812['guard']"
p1763
I-1000
sS"110100498['guard']"
p1764
I1000
sS"304087044['move', (1, 9)]"
p1765
I1000
sS"241172482['move', (6, 6)]"
p1766
I1000
sS"450887684['attack', (15, 13)]"
p1767
I-1000
sS"484442240['attack', (13, 14)]"
p1768
I-2000
sS"80740352['move', (12, 2)]"
p1769
I-1000
sS"74448928['move', (7, 1)]"
p1770
I1000
sS"250609680['move', (14, 7)]"
p1771
I-1000
sS"283115576['move', (14, 7)]"
p1772
I1000
sS"76546048['attack', (9, 1)]"
p1773
I0
sS"276824064['attack', (9, 8)]"
p1774
I-2000
sS"41943040['move', (8, 2)]"
p1775
I-2000
sS"142606464['move', (7, 4)]"
p1776
I0
sS"146800672['attack', (11, 4)]"
p1777
I0
sS"141557760['attack', (7, 3)]"
p1778
I-1000
sS"145752064['attack', (10, 4)]"
p1779
I4000
sS"511705170['move', (9, 15)]"
p1780
I-1000
sS"184549376['guard']"
p1781
I0
sS"405798944['guard']"
p1782
I-1000
sS"371195904['move', (2, 12)]"
p1783
I0
sS"549453824['move', (12, 15)]"
p1784
I-1000
sS"517996552['move', (13, 15)]"
p1785
I0
sS"477102080['attack', (7, 13)]"
p1786
I-2000
sS"373293056['attack', (4, 10)]"
p1787
I0
sS"182452226['move', (14, 4)]"
p1788
I-1000
sS"384827536['attack', (15, 12)]"
p1789
I-1000
sS"206569472['move', (6, 6)]"
p1790
I0
sS"405798916['attack', (2, 12)]"
p1791
I2000
sS"252706816['attack', (17, 6)]"
p1792
I0
sS"241172544['attack', (6, 8)]"
p1793
I-1000
sS"175112192['attack', (7, 4)]"
p1794
I-1000
sS"450887684['move', (15, 13)]"
p1795
I-1000
sS"440402048['move', (3, 13)]"
p1796
I-1000
sS"450887713['attack', (14, 12)]"
p1797
I1000
sS"77594689['move', (10, 3)]"
p1798
I-1000
sS"218103824['attack', (17, 6)]"
p1799
I0
sS"385875984['attack', (16, 10)]"
p1800
I2000
sS"144703504['move', (10, 3)]"
p1801
I-1000
sS"440401924['move', (4, 12)]"
p1802
I1000
sS"484442112['guard']"
p1803
I-1000
sS"516947968['move', (12, 15)]"
p1804
I0
sS"174063634['move', (5, 5)]"
p1805
I1000
sS"511705218['move', (8, 14)]"
p1806
I1000
sS"548405249['guard']"
p1807
I0
sS"210763792['move', (9, 5)]"
p1808
I2000
sS"510656576['move', (6, 15)]"
p1809
I1000
sS"149946372['attack', (15, 3)]"
p1810
I-1000
sS"542113792['attack', (5, 17)]"
p1811
I-1000
sS"373293056['attack', (5, 11)]"
p1812
I2000
sS"338690048['move', (4, 10)]"
p1813
I-1000
sS"353370113['move', (16, 10)]"
p1814
I-1000
sS"313524224['guard']"
p1815
I-1000
sS"438304800['move', (1, 13)]"
p1816
I1000
sS"217055236['move', (15, 7)]"
p1817
I1000
sS"246415360['attack', (12, 7)]"
p1818
I0
sS"285212680['attack', (16, 9)]"
p1819
I-1000
sS"546308096['attack', (8, 16)]"
p1820
I0
sS"109051904['attack', (8, 2)]"
p1821
I0
sS"550502528['attack', (13, 15)]"
p1822
I1000
sS"251658240['guard']"
p1823
I-1000
sS"249561220['attack', (13, 7)]"
p1824
I1000
sS"477102084['move', (6, 14)]"
p1825
I1000
sS"380633088['guard']"
p1826
I0
sS"108003336['guard']"
p1827
I-1000
sS"183500896['attack', (14, 5)]"
p1828
I1000
sS"250609664['attack', (15, 6)]"
p1829
I-1000
sS"183500992['move', (16, 5)]"
p1830
I1000
sS"143654917['attack', (10, 4)]"
p1831
I1000
sS"251658368['move', (16, 8)]"
p1832
I2000
sS"478150720['attack', (8, 15)]"
p1833
I-1000
sS"384827464['attack', (14, 11)]"
p1834
I-1000
sS"146800648['attack', (12, 5)]"
p1835
I-1000
sS"405798976['move', (3, 13)]"
p1836
I1000
sS"140509251['attack', (7, 4)]"
p1837
I1000
sS"577765377['move', (8, 17)]"
p1838
I1000
sS"103809056['move', (4, 3)]"
p1839
I1000
sS"180355088['move', (13, 5)]"
p1840
I2000
sS"542113792['move', (6, 16)]"
p1841
I0
sS"337641488['attack', (3, 10)]"
p1842
I1000
sS"210763904['move', (10, 6)]"
p1843
I1000
sS"472907824['guard']"
p1844
I1000
sS"577765408['move', (6, 17)]"
p1845
I-1000
sS"483393666['attack', (13, 13)]"
p1846
I1000
sS"175112320['move', (7, 4)]"
p1847
I2000
sS"548405250['guard']"
p1848
I1000
sS"353370176['attack', (17, 9)]"
p1849
I-1000
sS"76546112['move', (10, 2)]"
p1850
I1000
sS"179306496['move', (12, 5)]"
p1851
I-1000
sS"483393696['attack', (13, 13)]"
p1852
I-1000
sS"451936258['attack', (15, 12)]"
p1853
I0
sS"508559364['move', (5, 14)]"
p1854
I-1000
sS"550502401['attack', (13, 15)]"
p1855
I-1000
sS"182452256['move', (14, 6)]"
p1856
I1000
sS"180355104['attack', (13, 5)]"
p1857
I-1000
sS"112197776['move', (10, 3)]"
p1858
I1000
sS"449839106['attack', (13, 12)]"
p1859
I-2000
sS"383778824['attack', (14, 10)]"
p1860
I1000
sS"283115522['move', (13, 8)]"
p1861
I1000
sS"472907792['move', (4, 14)]"
p1862
I1000
sS"440402048['guard']"
p1863
I-1000
sS"115343492['guard']"
p1864
I1000
sS"475004932['move', (5, 13)]"
p1865
I-1000
sS"109051906['attack', (9, 3)]"
p1866
I1000
sS"519045120['move', (16, 15)]"
p1867
I-1000
sS"547356712['move', (10, 17)]"
p1868
I-1000
sS"112197632['move', (11, 4)]"
p1869
I0
sS"217055360['move', (15, 7)]"
p1870
I5000
sS"317718528['attack', (16, 9)]"
p1871
I-1000
sS"484442244['move', (14, 13)]"
p1872
I1000
sS"73400384['attack', (7, 2)]"
p1873
I-1000
sS"248512672['guard']"
p1874
I2000
sS"177209344['attack', (9, 6)]"
p1875
I-1000
sS"310378496['move', (8, 8)]"
p1876
I2000
sS"251658240['attack', (15, 7)]"
p1877
I0
sS"384827392['move', (16, 11)]"
p1878
I-1000
sS"216006736['move', (14, 7)]"
p1879
I0
sS"446693376['move', (10, 12)]"
p1880
I0
sS"250609680['move', (15, 6)]"
p1881
I-1000
sS"547356672['guard']"
p1882
I0
sS"105906177['move', (6, 3)]"
p1883
I-1000
sS"484442130['move', (14, 13)]"
p1884
I1000
sS"45088896['attack', (11, 0)]"
p1885
I-1000
sS"169869312['move', (2, 4)]"
p1886
I4000
sS"336592896['guard']"
p1887
I0
sS"175112200['move', (6, 5)]"
p1888
I-1000
sS"183500960['attack', (15, 4)]"
p1889
I1000
sS"249561219['guard']"
p1890
I1000
sS"485490688['move', (15, 13)]"
p1891
I2000
sS"147849226['move', (12, 4)]"
p1892
I-1000
sS"479199232['guard']"
p1893
I-1000
sS"148897824['attack', (14, 3)]"
p1894
I-1000
sS"109051936['attack', (8, 4)]"
p1895
I-1000
sS"384827440['attack', (15, 10)]"
p1896
I1000
sS"438304769['move', (3, 13)]"
p1897
I-1000
sS"218103808['move', (15, 6)]"
p1898
I-1000
sS"303038528['attack', (1, 8)]"
p1899
I-1000
sS"415236128['guard']"
p1900
I2000
sS"510656513['attack', (7, 16)]"
p1901
I-1000
sS"386924545['attack', (16, 11)]"
p1902
I-1000
sS"385876128['move', (15, 11)]"
p1903
I1000
sS"169869312['attack', (3, 5)]"
p1904
I-1000
sS"207618064['move', (6, 5)]"
p1905
I-1000
sS"547356704['guard']"
p1906
I2000
sS"547356676['move', (10, 17)]"
p1907
I-2000
sS"284164101['move', (15, 9)]"
p1908
I1000
sS"178257968['attack', (10, 4)]"
p1909
I1000
sS"418381904['attack', (15, 11)]"
p1910
I-1000
sS"145752066['attack', (11, 5)]"
p1911
I-1000
sS"319815696['guard']"
p1912
I0
sS"372244484['move', (3, 12)]"
p1913
I-1000
sS"546308098['move', (8, 16)]"
p1914
I2000
sS"204472324['attack', (2, 6)]"
p1915
I-1000
sS"147849216['move', (12, 4)]"
p1916
I1000
sS"182452244['move', (13, 5)]"
p1917
I1000
sS"381681668['guard']"
p1918
I-1000
sS"508559366['move', (5, 14)]"
p1919
I1000
sS"249561112['move', (14, 6)]"
p1920
I2000
sS"212860944['attack', (11, 5)]"
p1921
I-1000
sS"275775496['move', (7, 9)]"
p1922
I-1000
sS"409993216['move', (8, 12)]"
p1923
I0
sS"41943040['guard']"
p1924
I-1000
sS"351273056['move', (16, 10)]"
p1925
I-1000
sS"414187524['move', (11, 11)]"
p1926
I-1000
sS"41943040['attack', (8, 0)]"
p1927
I-2000
sS"577765424['move', (6, 17)]"
p1928
I1000
sS"44040192['move', (10, 0)]"
p1929
I-1000
sS"419430416['attack', (17, 12)]"
p1930
I1000
sS"475004964['attack', (5, 13)]"
p1931
I-1000
sS"306184192['attack', (3, 9)]"
p1932
I1000
sS"384827425['move', (15, 12)]"
p1933
I1000
sS"304087048['attack', (2, 10)]"
p1934
I0
sS"106954758['guard']"
p1935
I-1000
sS"382730240['attack', (12, 11)]"
p1936
I0
sS"248512577['move', (14, 7)]"
p1937
I0
sS"438304769['guard']"
p1938
I-1000
sS"250609672['attack', (15, 6)]"
p1939
I2000
sS"145752192['move', (11, 5)]"
p1940
I1000
sS"549453840['move', (11, 16)]"
p1941
I1000
sS"353370240['move', (16, 10)]"
p1942
I1000
sS"578813954['attack', (7, 17)]"
p1943
I0
sS"282066944['attack', (13, 7)]"
p1944
I5000
sS"414187536['move', (10, 12)]"
p1945
I1000
sS"336592898['move', (0, 10)]"
p1946
I-1000
sS"304087072['attack', (1, 9)]"
p1947
I1000
sS"517996544['move', (14, 16)]"
p1948
I7000
sS"249561106['move', (13, 7)]"
p1949
I2000
sS"319815680['move', (18, 9)]"
p1950
I-1000
sS"246415360['move', (11, 6)]"
p1951
I4000
sS"285212704['attack', (17, 8)]"
p1952
I-1000
sS"204472330['move', (2, 6)]"
p1953
I-1000
sS"316669952['attack', (15, 9)]"
p1954
I0
sS"139460736['move', (5, 3)]"
p1955
I1000
sS"284164160['move', (14, 8)]"
p1956
I1000
sS"114294785['attack', (13, 2)]"
p1957
I-1000
sS"114294792['move', (12, 3)]"
p1958
I-1000
sS"483393536['move', (14, 14)]"
p1959
I-1000
sS"109051905['move', (8, 4)]"
p1960
I-1000
sS"481296400['move', (12, 14)]"
p1961
I-1000
sS"384827392['attack', (15, 12)]"
p1962
I2000
sS"472907782['move', (3, 13)]"
p1963
I-1000
sS"145752192['move', (11, 3)]"
p1964
I-1000
sS"448790592['attack', (11, 13)]"
p1965
I1000
sS"351273064['guard']"
p1966
I-1000
sS"546308096['attack', (9, 17)]"
p1967
I0
sS"545259520['move', (8, 17)]"
p1968
I2000
sS"105906208['attack', (6, 3)]"
p1969
I-1000
sS"109051904['move', (7, 3)]"
p1970
I0
sS"238026752['attack', (3, 8)]"
p1971
I4000
sS"113246273['attack', (11, 3)]"
p1972
I1000
sS"286261248['move', (16, 8)]"
p1973
I6000
sS"382730240['attack', (14, 11)]"
p1974
I0
sS"317718600['move', (16, 9)]"
p1975
I1000
sS"581959808['move', (10, 17)]"
p1976
I-1000
sS"485490752['move', (15, 13)]"
p1977
I0
sS"44040192['attack', (9, 1)]"
p1978
I0
sS"439353352['attack', (4, 13)]"
p1979
I0
sS"145752064['move', (12, 4)]"
p1980
I-1000
sS"439353353['attack', (3, 14)]"
p1981
I-1000
sS"269484032['move', (0, 8)]"
p1982
I-1000
sS"353370176['move', (18, 10)]"
p1983
I-1000
sS"106954880['move', (6, 4)]"
p1984
I-1000
sS"316669968['guard']"
p1985
I0
sS"74448897['attack', (7, 1)]"
p1986
I3000
sS"438304769['move', (2, 14)]"
p1987
I-1000
sS"149946500['attack', (14, 4)]"
p1988
I-1000
sS"74448896['move', (6, 2)]"
p1989
I1000
sS"249561104['move', (13, 7)]"
p1990
I2000
sS"404750336['move', (3, 12)]"
p1991
I-1000
sS"319815680['attack', (17, 8)]"
p1992
I-1000
sS"238026756['move', (4, 7)]"
p1993
I-1000
sS"242221056['move', (8, 7)]"
p1994
I2000
sS"546308096['move', (9, 17)]"
p1995
I-1000
sS"386924544['guard']"
p1996
I-2000
sS"42991652['attack', (9, 2)]"
p1997
I1000
sS"341835777['attack', (7, 10)]"
p1998
I-1000
sS"209715200['guard']"
p1999
I-1000
sS"285212704['attack', (15, 8)]"
p2000
I-1000
sS"218103952['move', (17, 6)]"
p2001
I1000
sS"170917888['attack', (4, 5)]"
p2002
I-2000
sS"511705096['move', (7, 15)]"
p2003
I-1000
sS"305135682['attack', (3, 8)]"
p2004
I-1000
sS"217055234['attack', (15, 7)]"
p2005
I0
sS"78643330['move', (11, 1)]"
p2006
I-1000
sS"281018368['move', (12, 7)]"
p2007
I4000
sS"182452416['move', (15, 5)]"
p2008
I1000
sS"440401920['attack', (5, 13)]"
p2009
I6000
sS"250609728['move', (14, 7)]"
p2010
I1000
sS"315621392['attack', (12, 9)]"
p2011
I-1000
sS"507510793['move', (4, 16)]"
p2012
I1000
sS"578813953['move', (9, 17)]"
p2013
I-1000
sS"183500928['move', (15, 4)]"
p2014
I0
sS"449839104['guard']"
p2015
I-1000
sS"103809026['move', (4, 3)]"
p2016
I-1000
sS"109051936['guard']"
p2017
I-1000
sS"140509248['attack', (6, 5)]"
p2018
I3000
sS"547356674['guard']"
p2019
I1000
sS"270532608['move', (2, 9)]"
p2020
I0
sS"450887682['move', (15, 13)]"
p2021
I0
sS"351273024['attack', (16, 10)]"
p2022
I0
sS"506462210['attack', (3, 16)]"
p2023
I1000
sS"477102080['attack', (8, 14)]"
p2024
I-1000
sS"108003456['attack', (7, 4)]"
p2025
I0
sS"274726928['move', (6, 7)]"
p2026
I-1000
sS"140509184['move', (6, 5)]"
p2027
I2000
sS"140509216['move', (5, 4)]"
p2028
I1000
sS"42991616['move', (8, 1)]"
p2029
I0
sS"144703520['attack', (9, 4)]"
p2030
I2000
sS"350224384['move', (14, 9)]"
p2031
I-1000
sS"251658256['move', (16, 8)]"
p2032
I-1000
sS"104857600['attack', (5, 3)]"
p2033
I0
sS"241172480['attack', (6, 6)]"
p2034
I0
sS"74448920['move', (7, 1)]"
p2035
I1000
sS"73400384['move', (6, 3)]"
p2036
I-1000
sS"313524224['move', (11, 10)]"
p2037
I-1000
sS"371195904['attack', (3, 11)]"
p2038
I-2000
sS"281018368['attack', (12, 9)]"
p2039
I-1000
sS"305135624['guard']"
p2040
I-1000
sS"144703552['attack', (10, 3)]"
p2041
I3000
sS"248512594['attack', (12, 7)]"
p2042
I1000
sS"545259594['attack', (8, 17)]"
p2043
I-1000
s.