(dp0
S"44040194['attack', (10, 2)]"
p1
F6.278767802012405e+170
sS"438304784['guard']"
p2
F1.4161591495856457e+176
sS"353370116['guard']"
p3
I-10
sS"175112192['move', (8, 5)]"
p4
F1210.0
sS"308281348['move', (6, 8)]"
p5
F1.8500205946676695e+43
sS"580911232['move', (10, 18)]"
p6
F-12.1
sS"475004933['guard']"
p7
I1000
sS"578813952['guard']"
p8
F-51.0
sS"149946497['guard']"
p9
F2.7675958354863836e+16
sS"484442160['move', (14, 15)]"
p10
I-10
sS"580911233['move', (11, 17)]"
p11
F1.6689579621154756e+120
sS"542113795['guard']"
p12
I-10
sS"307232788['move', (5, 10)]"
p13
F4.8819067959321987e+86
sS"319815680['attack', (17, 8)]"
p14
F-1464.1
sS"419430408['guard']"
p15
F3.2536948026795895e+163
sS"213909504['move', (13, 6)]"
p16
F1.495202906838975e+57
sS"1620049928['move', (9, 17)]"
p17
I-1000
sS"548405248['attack', (11, 17)]"
p18
F2.6322635557119006e+169
sS"484442112['attack', (14, 15)]"
p19
F9.434828029707095e+174
sS"80740352['attack', (13, 3)]"
p20
F1.6828777955767303e+184
sS"579862544['attack', (9, 16)]"
p21
I-10
sS"1414529025['guard']"
p22
F2.3556276073186993e+69
sS"484442144['guard']"
p23
F-1100.0
sS"452984833['guard']"
p24
I-20
sS"269484064['attack', (2, 8)]"
p25
I-1000
sS"544210944['move', (8, 16)]"
p26
F3.4574685299566688e+168
sS"146800640['attack', (12, 5)]"
p27
F2.835246546793787e+124
sS"149946369['attack', (15, 3)]"
p28
F2.0317492426287242e+169
sS"1391460416['move', (14, 9)]"
p29
I1000
sS"77594628['attack', (10, 1)]"
p30
I1000
sS"319815808['move', (17, 8)]"
p31
F3.2971493619852285e+162
sS"148897800['attack', (14, 3)]"
p32
F1464.1
sS"214958081['move', (13, 5)]"
p33
F1610.51
sS"374341633['move', (5, 12)]"
p34
F1.666066966507689e+127
sS"104857608['attack', (4, 2)]"
p35
F5.384603393455453e+165
sS"546308096['move', (9, 15)]"
p36
F4.5811752116709656e+171
sS"303038528['guard']"
p37
F-21.0
sS"175112192['move', (6, 5)]"
p38
I-1000
sS"137363472['move', (2, 4)]"
p39
F5.124781384400789e+161
sS"41943072['guard']"
p40
F2.4486822818488772e+162
sS"342884480['move', (7, 11)]"
p41
F1534.6
sS"353370113['attack', (18, 10)]"
p42
F3.2956758657558584e+163
sS"1457520648['attack', (14, 10)]"
p43
F6.812019453642887e+33
sS"1184891008['move', (9, 3)]"
p44
I1000
sS"319815681['attack', (16, 9)]"
p45
F1.1751234896726943e+174
sS"41943168['move', (7, 1)]"
p46
F-33.1
sS"477102146['attack', (7, 15)]"
p47
F7.202108159945067e+36
sS"1581252632['guard']"
p48
I-10
sS"479199236['move', (10, 14)]"
p49
F1.134651625368151e+155
sS"581959688['move', (10, 17)]"
p50
F1.4295024493777167e+120
sS"217055232['move', (16, 6)]"
p51
I-10
sS"276824064['move', (7, 8)]"
p52
F4181.521599956588
sS"73400448['move', (7, 2)]"
p53
F1.2281373260651756e+135
sS"407896096['attack', (5, 13)]"
p54
F6.765441438538508e+155
sS"473956358['move', (3, 14)]"
p55
F1.5649801991118193e+176
sS"544211076['move', (7, 15)]"
p56
F-900.0
sS"519045120['attack', (15, 16)]"
p57
F7.091499919217047e+183
sS"483393632['move', (14, 14)]"
p58
F7.131987172598398e+171
sS"548405264['attack', (11, 15)]"
p59
F9.296111120863298e+160
sS"543162376['guard']"
p60
I-20
sS"143654928['guard']"
p61
F3.401168514018589e+166
sS"352321536['attack', (16, 11)]"
p62
F3.4694191795580924e+179
sS"1279262720['attack', (4, 7)]"
p63
I-1000
sS"284164100['move', (16, 8)]"
p64
F5.864473177629613e+24
sS"519045121['guard']"
p65
F1.3766584477071643e+176
sS"173015168['attack', (5, 4)]"
p66
I-1000
sS"108003328['attack', (7, 2)]"
p67
F8.875748038143351e+136
sS"581959704['guard']"
p68
I-20
sS"509607944['move', (7, 15)]"
p69
F4.950477892442922e+161
sS"106954880['move', (6, 2)]"
p70
F2.692695213506864e+33
sS"404750400['attack', (2, 11)]"
p71
F4.763918226425786e+176
sS"41943050['guard']"
p72
F4.824401367210044e+154
sS"384827392['guard']"
p73
F-1100.0
sS"1516240896['move', (7, 13)]"
p74
F7.89066549299281e+99
sS"204472386['move', (3, 7)]"
p75
F1.6361039450800324e+73
sS"286261376['guard']"
p76
F3.5305278283926764e+138
sS"578814080['attack', (7, 17)]"
p77
I-10
sS"1623195659['guard']"
p78
I-10
sS"270532609['move', (1, 8)]"
p79
F4.2916405733617324e+64
sS"41943040['guard']"
p80
F2.2952068030750627e+175
sS"236978208['move', (1, 7)]"
p81
F1.659992645681727e+94
sS"40894464['attack', (8, 1)]"
p82
F5.991342131589079e+181
sS"303038468['guard']"
p83
I-50
sS"216006656['attack', (14, 5)]"
p84
F1.5734559883557502e+119
sS"319815744['guard']"
p85
F-32.0
sS"171966512['attack', (5, 5)]"
p86
I-1000
sS"73400328['attack', (6, 1)]"
p87
F-21.0
sS"279969792['guard']"
p88
I1000
sS"138412035['guard']"
p89
F5.171217522042276e+49
sS"445644800['guard']"
p90
F1.0410375912823374e+96
sS"511705090['move', (8, 16)]"
p91
F8.20395206473323e+140
sS"1287651330['attack', (12, 5)]"
p92
I-1000
sS"353370240['attack', (17, 11)]"
p93
F1.6337110998753223e+155
sS"507510784['move', (4, 16)]"
p94
F1.6237384808931805e+180
sS"109051968['attack', (8, 2)]"
p95
I1000
sS"1353711616['attack', (10, 8)]"
p96
I-1000
sS"480247812['attack', (9, 14)]"
p97
F3.0879657449556767e+155
sS"78643232['move', (11, 1)]"
p98
F7.476412110818271e+117
sS"309329920['attack', (6, 9)]"
p99
F6.14090307951034e+37
sS"452984832['attack', (16, 12)]"
p100
F1.4240027825505733e+183
sS"443547648['move', (7, 12)]"
p101
F-900.0
sS"286261248['move', (17, 7)]"
p102
F1.26084796427599e+181
sS"116391944['attack', (15, 4)]"
p103
F1.425585355381385e+172
sS"270532608['attack', (2, 7)]"
p104
I-1000
sS"475004928['move', (5, 15)]"
p105
F6.798469625442011e+167
sS"286261392['guard']"
p106
I-10
sS"580911120['guard']"
p107
F-21.0
sS"506462240['move', (2, 15)]"
p108
F1.799989935045641e+167
sS"545259544['attack', (8, 17)]"
p109
I1000
sS"218103872['guard']"
p110
F1.6514512199529736e+175
sS"214958080['attack', (14, 6)]"
p111
F47596676.94371779
sS"41943042['attack', (7, 1)]"
p112
F5.225968393349158e+170
sS"177209344['move', (9, 6)]"
p113
I1000
sS"307232776['attack', (4, 9)]"
p114
F8.217916584588043e+203
sS"1616904192['attack', (7, 16)]"
p115
I-10
sS"1213202464['attack', (4, 4)]"
p116
I1000
sS"517996576['attack', (15, 15)]"
p117
F-11.0
sS"76546052['attack', (8, 2)]"
p118
I-1000
sS"452984960['guard']"
p119
I-10
sS"549453826['guard']"
p120
I-30
sS"385876096['move', (17, 11)]"
p121
F1.0581759526809724e+43
sS"516948040['move', (13, 14)]"
p122
F7.406116699655454e+98
sS"341835776['move', (7, 10)]"
p123
I2000
sS"286261256['guard']"
p124
F4.914989402673715e+159
sS"441450496['attack', (6, 13)]"
p125
F-1100.0
sS"1414529024['move', (6, 10)]"
p126
I-1000
sS"171966464['move', (4, 4)]"
p127
F-890.0
sS"252706944['attack', (17, 8)]"
p128
I-10
sS"517996674['guard']"
p129
I-10
sS"412090368['attack', (10, 12)]"
p130
F9849.73267580761
sS"44040224['move', (10, 2)]"
p131
I-1000
sS"1585446944['attack', (7, 15)]"
p132
F1.935427377696962e+62
sS"380633120['attack', (11, 10)]"
p133
F1.552301404965031e+22
sS"506462209['move', (4, 15)]"
p134
F2.4095202431426412e+154
sS"285212720['attack', (15, 8)]"
p135
F3.720828828152796e+137
sS"1512046593['guard']"
p136
I-10
sS"404750340['attack', (2, 13)]"
p137
F6.139956133365952e+176
sS"517996554['guard']"
p138
I-10
sS"238026816['attack', (3, 6)]"
p139
F6.312040942816519e+28
sS"1550843905['move', (7, 15)]"
p140
I1000
sS"236978178['attack', (3, 7)]"
p141
F7.12137557135018e+93
sS"352321544['move', (16, 9)]"
p142
F1.2709930817560895e+29
sS"203423762['guard']"
p143
I-20
sS"519045128['move', (14, 15)]"
p144
I-10
sS"1256194057['attack', (15, 5)]"
p145
F1246490.0423417152
sS"450887680['attack', (14, 14)]"
p146
F3.6296291730389535e+156
sS"1623195658['move', (12, 15)]"
p147
F4.327412995263445e+80
sS"1512046593['attack', (3, 13)]"
p148
I-10
sS"212861056['move', (12, 6)]"
p149
F1.631828394352246e+17
sS"547356674['attack', (10, 15)]"
p150
I-1000
sS"353370240['guard']"
p151
I-30
sS"484442240['move', (13, 14)]"
p152
F6.915478582853839e+176
sS"240123904['attack', (5, 8)]"
p153
F2.8114357842540054e+169
sS"352321537['attack', (16, 9)]"
p154
F6.626178036041252e+151
sS"103809056['attack', (2, 3)]"
p155
I-10
sS"336592961['guard']"
p156
I-20
sS"272629764['move', (4, 7)]"
p157
I1000
sS"1389363200['attack', (14, 9)]"
p158
F1.8509146228850451e+46
sS"208666752['attack', (8, 6)]"
p159
I-1000
sS"74448896['guard']"
p160
F-1030.5782958529144
sS"507510787['guard']"
p161
I-10
sS"76546048['move', (9, 3)]"
p162
F5.048254274949327e+102
sS"542113793['attack', (6, 16)]"
p163
F-11.0
sS"411041792['guard']"
p164
F1.0586374279221984e+72
sS"73400448['attack', (6, 3)]"
p165
F-12.0
sS"579862544['guard']"
p166
F3.8224516566014924e+178
sS"452984840['guard']"
p167
I-20
sS"452984840['attack', (17, 13)]"
p168
I-10
sS"352321538['attack', (15, 10)]"
p169
F1.5509977655048331e+165
sS"419430480['guard']"
p170
F-16.2
sS"580911120['move', (9, 17)]"
p171
F7.104625550062907e+101
sS"285212672['guard']"
p172
F3.365934516408306e+181
sS"1213202432['move', (5, 5)]"
p173
F1.5364716557942858e+36
sS"1312817170['guard']"
p174
I1000
sS"79691776['move', (13, 2)]"
p175
F1.0216534541615605e+182
sS"507510800['move', (4, 16)]"
p176
F5.3852945974912384e+163
sS"319815681['guard']"
p177
F-11.0
sS"103809026['move', (4, 3)]"
p178
I-20
sS"105906209['attack', (5, 4)]"
p179
F2.3535916530623e+29
sS"1277165568['attack', (1, 6)]"
p180
F2458.693549717731
sS"218103832['guard']"
p181
I-10
sS"45088768['attack', (12, 1)]"
p182
F6.418256419764889e+176
sS"580911264['guard']"
p183
F4.5503606026946896e+79
sS"169869376['attack', (2, 6)]"
p184
F1.376489057760107e+177
sS"447741952['guard']"
p185
F3.1812326636283203e+90
sS"515899400['attack', (11, 15)]"
p186
F3.270201009807945e+154
sS"476053504['attack', (6, 15)]"
p187
F6.362487671207021e+167
sS"578813960['attack', (7, 17)]"
p188
I-1000
sS"269484033['guard']"
p189
F1.4108991643347118e+164
sS"472907778['guard']"
p190
F3.5575064255940483e+173
sS"419430532['guard']"
p191
I-20
sS"44040322['attack', (9, 1)]"
p192
F5.591667736081159e+156
sS"446693412['attack', (11, 13)]"
p193
I1000
sS"386924672['guard']"
p194
I-10
sS"480247808['guard']"
p195
F3.2594046582017145e+156
sS"103809024['attack', (2, 3)]"
p196
F1.6158732980238166e+179
sS"1615855616['attack', (5, 17)]"
p197
F2.434254343046889e+127
sS"1390411778['attack', (14, 8)]"
p198
I1000
sS"1479540738['attack', (3, 13)]"
p199
F1.337345807205176e+33
sS"249561088['move', (14, 6)]"
p200
F4.634449166235653e+77
sS"484442128['attack', (13, 14)]"
p201
F8.172939825721049e+171
sS"405798914['guard']"
p202
I1000
sS"336592900['guard']"
p203
I-20
sS"209715200['attack', (8, 5)]"
p204
F2.2065014470438986e+127
sS"507510787['move', (4, 14)]"
p205
F2.856680505087805e+172
sS"517996545['guard']"
p206
F7.990437523530991e+172
sS"1215299616['move', (7, 3)]"
p207
I1000
sS"483393538['move', (12, 14)]"
p208
F5.512211233453051e+119
sS"1223688192['attack', (15, 5)]"
p209
I-20
sS"1526726664['move', (16, 14)]"
p210
F1.3915710117421627e+55
sS"269484036['guard']"
p211
F1.568453117265867e+166
sS"174063616['guard']"
p212
F4.0566806801961564e+23
sS"579862529['attack', (10, 17)]"
p213
F3.5743662222948725e+103
sS"350224384['attack', (15, 10)]"
p214
F1.2707198303319747e+175
sS"1654652928['attack', (10, 18)]"
p215
I-10
sS"269484112['guard']"
p216
F1.9502604365705608e+97
sS"115343362['attack', (14, 4)]"
p217
F5.790283566203767e+171
sS"507510914['move', (3, 15)]"
p218
I-10
sS"238026898['move', (3, 6)]"
p219
F3.344591354894773e+43
sS"238026768['guard']"
p220
F1.8773901117465415e+76
sS"103809056['move', (3, 4)]"
p221
F5.845073031122307e+162
sS"316669984['move', (14, 10)]"
p222
I1000
sS"251658304['move', (15, 7)]"
p223
F1.0627303181933356e+125
sS"238026784['guard']"
p224
F1.5238122501105423e+126
sS"452984960['attack', (17, 13)]"
p225
F1.2045280868396151e+95
sS"353370116['attack', (17, 11)]"
p226
I-10
sS"507510832['attack', (4, 14)]"
p227
I-10
sS"517996546['guard']"
p228
F6.398816115931764e+113
sS"306184194['move', (4, 10)]"
p229
F2.6666500689022965e+157
sS"519045248['move', (15, 16)]"
p230
I-10
sS"1283457152['move', (7, 6)]"
p231
F1108.7889676408017
sS"241172480['guard']"
p232
F2.2301430778911348e+138
sS"104857608['guard']"
p233
I-10
sS"173015042['attack', (4, 5)]"
p234
F9.375683822894353e+29
sS"580911107['guard']"
p235
I-10
sS"273678400['move', (5, 7)]"
p236
F1.0170649406160422e+118
sS"316669954['move', (14, 8)]"
p237
F-861.06
sS"1581252738['guard']"
p238
I-10
sS"382730240['attack', (13, 12)]"
p239
F6.020151777948718e+140
sS"252706820['guard']"
p240
I-20
sS"405798912['attack', (3, 11)]"
p241
F2.303764766427826e+128
sS"73400328['attack', (6, 3)]"
p242
F-11.0
sS"508559360['attack', (5, 14)]"
p243
F5.295209864688923e+177
sS"371195908['move', (2, 10)]"
p244
I-1000
sS"441450496['attack', (4, 13)]"
p245
F-1200.0
sS"319815744['attack', (16, 9)]"
p246
F7.884102784886254e+163
sS"542113840['guard']"
p247
I-10
sS"1211105296['move', (3, 5)]"
p248
I1000
sS"307232772['attack', (6, 9)]"
p249
I-1000
sS"483393568['move', (14, 14)]"
p250
F1.6462495074726325e+161
sS"1655701528['attack', (10, 17)]"
p251
F6.119036965493717e+124
sS"207618048['move', (5, 6)]"
p252
I-1000
sS"1426063360['attack', (17, 10)]"
p253
I1000
sS"542113793['guard']"
p254
F-11.0
sS"374341636['move', (5, 12)]"
p255
F801917665.8485185
sS"1393557504['attack', (17, 8)]"
p256
I-10
sS"381681792['attack', (11, 11)]"
p257
I1000
sS"449839104['move', (13, 14)]"
p258
F3.2570181941606106e+159
sS"269484096['guard']"
p259
F1.7191181803985091e+162
sS"547356676['move', (10, 15)]"
p260
F1.7858493231754015e+155
sS"542113792['move', (5, 15)]"
p261
F1.5551033026807858e+175
sS"508559362['attack', (4, 15)]"
p262
F1.5991827916436467e+154
sS"203423760['guard']"
p263
I-20
sS"580911104['attack', (11, 17)]"
p264
F3.408313061017403e+179
sS"514850817['attack', (11, 16)]"
p265
I-1000
sS"580911122['attack', (10, 16)]"
p266
I-10
sS"578813953['attack', (9, 17)]"
p267
I-10
sS"44040288['move', (11, 1)]"
p268
F3.1286110848850454e+44
sS"386924545['guard']"
p269
F5.663542530280537e+177
sS"114294912['attack', (12, 3)]"
p270
I-1000
sS"79691904['move', (13, 2)]"
p271
F8.144423376696813e+118
sS"115343360['attack', (14, 4)]"
p272
F-1100.0
sS"44040224['move', (10, 0)]"
p273
F-12.1
sS"306184192['move', (5, 9)]"
p274
F4.3055631638379395e+200
sS"440401920['attack', (3, 13)]"
p275
F9.166775105555484e+101
sS"1391460352['attack', (15, 8)]"
p276
F2.428543329763316e+67
sS"580911106['guard']"
p277
I-1000
sS"507510795['guard']"
p278
I-10
sS"149946368['move', (15, 3)]"
p279
F8.572667893866715e+177
sS"336592960['guard']"
p280
I-30
sS"1549795344['move', (6, 15)]"
p281
F7.525372299265955e+48
sS"417333280['move', (14, 13)]"
p282
F1.1328714522723264e+34
sS"448790594['attack', (11, 13)]"
p283
I1000
sS"80740480['guard']"
p284
F-21.0
sS"511705088['move', (9, 15)]"
p285
F1.130464250141042e+169
sS"1580204032['move', (4, 15)]"
p286
F204.358881
sS"485490752['move', (16, 14)]"
p287
I-10
sS"1651507200['guard']"
p288
F-21.0
sS"184549440['guard']"
p289
F3.3840827137261166e+165
sS"42991624['guard']"
p290
I-20
sS"1580204034['move', (3, 16)]"
p291
F8.069848626813456e+177
sS"269484032['move', (1, 7)]"
p292
F8.090305958731035e+181
sS"515899408['attack', (13, 15)]"
p293
F9.14348940266959e+113
sS"1582301184['move', (5, 16)]"
p294
F1.3335302177886991e+87
sS"251658240['attack', (16, 6)]"
p295
F6.922249961479271e+176
sS"72351744['attack', (4, 2)]"
p296
F5.542507695472188e+181
sS"1289748480['attack', (15, 6)]"
p297
F4.6532141258681135e+117
sS"336592900['move', (1, 9)]"
p298
F1.425883733393887e+187
sS"581959681['attack', (10, 17)]"
p299
F1.5637657036725786e+180
sS"543162369['attack', (6, 17)]"
p300
F1.0526553972421459e+151
sS"1581252618['guard']"
p301
F1.5386117428055838e+134
sS"1427111949['attack', (18, 10)]"
p302
I-10
sS"352321539['attack', (15, 10)]"
p303
I-1000
sS"103809028['guard']"
p304
I-20
sS"105906304['move', (5, 2)]"
p305
I-10
sS"72351776['attack', (5, 3)]"
p306
F1.5109044055503273e+165
sS"513802240['move', (9, 15)]"
p307
F1.6078530213630527e+163
sS"444596224['attack', (9, 13)]"
p308
F4.528557329858391e+143
sS"1212153857['attack', (3, 4)]"
p309
F6.747112372432406e+72
sS"382730242['move', (13, 12)]"
p310
F5.733920676939815e+27
sS"507510912['move', (3, 15)]"
p311
F1.8174868434783928e+139
sS"507510914['move', (4, 14)]"
p312
F8.681445385697965e+165
sS"370147328['attack', (2, 11)]"
p313
F3.7245279736074584e+180
sS"235929632['guard']"
p314
F1.4702734916272743e+182
sS"418381832['attack', (16, 12)]"
p315
I-1000
sS"41943048['guard']"
p316
F-21.0
sS"351272978['move', (14, 10)]"
p317
F3.4126844470482335e+28
sS"216006785['move', (15, 6)]"
p318
I1000
sS"113246240['move', (12, 2)]"
p319
I-1000
sS"78643204['attack', (12, 2)]"
p320
F1.872054696934478e+19
sS"1552941120['guard']"
p321
I1000
sS"116391940['guard']"
p322
I-20
sS"512753664['guard']"
p323
F6.60650984567498e+173
sS"45088832['move', (11, 2)]"
p324
F6.3237741361021185e+162
sS"404750336['guard']"
p325
F1.4710333680439135e+180
sS"282066960['move', (13, 9)]"
p326
I-1000
sS"507510787['move', (4, 16)]"
p327
I-10
sS"452984841['guard']"
p328
I-10
sS"506462224['guard']"
p329
I-1000
sS"353370112['guard']"
p330
F2.030936308433239e+180
sS"1379926048['attack', (3, 9)]"
p331
F1.458916169607676e+60
sS"238026760['attack', (3, 6)]"
p332
I-1000
sS"1549795392['attack', (7, 14)]"
p333
I1000
sS"441450496['move', (5, 14)]"
p334
F1.178817519897704e+134
sS"273678368['guard']"
p335
F5.6164087554483275e+41
sS"42991744['move', (9, 0)]"
p336
I-20
sS"353370112['attack', (17, 9)]"
p337
I-10
sS"449839104['attack', (13, 12)]"
p338
I0
sS"137363457['guard']"
p339
F1.2767894151604698e+142
sS"506462208['attack', (2, 15)]"
p340
F6.982215206779913e+177
sS"352321568['attack', (16, 9)]"
p341
F-1004.0
sS"542113808['guard']"
p342
F4.869335917302433e+164
sS"1213202448['move', (4, 4)]"
p343
I1000
sS"547356681['move', (9, 16)]"
p344
F2.6211886069929845e+69
sS"1178599424['attack', (5, 3)]"
p345
I-10
sS"577765408['guard']"
p346
F-21.0
sS"318767108['attack', (15, 9)]"
p347
I-1000
sS"146800641['move', (12, 5)]"
p348
I1000
sS"103809024['move', (3, 2)]"
p349
F-1464.1
sS"339738625['attack', (4, 9)]"
p350
I-1000
sS"512753792['move', (10, 15)]"
p351
F5.90978943898721e+137
sS"307232896['attack', (4, 9)]"
p352
F1.634370842240566e+201
sS"184549504['guard']"
p353
F1.7740795778079022e+131
sS"507510785['guard']"
p354
F2.737350876738127e+178
sS"581959680['guard']"
p355
F3.4943963390996055e+180
sS"103809030['guard']"
p356
F1.1283696438952886e+150
sS"303038480['attack', (0, 9)]"
p357
I-10
sS"1152385024['attack', (10, 2)]"
p358
F6.827538860029508e+149
sS"580911232['attack', (10, 18)]"
p359
F8.28525423489527e+179
sS"270532616['attack', (2, 7)]"
p360
I-1000
sS"103809120['guard']"
p361
F-21.0
sS"40894496['guard']"
p362
I-10
sS"482345040['attack', (12, 13)]"
p363
F1.103602490843546e+25
sS"74448896['attack', (7, 3)]"
p364
F-1100.0
sS"485490696['guard']"
p365
F3.361516438251764e+175
sS"386924553['guard']"
p366
I-10
sS"303038464['move', (2, 9)]"
p367
F7.292425460971107e+194
sS"105906177['attack', (5, 4)]"
p368
I-1000
sS"1483735040['move', (7, 11)]"
p369
F1.0419528757460121e+97
sS"404750352['move', (3, 12)]"
p370
I-1000
sS"275775488['attack', (7, 7)]"
p371
F62632.69131241983
sS"485490760['guard']"
p372
F-22.0
sS"438304769['guard']"
p373
F4.271537947854175e+162
sS"353370112['move', (18, 10)]"
p374
I-1000
sS"104857604['guard']"
p375
F-11.0
sS"1456472064['move', (14, 11)]"
p376
I-1000
sS"419430464['attack', (16, 13)]"
p377
I-20
sS"45088776['guard']"
p378
F4.0828983409416396e+173
sS"472907808['guard']"
p379
I-10
sS"273678340['move', (5, 9)]"
p380
I-1000
sS"386924560['guard']"
p381
F5.2639279444081876e+150
sS"581959688['attack', (10, 17)]"
p382
I-1000
sS"149946384['attack', (15, 3)]"
p383
I-10
sS"579862528['guard']"
p384
I-1000
sS"250609664['move', (15, 8)]"
p385
I-2000
sS"473956356['guard']"
p386
F8.0098700679186e+174
sS"542113792['attack', (4, 16)]"
p387
F-979.0
sS"548405268['attack', (12, 16)]"
p388
F-1100.0
sS"1258291204['guard']"
p389
I-10
sS"203423808['guard']"
p390
F3.6085375456469195e+169
sS"1619001348['attack', (8, 15)]"
p391
F6.416609620532758e+104
sS"77594640['attack', (10, 3)]"
p392
F8.687944936737184e+152
sS"353370176['guard']"
p393
I-50
sS"418381824['attack', (14, 12)]"
p394
F1.1524130342517662e+129
sS"542113794['guard']"
p395
F8.748445620451237e+141
sS"517996544['move', (14, 14)]"
p396
F7.997124233212121e+173
sS"140509184['move', (6, 3)]"
p397
F4.5049962035521265e+75
sS"450887744['move', (13, 13)]"
p398
F1.0800258453779667e+152
sS"508559364['attack', (5, 14)]"
p399
F7.440145564972479e+166
sS"252706816['move', (18, 7)]"
p400
F2.676737949674373e+182
sS"72351746['attack', (4, 2)]"
p401
F2.4676996638960105e+178
sS"550502408['guard']"
p402
I-10
sS"210763788['attack', (10, 6)]"
p403
F1235.7947691
sS"408944768['move', (6, 11)]"
p404
F2.8692076013226997e+155
sS"149946384['move', (15, 5)]"
p405
F1.0387824127583265e+176
sS"507510832['guard']"
p406
I-10
sS"251658244['attack', (16, 8)]"
p407
F1.5037040878385708e+124
sS"214958096['attack', (12, 6)]"
p408
I-1000
sS"579862568['guard']"
p409
I-10
sS"75497472['move', (8, 1)]"
p410
F7.82444207447005e+169
sS"207618080['attack', (6, 7)]"
p411
F-900.0
sS"438304768['move', (1, 13)]"
p412
F8.692630134550273e+176
sS"80740360['attack', (12, 2)]"
p413
F3.2133881114486084e+154
sS"517996672['guard']"
p414
I-10
sS"218103824['guard']"
p415
F-21.0
sS"113246216['move', (12, 4)]"
p416
I1000
sS"353370128['attack', (16, 10)]"
p417
F1.5214210152313217e+165
sS"1254096896['move', (13, 5)]"
p418
F-1061.14546714
sS"1546649602['move', (2, 14)]"
p419
I-10
sS"579862538['guard']"
p420
I-10
sS"1312817152['move', (4, 8)]"
p421
I-1000
sS"252706820['attack', (17, 6)]"
p422
F4.941090751291385e+166
sS"516947969['move', (13, 16)]"
p423
I-10
sS"353370132['guard']"
p424
F-21.0
sS"1147142152['guard']"
p425
F4.015201937700347e+150
sS"542113795['attack', (5, 15)]"
p426
F-1100.0
sS"174063680['move', (6, 4)]"
p427
I-1000
sS"478150656['attack', (8, 15)]"
p428
F8.530717587222997e+121
sS"73400320['attack', (6, 3)]"
p429
F2.333711460782969e+176
sS"353370113['guard']"
p430
I-20
sS"517996592['attack', (14, 14)]"
p431
I-10
sS"312475648['move', (11, 9)]"
p432
I1000
sS"137363472['guard']"
p433
I-70
sS"1287651328['attack', (13, 6)]"
p434
I1000
sS"270532614['move', (1, 8)]"
p435
F5.938202111539346e+34
sS"550502416['attack', (12, 16)]"
p436
F4.687937111839489e+178
sS"1185939456['move', (11, 2)]"
p437
F259426822938.28076
sS"318767140['guard']"
p438
F1131.8963692309796
sS"507510944['attack', (3, 15)]"
p439
F3.4811719065450314e+157
sS"546308097['guard']"
p440
F3.012429105061602e+96
sS"508559392['move', (5, 16)]"
p441
F1.598974001265701e+151
sS"44040224['guard']"
p442
I-20
sS"408944640['attack', (7, 12)]"
p443
F6.50281879857923e+129
sS"316669952['attack', (14, 10)]"
p444
F6.397286701496186e+98
sS"218103809['guard']"
p445
I-20
sS"73400324['guard']"
p446
F1.0706008625969172e+154
sS"1520435200['attack', (9, 13)]"
p447
F6727.4999493256
sS"580911105['attack', (9, 17)]"
p448
F1.3142116194340862e+131
sS"578813953['guard']"
p449
F1.1392992464488377e+180
sS"517996576['guard']"
p450
I-20
sS"1654652928['guard']"
p451
I-20
sS"449839108['guard']"
p452
F7.045692376514918e+100
sS"483393536['attack', (13, 15)]"
p453
F6.025045503730428e+169
sS"80740416['guard']"
p454
F4.232794765420869e+152
sS"353370117['attack', (17, 9)]"
p455
I-10
sS"446693380['move', (10, 12)]"
p456
F6.72445870212106e+151
sS"235929600['attack', (0, 7)]"
p457
F2.7098495381174275e+183
sS"250609664['guard']"
p458
I-1000
sS"385875969['move', (15, 11)]"
p459
I1000
sS"511705152['move', (8, 14)]"
p460
F1.3774575735794527e+45
sS"1559232576['move', (16, 14)]"
p461
F1094.890757132219
sS"116392000['move', (15, 2)]"
p462
F2.0583414936726833e+178
sS"1558183936['attack', (14, 15)]"
p463
F9.555247032407408e+116
sS"184549376['guard']"
p464
F3.714142311417605e+174
sS"41943168['attack', (8, 0)]"
p465
F2.892098993105489e+97
sS"270532752['attack', (3, 8)]"
p466
I-1000
sS"148897792['move', (15, 4)]"
p467
F8.846717914419006e+176
sS"1115684866['attack', (8, 0)]"
p468
F1610.51
sS"579862546['guard']"
p469
I-10
sS"371195904['move', (2, 12)]"
p470
F1.1320207341795071e+100
sS"373293056['attack', (3, 11)]"
p471
F5.786623992295152e+97
sS"304087040['move', (3, 9)]"
p472
F1.4529685081777228e+196
sS"507510802['move', (3, 15)]"
p473
F1.295914332162896e+154
sS"581959696['move', (10, 17)]"
p474
F2.406987711863765e+164
sS"510656528['attack', (7, 14)]"
p475
F5.217978229957949e+162
sS"473956416['attack', (5, 14)]"
p476
F2.401948325594478e+176
sS"581959688['guard']"
p477
F-11.0
sS"41943042['guard']"
p478
I-10
sS"1189085316['move', (14, 4)]"
p479
I-1000
sS"1190133772['guard']"
p480
F-21.0
sS"252706948['move', (17, 6)]"
p481
F8.785115227015446e+144
sS"418381952['move', (15, 11)]"
p482
I1000
sS"318767104['attack', (15, 9)]"
p483
F1.4629258698777915e+156
sS"238026784['move', (2, 7)]"
p484
I-1000
sS"340787216['move', (6, 10)]"
p485
F1.5037003378664315e+168
sS"140509312['guard']"
p486
F5.788661600799671e+70
sS"507510824['guard']"
p487
I-10
sS"103809056['attack', (3, 4)]"
p488
I-10
sS"549453832['attack', (11, 16)]"
p489
F2.0388591777731392e+155
sS"370147360['guard']"
p490
F2.1023989428574343e+179
sS"1222639616['move', (14, 5)]"
p491
F4.4516085788270177e+18
sS"1450180608['attack', (6, 11)]"
p492
F1.67807552591771e+98
sS"235929602['move', (0, 7)]"
p493
I-10
sS"1515192320['attack', (5, 12)]"
p494
I-1000
sS"544210946['move', (8, 16)]"
p495
F9.469581188575903e+26
sS"543162368['guard']"
p496
F6.373212663950244e+181
sS"580911106['move', (10, 18)]"
p497
F-12.1
sS"580911232['guard']"
p498
F-21.0
sS"506462210['move', (4, 15)]"
p499
F3.9578902611527014e+164
sS"507510792['move', (4, 16)]"
p500
F-11.0
sS"138412034['attack', (4, 5)]"
p501
F3468135744.5281487
sS"148897792['attack', (13, 4)]"
p502
F-1100.0
sS"484442117['move', (13, 14)]"
p503
F1.1866377655408166e+90
sS"579862656['guard']"
p504
I-10
sS"141557760['attack', (8, 4)]"
p505
F3.355601008793482e+94
sS"318767120['move', (16, 10)]"
p506
F1.9344979605168167e+111
sS"218103809['attack', (16, 5)]"
p507
F1.5237138790592318e+164
sS"236978304['move', (2, 6)]"
p508
F1.0451294681228847e+169
sS"577765378['attack', (6, 17)]"
p509
F2.0319080336580939e+152
sS"235929664['move', (2, 7)]"
p510
F2.5429329332483402e+113
sS"485490752['attack', (15, 15)]"
p511
I-1000
sS"1153433602['attack', (12, 1)]"
p512
I-10
sS"308281344['move', (6, 10)]"
p513
F-900.0
sS"78643203['move', (11, 3)]"
p514
F2.3670473554774116e+59
sS"384827424['move', (16, 11)]"
p515
F1.862372462956957e+42
sS"169869314['attack', (2, 4)]"
p516
F1.7007397541331106e+173
sS"41943048['move', (8, 0)]"
p517
F1.0739701835272276e+180
sS"183500808['move', (15, 4)]"
p518
I-1000
sS"274727040['attack', (6, 9)]"
p519
I1000
sS"252706944['guard']"
p520
F1.4156773633646342e+179
sS"419430400['attack', (16, 11)]"
p521
F4.131534737241167e+179
sS"205520896['attack', (5, 6)]"
p522
F5.597795898545836e+162
sS"336592960['move', (1, 9)]"
p523
F4.274174850009422e+182
sS"105906368['attack', (6, 3)]"
p524
I1000
sS"286261249['guard']"
p525
I-20
sS"1178599424['guard']"
p526
I-10
sS"507510824['attack', (3, 15)]"
p527
I-10
sS"317718656['attack', (15, 10)]"
p528
I1000
sS"307232832['attack', (5, 8)]"
p529
F2.3782965978040214e+133
sS"252706816['guard']"
p530
F-1070.5377976606983
sS"1344274432['move', (1, 8)]"
p531
I-10
sS"286261253['guard']"
p532
I-10
sS"484442120['move', (15, 14)]"
p533
F1.7898387927937644e+175
sS"137363460['attack', (3, 5)]"
p534
I-10
sS"314572800['move', (13, 9)]"
p535
I1000
sS"1480589312['attack', (4, 11)]"
p536
F3.0813160799461282e+140
sS"73400384['attack', (6, 1)]"
p537
F8.676727933194835e+123
sS"41943048['attack', (8, 2)]"
p538
I-10
sS"509607936['attack', (5, 15)]"
p539
F2.475238946215571e+160
sS"370147344['guard']"
p540
F2.4045558425948212e+178
sS"116391936['move', (16, 3)]"
p541
F-1067.219116865078
sS"580911107['move', (10, 18)]"
p542
F-11.0
sS"473956352['move', (4, 15)]"
p543
F2.4664436552042222e+179
sS"116391944['attack', (15, 2)]"
p544
I-10
sS"169869316['guard']"
p545
F1.1729286033427318e+173
sS"484442113['move', (13, 14)]"
p546
F1.1001896489135458e+167
sS"519045128['guard']"
p547
F3.318334182450452e+170
sS"379584512['attack', (11, 11)]"
p548
F8.47435873129693e+19
sS"250609664['attack', (14, 7)]"
p549
F2.2406631245296397e+156
sS"439353344['move', (3, 14)]"
p550
F4.195067977276383e+154
sS"472907776['move', (4, 14)]"
p551
F2.1235682184343133e+178
sS"203423748['guard']"
p552
I-10
sS"218103824['move', (16, 5)]"
p553
F-11.0
sS"1654652936['attack', (11, 17)]"
p554
F4.8976541828331415e+122
sS"450887745['move', (13, 13)]"
p555
I1000
sS"340787200['attack', (4, 10)]"
p556
F3.005355489632975e+129
sS"1623195659['attack', (12, 15)]"
p557
I-10
sS"1283457024['attack', (8, 7)]"
p558
F4.0695651184742016e+71
sS"577765408['move', (8, 17)]"
p559
F-11.0
sS"578814080['guard']"
p560
I-10
sS"319815684['attack', (17, 8)]"
p561
F2.0582932816253937e+141
sS"103809028['move', (3, 2)]"
p562
F1.1461554116770569e+176
sS"516947976['move', (14, 15)]"
p563
I-10
sS"579862528['attack', (10, 17)]"
p564
F3.8224086107738676e+179
sS"339738625['move', (5, 10)]"
p565
F1.5037003378664315e+167
sS"507510808['move', (4, 14)]"
p566
F3442.2712143930994
sS"1243611168['move', (3, 5)]"
p567
I1000
sS"1619001344['move', (8, 15)]"
p568
F1229.9434246149185
sS"1386217472['attack', (11, 9)]"
p569
F1.2493337723702458e+111
sS"310378496['attack', (8, 10)]"
p570
I1000
sS"578813960['guard']"
p571
F1.485469110528645e+162
sS"1550843904['attack', (7, 15)]"
p572
F6.067095191578837e+156
sS"510656512['move', (8, 15)]"
p573
F1.1305164299233416e+168
sS"42991616['attack', (9, 2)]"
p574
F-23.1
sS"1523580928['attack', (14, 13)]"
p575
F1.0342531537919282e+50
sS"1285554208['attack', (9, 6)]"
p576
F2468.462241661913
sS"439353474['attack', (4, 13)]"
p577
F1.587886763109352e+22
sS"544210953['attack', (8, 16)]"
p578
I1000
sS"507510914['guard']"
p579
I-10
sS"1223688200['move', (15, 5)]"
p580
F1.4784078206096265e+73
sS"485490816['attack', (16, 14)]"
p581
F3.454155808663702e+180
sS"286261312['attack', (17, 9)]"
p582
I-10
sS"1360003072['attack', (18, 8)]"
p583
F1.1087349989676643e+27
sS"207618064['move', (7, 6)]"
p584
I-1000
sS"106954752['attack', (6, 2)]"
p585
F2.7722473759188357e+122
sS"1580204032['guard']"
p586
F-21.0
sS"370147329['guard']"
p587
F1.1867493938157928e+179
sS"42991616['move', (10, 1)]"
p588
F7.733818768269599e+178
sS"404750338['move', (1, 12)]"
p589
F7.950515249048046e+153
sS"404750400['guard']"
p590
I-10
sS"578813984['guard']"
p591
I-30
sS"1427111949['guard']"
p592
F-21.0
sS"550502408['move', (13, 17)]"
p593
I-10
sS"516948056['attack', (13, 16)]"
p594
F1.069257030701729e+171
sS"353370241['guard']"
p595
I-30
sS"508559432['move', (4, 15)]"
p596
F4.3520547466388523e+170
sS"137363460['guard']"
p597
I-10
sS"472907840['move', (4, 14)]"
p598
F7.355010366890073e+117
sS"251658242['move', (16, 6)]"
p599
F1.807060274694125e+178
sS"579862576['move', (8, 17)]"
p600
F6.058567402474008e+102
sS"303038480['guard']"
p601
F-41.0
sS"144703488['attack', (10, 5)]"
p602
F1.2550121283830252e+155
sS"73400328['guard']"
p603
F-21.0
sS"203423760['attack', (2, 5)]"
p604
F3.738130030372296e+169
sS"1546649600['guard']"
p605
F3.5517172213186315e+175
sS"108003392['attack', (6, 3)]"
p606
I-1000
sS"1343225872['guard']"
p607
I-10
sS"580911114['attack', (11, 17)]"
p608
F4.931504372532922e+172
sS"1580204032['move', (2, 15)]"
p609
I-10
sS"579862560['attack', (8, 17)]"
p610
I-10
sS"542113810['guard']"
p611
F-21.0
sS"40894496['attack', (7, 0)]"
p612
F3.3201546397442045e+173
sS"515899520['move', (12, 16)]"
p613
F5.5256167174115126e+104
sS"238026756['attack', (3, 6)]"
p614
F1.0207658077872366e+47
sS"550502528['guard']"
p615
I-20
sS"1586495632['attack', (8, 15)]"
p616
I1000
sS"507510792['guard']"
p617
I-30
sS"512753676['move', (8, 15)]"
p618
F-861.06
sS"581959808['move', (10, 17)]"
p619
F3.6553783289606304e+164
sS"203423745['move', (3, 6)]"
p620
F113767195731.24197
sS"370147328['move', (0, 11)]"
p621
F-1100.0
sS"577765376['attack', (7, 18)]"
p622
F4.240189483285506e+180
sS"580911136['move', (9, 17)]"
p623
F6.673072536538903e+164
sS"103809030['move', (3, 2)]"
p624
I-10
sS"1326448640['move', (17, 6)]"
p625
F9240870713306.824
sS"137363458['attack', (2, 4)]"
p626
I-1000
sS"409993216['move', (7, 11)]"
p627
F5.916227849959446e+38
sS"385875968['attack', (15, 11)]"
p628
F1.4589655322340636e+151
sS"543162377['attack', (7, 16)]"
p629
I-10
sS"104857632['attack', (4, 4)]"
p630
F5.325246708392708e+160
sS"282066944['attack', (12, 8)]"
p631
F1.9717704980926854e+118
sS"104857602['attack', (4, 2)]"
p632
F2.472637960378526e+78
sS"1282408448['move', (8, 6)]"
p633
F5.020598135460244e+57
sS"1345323016['move', (3, 9)]"
p634
I-1000
sS"1315962880['move', (6, 7)]"
p635
F4.210339393337819e+152
sS"580911112['guard']"
p636
F3.3776075379451744e+178
sS"112197632['move', (11, 2)]"
p637
F1.3430925489321564e+37
sS"317718530['attack', (15, 8)]"
p638
F12705312189.104546
sS"286261312['move', (18, 8)]"
p639
F6.009462485240435e+154
sS"579862560['guard']"
p640
F1.6514653534569914e+176
sS"274726912['move', (5, 8)]"
p641
F900.0
sS"44040224['move', (9, 1)]"
p642
F5.729174156675939e+175
sS"205521024['move', (4, 5)]"
p643
F1.746524567107649e+29
sS"184549380['guard']"
p644
F1.2049882784398406e+162
sS"548405256['move', (11, 17)]"
p645
F2.6320252289966853e+117
sS"472907780['move', (2, 14)]"
p646
I-10
sS"419430404['guard']"
p647
I-40
sS"485490820['move', (16, 14)]"
p648
I-10
sS"203423744['attack', (2, 7)]"
p649
F1.986483664205e+170
sS"116392064['attack', (16, 3)]"
p650
F2.5340793425848667e+163
sS"78643200['guard']"
p651
F2.984661030284559e+94
sS"305135620['attack', (3, 10)]"
p652
F2.807576358053623e+138
sS"142606480['attack', (9, 4)]"
p653
F48307526942.880005
sS"578813968['move', (9, 17)]"
p654
F2.690476320525544e+176
sS"1146093568['guard']"
p655
I-10
sS"148897824['move', (13, 4)]"
p656
I1000
sS"581959809['attack', (12, 17)]"
p657
F2.875239954321103e+138
sS"579862538['attack', (9, 16)]"
p658
I-10
sS"374341632['move', (5, 12)]"
p659
F-1131.0
sS"218103812['guard']"
p660
F3.5522087641552846e+177
sS"508559376['move', (4, 15)]"
p661
F6.898876945307628e+141
sS"349175936['attack', (12, 10)]"
p662
I1000
sS"1557135360['move', (12, 14)]"
p663
F2.7216921911014123e+100
sS"115343364['guard']"
p664
F6.318689355132865e+125
sS"1583349776['attack', (6, 14)]"
p665
I1000
sS"508559364['move', (5, 16)]"
p666
I-1000
sS"549453824['move', (11, 16)]"
p667
F1.2603787260585922e+166
sS"169869318['move', (1, 5)]"
p668
F3.2836578045844166e+75
sS"44040256['move', (9, 1)]"
p669
F2.4749205112902694e+155
sS"137363488['guard']"
p670
F6.535383998736342e+142
sS"115343392['move', (15, 3)]"
p671
F2.0022341037571168e+175
sS"485490752['guard']"
p672
I-20
sS"285212736['move', (16, 9)]"
p673
F1210.0
sS"581959704['attack', (11, 18)]"
p674
I-10
sS"353370176['attack', (17, 11)]"
p675
F-11.0
sS"286261440['move', (17, 7)]"
p676
F2.0726887068926305e+179
sS"404750400['attack', (2, 13)]"
p677
I-10
sS"514850820['move', (11, 14)]"
p678
F2.442479650889706e+79
sS"485490692['guard']"
p679
F1.3500624871290092e+161
sS"445644808['guard']"
p680
I1000
sS"341835808['attack', (5, 10)]"
p681
F1557203588553.576
sS"1258291200['guard']"
p682
I-10
sS"115343360['move', (14, 4)]"
p683
F1.7127690380022242e+176
sS"336592896['attack', (0, 10)]"
p684
F3.040132973751257e+179
sS"485490820['attack', (15, 15)]"
p685
I-10
sS"271581200['attack', (3, 7)]"
p686
F1099165836646615.2
sS"406847492['guard']"
p687
F1331.0
sS"547356672['move', (10, 15)]"
p688
I1000
sS"269484050['move', (0, 8)]"
p689
I1000
sS"353370244['guard']"
p690
I-20
sS"241172484['move', (6, 8)]"
p691
I1000
sS"1153433602['guard']"
p692
I-30
sS"236978176['attack', (3, 7)]"
p693
F2.110076949296296e+167
sS"419430464['guard']"
p694
F-89.2
sS"1288699936['move', (13, 7)]"
p695
F2.7458983543105184e+16
sS"371195968['attack', (3, 11)]"
p696
F8.58957000354234e+17
sS"1548746752['move', (5, 15)]"
p697
I-1000
sS"137363456['move', (2, 4)]"
p698
F4.16387128278316e+180
sS"169869312['attack', (3, 5)]"
p699
F1.5859005546107566e+180
sS"319815684['guard']"
p700
I-10
sS"44040256['guard']"
p701
F-21.0
sS"580911128['attack', (10, 16)]"
p702
I-10
sS"1190133764['attack', (16, 3)]"
p703
F1.6783237414485304e+178
sS"1388314624['attack', (12, 10)]"
p704
F3.220760343356327e+29
sS"1552941056['attack', (9, 15)]"
p705
F6.0892327075728086e+50
sS"476053506['move', (6, 15)]"
p706
F2.742462795021692e+117
sS"1278214240['attack', (3, 5)]"
p707
I1000
sS"218103808['attack', (15, 6)]"
p708
F9.982572246581428e+179
sS"44040320['guard']"
p709
I-40
sS"1258291204['move', (16, 4)]"
p710
F2.4372917024670736e+171
sS"1581252611['attack', (5, 15)]"
p711
F1.5711743161853968e+173
sS"519045136['attack', (15, 14)]"
p712
F2.3823341092285917e+173
sS"44040200['guard']"
p713
I-30
sS"308281344['move', (5, 9)]"
p714
F3.484944201001687e+91
sS"544210948['move', (8, 16)]"
p715
F8.083006106336302e+114
sS"514850880['attack', (11, 16)]"
p716
F7.824509756134721e+170
sS"416284672['attack', (12, 12)]"
p717
F-210.0
sS"1556086784['move', (12, 15)]"
p718
F1.9232320036511794e+118
sS"204472324['attack', (2, 6)]"
p719
I-1000
sS"508559368['attack', (5, 14)]"
p720
F1.7341238180070104e+176
sS"353370120['move', (18, 10)]"
p721
F2.458830466834362e+136
sS"303038484['guard']"
p722
I-10
sS"218103937['guard']"
p723
I-10
sS"580911122['guard']"
p724
F7.594954881107306e+151
sS"285212704['attack', (16, 9)]"
p725
F1.7536076149256985e+179
sS"549453840['guard']"
p726
F1.0632858169150096e+152
sS"545259528['move', (8, 15)]"
p727
F4.630534833588838e+54
sS"548405250['move', (11, 17)]"
p728
F3.064572891186923e+179
sS"80740480['attack', (12, 2)]"
p729
I-10
sS"1581252610['move', (5, 15)]"
p730
F-11.0
sS"306184320['move', (4, 8)]"
p731
I1000
sS"169869378['guard']"
p732
I-10
sS"1323302912['attack', (13, 7)]"
p733
I-1000
sS"507510800['guard']"
p734
F-42.0
sS"183500801['attack', (16, 5)]"
p735
F6.366153001271667e+72
sS"181403648['attack', (12, 5)]"
p736
F2.8619529139156102e+134
sS"104857728['move', (4, 2)]"
p737
F6.12487404499251e+160
sS"42991648['attack', (9, 2)]"
p738
F3.486482014670543e+172
sS"374341632['move', (5, 10)]"
p739
F1.0531524118718123e+83
sS"1357905920['move', (15, 9)]"
p740
F8.271008057892509e+96
sS"239075456['move', (5, 7)]"
p741
F1.7841093189112395e+156
sS"353370113['move', (18, 10)]"
p742
I-10
sS"440401922['move', (5, 13)]"
p743
F5635883661.204979
sS"581959704['move', (12, 17)]"
p744
I-10
sS"404750340['guard']"
p745
I-20
sS"116391940['attack', (14, 3)]"
p746
F1.1463176978679941e+177
sS"511705120['move', (9, 15)]"
p747
I-1000
sS"116391936['guard']"
p748
F4.2430950441258176e+178
sS"452984848['guard']"
p749
F4.664373700568903e+150
sS"77594624['attack', (10, 3)]"
p750
F3.2342777097287316e+152
sS"248512577['move', (14, 7)]"
p751
I-1000
sS"337641536['attack', (1, 10)]"
p752
I-1000
sS"550502424['move', (12, 16)]"
p753
I-1000
sS"80740480['move', (13, 1)]"
p754
I-10
sS"104857728['attack', (4, 4)]"
p755
I-10
sS"1655701512['guard']"
p756
I-10
sS"104857728['guard']"
p757
F-21.0
sS"351272961['move', (16, 10)]"
p758
I1000
sS"578813954['guard']"
p759
F-21.0
sS"1217396736['guard']"
p760
F3.3358398211723344e+43
sS"1588592642['move', (10, 15)]"
p761
F4.5348544586171195e+48
sS"45088832['guard']"
p762
I-10
sS"485490752['attack', (14, 14)]"
p763
F-12.1
sS"513802240['guard']"
p764
I-1000
sS"338690048['attack', (2, 10)]"
p765
F-1210.0
sS"546308116['guard']"
p766
F4.384551751251413e+101
sS"419430401['move', (17, 12)]"
p767
I-10
sS"514850816['attack', (10, 15)]"
p768
F2.9055513232531672e+166
sS"1179648002['attack', (5, 4)]"
p769
F1.2369993154132583e+99
sS"44040224['attack', (10, 2)]"
p770
F-12.1
sS"349175808['guard']"
p771
F80179.53205361335
sS"343932928['attack', (9, 10)]"
p772
F1.8596113898845333e+89
sS"45088896['attack', (11, 0)]"
p773
F2.3094535619529893e+175
sS"1255145472['move', (13, 6)]"
p774
F-611.4546713999999
sS"411041796['attack', (8, 13)]"
p775
I-1000
sS"1190133764['attack', (14, 3)]"
p776
I-10
sS"1216348160['move', (9, 4)]"
p777
I-1000
sS"170918016['move', (3, 6)]"
p778
I1000
sS"1580204035['move', (3, 14)]"
p779
F6.549498779210985e+153
sS"519045129['guard']"
p780
I-20
sS"207618112['move', (7, 6)]"
p781
I1000
sS"1651507200['attack', (8, 17)]"
p782
I-10
sS"319815680['attack', (18, 9)]"
p783
F5.161565312167165e+178
sS"203423776['guard']"
p784
F1.2916904933537254e+130
sS"282066976['attack', (13, 7)]"
p785
I-1000
sS"1493172240['move', (17, 12)]"
p786
I-1000
sS"545259520['attack', (7, 16)]"
p787
F2.918286980487577e+169
sS"548405268['move', (12, 16)]"
p788
F1.4051707635400076e+116
sS"79691808['guard']"
p789
F1.073133171545493e+173
sS"442499136['move', (5, 13)]"
p790
F9.742293552873589e+132
sS"317718528['move', (15, 10)]"
p791
I-1000
sS"106954760['move', (6, 4)]"
p792
F1.163520981760734e+71
sS"286261264['guard']"
p793
F1.1027241681616132e+178
sS"312475664['move', (10, 8)]"
p794
I1000
sS"1581252608['attack', (4, 14)]"
p795
F1.5629454969580076e+130
sS"235929602['guard']"
p796
F3.1623946004243025e+166
sS"283115648['attack', (14, 9)]"
p797
I-1000
sS"1421869088['move', (13, 10)]"
p798
I1000
sS"205520960['attack', (5, 6)]"
p799
F3.4265423284333537e+81
sS"477102080['attack', (7, 15)]"
p800
F3.810265906304919e+16
sS"269484034['attack', (1, 7)]"
p801
F8.404830070794575e+28
sS"73400328['attack', (7, 2)]"
p802
F-11.0
sS"507510794['attack', (4, 14)]"
p803
F-11.0
sS"1258291204['move', (16, 6)]"
p804
F-11.0
sS"1654652960['attack', (9, 17)]"
p805
I-10
sS"217055240['guard']"
p806
F1464.1
sS"42991618['guard']"
p807
I-10
sS"41943168['guard']"
p808
F5.83837569282406e+175
sS"1180696577['move', (7, 3)]"
p809
F1.17303992277936e+43
sS"40894466['guard']"
p810
F1.0384624599667628e+162
sS"507510786['move', (4, 14)]"
p811
F4.819577605107471e+178
sS"319815696['guard']"
p812
F1.2356376980324845e+177
sS"507510817['guard']"
p813
F8.704114303496313e+170
sS"252706880['guard']"
p814
I-10
sS"1314914320['attack', (5, 7)]"
p815
I1000
sS"41943170['guard']"
p816
F3.797800380304249e+113
sS"79691778['guard']"
p817
F-73.0
sS"319815744['attack', (17, 8)]"
p818
I-10
sS"115343488['guard']"
p819
I-10
sS"1291845632['attack', (17, 6)]"
p820
F83768902426852.17
sS"548405328['move', (11, 17)]"
p821
F3.847328202884063e+152
sS"472907780['guard']"
p822
F-21.0
sS"506462209['move', (2, 15)]"
p823
I-10
sS"353370117['guard']"
p824
I-10
sS"251658264['attack', (16, 6)]"
p825
I1000
sS"419430528['guard']"
p826
F7.060527685607786e+88
sS"337641472['move', (1, 10)]"
p827
F1.1790234605865771e+128
sS"170917889['move', (3, 4)]"
p828
F7.430864098632937e+118
sS"419430593['guard']"
p829
I-10
sS"114294832['move', (13, 2)]"
p830
F6.552521239814661e+17
sS"303038496['guard']"
p831
I-10
sS"141557776['attack', (6, 4)]"
p832
I-1000
sS"78643216['attack', (10, 2)]"
p833
F2.2075637040061623e+149
sS"73400448['attack', (7, 2)]"
p834
I-10
sS"103809060['move', (3, 2)]"
p835
I-10
sS"447742080['attack', (11, 12)]"
p836
F1.3038798337255317e+31
sS"104857604['move', (3, 3)]"
p837
F2.348180836789994e+164
sS"507510816['guard']"
p838
F4.1583022993422436e+179
sS"485490688['move', (15, 15)]"
p839
F1.6291295849144043e+182
sS"303038465['guard']"
p840
I-20
sS"442499072['guard']"
p841
F4.311677092688924e+115
sS"507510795['move', (4, 14)]"
p842
I-10
sS"548405376['move', (11, 17)]"
p843
F1.4441788312210878e+153
sS"517996562['attack', (14, 16)]"
p844
F5.269251852178867e+93
sS"580911106['attack', (10, 16)]"
p845
F2.229795864752314e+153
sS"519045249['guard']"
p846
F6.844086011153601e+161
sS"278921280['attack', (9, 8)]"
p847
I1000
sS"517996560['guard']"
p848
F7.997124233293629e+172
sS"413138944['move', (10, 11)]"
p849
F1100.0
sS"204472384['attack', (2, 6)]"
p850
F6.134895858452267e+74
sS"173015040['move', (5, 4)]"
p851
F3.231250426183089e+138
sS"543162400['attack', (6, 17)]"
p852
I-1000
sS"104857600['attack', (4, 2)]"
p853
F2.360151340374089e+179
sS"484442272['move', (14, 15)]"
p854
F5.827107168926741e+139
sS"239075328['move', (5, 7)]"
p855
F2.4443340111923538e+165
sS"508559488['move', (5, 14)]"
p856
F2.9323991588888915e+167
sS"452984833['attack', (16, 14)]"
p857
F8.133940469079291e+179
sS"42991618['move', (8, 1)]"
p858
F8.48922772110369e+168
sS"103809060['guard']"
p859
I-10
sS"371195920['guard']"
p860
I-1000
sS"73400448['guard']"
p861
I-20
sS"550502400['attack', (12, 16)]"
p862
F4.6879371115652165e+179
sS"1580204035['guard']"
p863
I-10
sS"336592901['guard']"
p864
I-10
sS"578813976['guard']"
p865
I-10
sS"42991744['guard']"
p866
I-20
sS"516948100['move', (14, 15)]"
p867
I-10
sS"543162496['guard']"
p868
I-10
sS"448790528['attack', (11, 13)]"
p869
F1.7047089102572984e+155
sS"270532608['move', (2, 7)]"
p870
F2.5689711779437072e+41
sS"1314914304['guard']"
p871
F3.3109862152572595e+38
sS"104857604['move', (4, 2)]"
p872
I-10
sS"1258291204['attack', (17, 5)]"
p873
I-10
sS"305135648['move', (4, 9)]"
p874
I1000
sS"507510794['guard']"
p875
F-21.0
sS"235929604['move', (2, 7)]"
p876
F2.1908391528927228e+112
sS"1179648002['move', (4, 3)]"
p877
I-10
sS"143654912['attack', (9, 3)]"
p878
F3.621774999506694e+166
sS"170917888['attack', (3, 4)]"
p879
F1.900401647407186e+138
sS"1179648000['move', (5, 2)]"
p880
F2.0704015920789013e+150
sS"1515192320['move', (5, 12)]"
p881
F5.12208940866173e+49
sS"239075330['move', (4, 6)]"
p882
F1.5013196534590227e+129
sS"580911106['move', (11, 17)]"
p883
F-13.2
sS"579862689['attack', (9, 16)]"
p884
I-10
sS"482344960['move', (13, 14)]"
p885
F6.025045536306136e+168
sS"1393557568['attack', (16, 9)]"
p886
I1000
sS"303038480['move', (1, 10)]"
p887
F1.3762123872094222e+163
sS"548405312['attack', (11, 15)]"
p888
F3.4035326334086318e+168
sS"1486880768['attack', (9, 12)]"
p889
F3.470642825052894e+81
sS"577765378['guard']"
p890
I-60
sS"1221591040['move', (12, 4)]"
p891
I1000
sS"286261312['guard']"
p892
I-10
sS"438304800['attack', (1, 13)]"
p893
F4.4606937223213534e+175
sS"1179648000['move', (4, 3)]"
p894
I-1000
sS"44040322['guard']"
p895
F-21.0
sS"517996576['move', (14, 16)]"
p896
F-21.0
sS"547356673['move', (10, 17)]"
p897
F4.740683179565182e+87
sS"1179648000['attack', (5, 2)]"
p898
I-1000
sS"1343225856['guard']"
p899
F-31.0
sS"242221056['move', (6, 7)]"
p900
F3340902.892380064
sS"407896064['attack', (4, 12)]"
p901
F-1210.0
sS"72351746['guard']"
p902
I-20
sS"1217396738['attack', (8, 4)]"
p903
I-1000
sS"110100512['move', (9, 4)]"
p904
F6.272154628734972e+29
sS"181403714['move', (14, 5)]"
p905
I-1000
sS"1513095176['attack', (3, 14)]"
p906
F1464.1
sS"272629760['move', (4, 7)]"
p907
F1.2860939949061206e+162
sS"307232769['guard']"
p908
F9.756475583025302e+71
sS"542113824['guard']"
p909
I-40
sS"149946384['move', (16, 4)]"
p910
F-1100.0
sS"40894500['guard']"
p911
F1.1451413504105712e+96
sS"103809088['attack', (3, 4)]"
p912
F5.94825150507955e+162
sS"138412096['move', (4, 5)]"
p913
F5738442195119.954
sS"44040224['attack', (10, 0)]"
p914
F-21.0
sS"542113793['attack', (4, 16)]"
p915
F4.434295110458122e+164
sS"44040232['guard']"
p916
I-10
sS"183500800['move', (15, 4)]"
p917
F5.323630663593163e+176
sS"385876032['attack', (17, 11)]"
p918
I-1000
sS"252706824['attack', (18, 7)]"
p919
F1.0849862721420997e+120
sS"384827392['move', (15, 10)]"
p920
F1100.0
sS"417333252['guard']"
p921
F3.5100757314910724e+51
sS"512753728['move', (9, 14)]"
p922
F9.966723201336725e+91
sS"419430532['move', (16, 13)]"
p923
I-10
sS"238026752['attack', (4, 7)]"
p924
F2.3811136548363346e+163
sS"370147344['move', (1, 10)]"
p925
I-10
sS"549453825['attack', (12, 17)]"
p926
F1.779790881358764e+137
sS"318767112['move', (17, 9)]"
p927
F1.6524280979879352e+62
sS"1282408480['attack', (7, 7)]"
p928
F5.3131586430860624e+26
sS"1256194048['move', (14, 6)]"
p929
F1184213407.4744136
sS"1519386624['attack', (9, 14)]"
p930
F3.202841678793482e+135
sS"1654652968['guard']"
p931
F8.464172074721305e+137
sS"516947968['attack', (12, 15)]"
p932
F1.3547092708468614e+149
sS"42991648['guard']"
p933
I-30
sS"578813963['guard']"
p934
I-10
sS"548405252['move', (12, 16)]"
p935
F1.0138243252262468e+155
sS"103809026['attack', (4, 3)]"
p936
F2.8358133491412665e+179
sS"236978240['move', (2, 8)]"
p937
F-1100.0
sS"515899392['attack', (12, 16)]"
p938
F3.9569432218676133e+155
sS"1115684864['move', (8, 2)]"
p939
I-1000
sS"286261252['guard']"
p940
F-21.0
sS"1178599552['guard']"
p941
F-32.0
sS"105906212['attack', (5, 4)]"
p942
F1379.749833583241
sS"110100480['move', (9, 4)]"
p943
F6.293929393696927e+163
sS"1217396737['move', (8, 4)]"
p944
F1.88862128450748e+33
sS"519045248['guard']"
p945
F7.091499919217047e+182
sS"1621098500['guard']"
p946
I1000
sS"579862688['guard']"
p947
I-10
sS"579862530['move', (8, 17)]"
p948
F4.403923207876397e+180
sS"103809026['guard']"
p949
I-20
sS"578813952['move', (9, 17)]"
p950
F1.1392992500015245e+181
sS"138412033['attack', (5, 4)]"
p951
F1.4444457332032952e+49
sS"307232768['attack', (6, 9)]"
p952
F9.77430980968876e+204
sS"375390208['move', (7, 11)]"
p953
I-1000
sS"406847490['move', (4, 11)]"
p954
I1000
sS"519045129['move', (14, 15)]"
p955
I-10
sS"1246756864['attack', (5, 6)]"
p956
I-1000
sS"1212153856['attack', (5, 4)]"
p957
F2.1147153766042578e+38
sS"386924544['move', (18, 11)]"
p958
F4.0072556883349285e+179
sS"110100544['move', (9, 2)]"
p959
F4.7407593072416e+102
sS"339738624['attack', (5, 10)]"
p960
F9.568966918015747e+160
sS"1581252738['attack', (4, 14)]"
p961
I-10
sS"336592928['guard']"
p962
F1.2438970008961298e+85
sS"407896064['attack', (6, 12)]"
p963
F-1210.0
sS"1458569216['guard']"
p964
I-1000
sS"417333248['attack', (14, 11)]"
p965
F7.712067134444044e+154
sS"338690048['attack', (3, 11)]"
p966
F1.24871149688382e+138
sS"148897792['attack', (14, 5)]"
p967
I-1000
sS"273678336['attack', (5, 9)]"
p968
F5.396636576314805e+40
sS"545259584['guard']"
p969
F3.37120905728904e+166
sS"1311768576['move', (3, 8)]"
p970
F8.51253360926239e+33
sS"139460608['move', (5, 5)]"
p971
F4.02002172154912e+150
sS"508559490['move', (5, 16)]"
p972
F2.6409879948038163e+150
sS"550502401['guard']"
p973
I-1010
sS"42991616['guard']"
p974
I-40
sS"286261252['attack', (18, 8)]"
p975
F-21.1
sS"141557764['move', (8, 4)]"
p976
F529213.6016399505
sS"1617952768['attack', (8, 16)]"
p977
F4.9644656277900804e+91
sS"1589641216['move', (12, 14)]"
p978
F1.1161074318122642e+101
sS"103809028['attack', (3, 2)]"
p979
I-10
sS"581959689['guard']"
p980
F1.9512947799707057e+139
sS"404750340['attack', (1, 12)]"
p981
F-11.0
sS"517996547['guard']"
p982
F1.9231526749903942e+170
sS"44040192['attack', (10, 0)]"
p983
F8.749392034233922e+179
sS"1551892480['move', (7, 14)]"
p984
F3.2836055177740713e+111
sS"1348468736['move', (6, 7)]"
p985
F1.8689654012801474e+37
sS"239075328['move', (4, 6)]"
p986
I-1000
sS"385875970['move', (17, 11)]"
p987
F-11.0
sS"577765377['move', (7, 16)]"
p988
I-1000
sS"103809056['guard']"
p989
I-10
sS"305135616['move', (4, 9)]"
p990
F7.257947345569092e+196
sS"80740416['attack', (14, 2)]"
p991
F-672.60013854
s.