(dp0
S"72['attack', (7, 3)]"
p1
I-1
sS"76['attack', (6, 10)]"
p2
I-2
sS"44['attack', (10, 11)]"
p3
I-1
sS"108['attack', (11, 5)]"
p4
I-1
sS"284['attack', (16, 3)]"
p5
I-1
sS"303['attack', (4, 13)]"
p6
I-1
sS"90['attack', (12, 3)]"
p7
I-1
sS"391['move', (14, 16)]"
p8
I-1
sS"154['move', (13, 17)]"
p9
I-1
sS"36['attack', (6, 14)]"
p10
I-1
sS"43['move', (13, 1)]"
p11
I-2
sS"146['move', (10, 18)]"
p12
I-1
sS"140['attack', (7, 17)]"
p13
I-2
sS"257['attack', (14, 13)]"
p14
I-1
sS"162['attack', (10, 3)]"
p15
I-1
sS"130['attack', (1, 5)]"
p16
I-1
sS"80['attack', (14, 5)]"
p17
I-2
sS"65['attack', (8, 1)]"
p18
I-2
sS"244['attack', (14, 3)]"
p19
I-1
sS"125['attack', (4, 4)]"
p20
I-1
sS"208['attack', (17, 10)]"
p21
I-1
sS"452['attack', (13, 14)]"
p22
I-1
sS"195['attack', (4, 9)]"
p23
I-1
sS"84['attack', (15, 12)]"
p24
I-1
sS"16['move', (12, 17)]"
p25
I-2
sS"286['attack', (2, 14)]"
p26
I-1
sS"300['attack', (7, 15)]"
p27
I-1
sS"1['attack', (2, 13)]"
p28
I-2
sS"266['attack', (7, 8)]"
p29
I-1
sS"100['attack', (5, 7)]"
p30
I-1
sS"260['attack', (5, 14)]"
p31
I-1
sS"43['attack', (2, 11)]"
p32
I-1
sS"88['attack', (6, 3)]"
p33
I-1
sS"87['attack', (3, 9)]"
p34
I-1
sS"172['attack', (5, 16)]"
p35
I-1
sS"159['attack', (15, 2)]"
p36
I-1
sS"1048717['attack', (8, 15)]"
p37
I-1
sS"140['attack', (4, 2)]"
p38
I-1
sS"265['attack', (9, 16)]"
p39
I-1
sS"221['attack', (13, 4)]"
p40
I-1
sS"216['attack', (11, 17)]"
p41
I-1
sS"26['attack', (10, 2)]"
p42
I-1
sS"162['attack', (4, 5)]"
p43
I-1
sS"297['attack', (3, 6)]"
p44
I-1
sS"232['attack', (8, 17)]"
p45
I-1
sS"25['attack', (10, 2)]"
p46
I-1
sS"79['attack', (13, 16)]"
p47
I-1
sS"138['attack', (13, 13)]"
p48
I-3
sS"139['attack', (12, 5)]"
p49
I-1
sS"242['attack', (4, 10)]"
p50
I-1
sS"243['attack', (12, 13)]"
p51
I-1
sS"72['attack', (2, 11)]"
p52
I-1
sS"195['attack', (5, 8)]"
p53
I-1
sS"89['attack', (12, 1)]"
p54
I-3
sS"132['attack', (6, 16)]"
p55
I-2
sS"188['attack', (6, 5)]"
p56
I-1
sS"24['attack', (16, 11)]"
p57
I-1
sS"6['attack', (8, 3)]"
p58
I-2
sS"37['attack', (3, 13)]"
p59
I-1
sS"365['attack', (4, 8)]"
p60
I-1
sS"79['attack', (6, 15)]"
p61
I-1
sS"1048759['attack', (8, 15)]"
p62
I-1
sS"72['move', (11, 18)]"
p63
I-1
sS"84['attack', (3, 12)]"
p64
I-1
sS"173['attack', (14, 16)]"
p65
I-1
sS"215['attack', (5, 3)]"
p66
I-1
sS"97['attack', (6, 15)]"
p67
I-1
sS"116['attack', (14, 15)]"
p68
I-1
sS"152['attack', (17, 9)]"
p69
I-1
sS"145['attack', (9, 2)]"
p70
I-1
sS"156['attack', (12, 13)]"
p71
I-1
sS"328['move', (8, 0)]"
p72
I-1
sS"94['attack', (16, 9)]"
p73
I-1
sS"112['attack', (17, 13)]"
p74
I-1
sS"208['attack', (9, 16)]"
p75
I-1
sS"275['attack', (7, 7)]"
p76
I-1
sS"4['attack', (16, 9)]"
p77
I-2
sS"282['move', (15, 2)]"
p78
I-2
sS"129['attack', (8, 13)]"
p79
I-1
sS"108['attack', (12, 8)]"
p80
I-1
sS"56['attack', (14, 4)]"
p81
I-1
sS"44['attack', (4, 14)]"
p82
I-1
sS"92['attack', (4, 2)]"
p83
I-1
sS"66['attack', (7, 15)]"
p84
I-1
sS"36['attack', (2, 9)]"
p85
I-1
sS"0['move', (16, 14)]"
p86
I-1
sS"191['attack', (12, 3)]"
p87
I-1
sS"1048810['move', (10, 4)]"
p88
I100
sS"188['guard']"
p89
I-1
sS"104['attack', (15, 5)]"
p90
I-1
sS"226['attack', (11, 15)]"
p91
I-1
sS"266['attack', (6, 17)]"
p92
I-1
sS"82['attack', (7, 14)]"
p93
I-1
sS"72['attack', (13, 8)]"
p94
I-1
sS"144['attack', (4, 15)]"
p95
I-1
sS"165['attack', (14, 13)]"
p96
I-1
sS"172['attack', (6, 2)]"
p97
I-1
sS"228['attack', (11, 10)]"
p98
I-1
sS"312['attack', (3, 8)]"
p99
I-1
sS"221['attack', (15, 14)]"
p100
I-1
sS"40['move', (11, 17)]"
p101
I-1
sS"212['attack', (3, 15)]"
p102
I-1
sS"133['attack', (4, 15)]"
p103
I-2
sS"33['move', (2, 15)]"
p104
I-1
sS"32['attack', (3, 8)]"
p105
I-1
sS"285['attack', (15, 12)]"
p106
I-1
sS"86['attack', (1, 6)]"
p107
I-1
sS"103['attack', (1, 8)]"
p108
I-2
sS"173['attack', (16, 9)]"
p109
I-1
sS"154['move', (16, 4)]"
p110
I-1
sS"28['attack', (3, 15)]"
p111
I-2
sS"356['attack', (4, 9)]"
p112
I-1
sS"129['attack', (11, 0)]"
p113
I-1
sS"60['attack', (4, 11)]"
p114
I-2
sS"36['attack', (8, 17)]"
p115
I-1
sS"36['attack', (1, 11)]"
p116
I-1
sS"129['move', (2, 14)]"
p117
I-1
sS"74['move', (6, 1)]"
p118
I-1
sS"257['move', (18, 8)]"
p119
I-1
sS"106['attack', (16, 12)]"
p120
I-1
sS"193['move', (16, 15)]"
p121
I-1
sS"56['attack', (14, 15)]"
p122
I-1
sS"17['attack', (13, 14)]"
p123
I-1
sS"1048824['attack', (7, 3)]"
p124
I-1
sS"112['attack', (11, 13)]"
p125
I-1
sS"86['attack', (15, 12)]"
p126
I-1
sS"64['move', (13, 17)]"
p127
I-1
sS"1048722['attack', (11, 0)]"
p128
I-1
sS"72['attack', (17, 6)]"
p129
I-1
sS"88['attack', (12, 17)]"
p130
I-1
sS"1049030['attack', (9, 15)]"
p131
I-1
sS"200['attack', (18, 10)]"
p132
I-1
sS"57['attack', (15, 14)]"
p133
I-1
sS"152['attack', (2, 9)]"
p134
I-1
sS"328['attack', (5, 16)]"
p135
I-1
sS"195['attack', (15, 15)]"
p136
I-1
sS"212['attack', (16, 4)]"
p137
I-1
sS"66['attack', (6, 6)]"
p138
I-1
sS"80['attack', (9, 15)]"
p139
I-1
sS"30['attack', (6, 1)]"
p140
I-1
sS"164['attack', (5, 4)]"
p141
I-1
sS"130['attack', (13, 14)]"
p142
I-1
sS"1048882['attack', (8, 15)]"
p143
I-1
sS"212['attack', (13, 16)]"
p144
I-4
sS"240['attack', (3, 12)]"
p145
I-1
sS"292['attack', (16, 3)]"
p146
I-1
sS"444['attack', (15, 11)]"
p147
I-1
sS"109['attack', (13, 14)]"
p148
I-1
sS"246['attack', (15, 9)]"
p149
I-1
sS"20['attack', (13, 15)]"
p150
I-1
sS"212['attack', (3, 6)]"
p151
I-1
sS"2['attack', (9, 15)]"
p152
I-1
sS"16['attack', (3, 16)]"
p153
I-1
sS"1048736['attack', (13, 7)]"
p154
I-1
sS"21['move', (4, 16)]"
p155
I-1
sS"79['move', (17, 12)]"
p156
I-1
sS"46['attack', (10, 1)]"
p157
I-1
sS"125['attack', (14, 7)]"
p158
I-1
sS"168['attack', (9, 6)]"
p159
I-1
sS"4['attack', (10, 1)]"
p160
I-1
sS"76['attack', (10, 5)]"
p161
I-1
sS"179['attack', (7, 6)]"
p162
I-1
sS"204['attack', (4, 2)]"
p163
I-2
sS"357['attack', (6, 10)]"
p164
I-1
sS"282['attack', (12, 16)]"
p165
I-1
sS"18['attack', (11, 2)]"
p166
I-3
sS"26['attack', (11, 3)]"
p167
I-1
sS"72['attack', (15, 3)]"
p168
I-1
sS"65['attack', (1, 10)]"
p169
I-1
sS"104['attack', (3, 4)]"
p170
I-2
sS"53['attack', (1, 6)]"
p171
I-2
sS"292['attack', (14, 6)]"
p172
I-1
sS"1048968['attack', (11, 14)]"
p173
I-1
sS"238['attack', (1, 6)]"
p174
I-1
sS"237['attack', (8, 15)]"
p175
I-1
sS"130['attack', (4, 10)]"
p176
I-1
sS"154['attack', (7, 14)]"
p177
I-1
sS"209['attack', (15, 10)]"
p178
I-1
sS"156['attack', (13, 17)]"
p179
I-1
sS"76['attack', (5, 16)]"
p180
I-1
sS"260['attack', (2, 6)]"
p181
I-1
sS"329['attack', (6, 16)]"
p182
I-1
sS"6['move', (2, 4)]"
p183
I-1
sS"97['attack', (8, 4)]"
p184
I-1
sS"356['attack', (8, 16)]"
p185
I-1
sS"217['attack', (13, 6)]"
p186
I-1
sS"206['attack', (4, 7)]"
p187
I-1
sS"222['attack', (16, 4)]"
p188
I-1
sS"32['move', (0, 8)]"
p189
I-1
sS"105['attack', (9, 0)]"
p190
I-1
sS"213['attack', (16, 4)]"
p191
I-1
sS"171['attack', (7, 10)]"
p192
I-1
sS"4['attack', (1, 12)]"
p193
I-1
sS"136['attack', (5, 4)]"
p194
I-1
sS"128['move', (10, 0)]"
p195
I-1
sS"171['attack', (9, 1)]"
p196
I-1
sS"97['attack', (10, 4)]"
p197
I-1
sS"136['move', (3, 2)]"
p198
I-1
sS"41['attack', (4, 14)]"
p199
I-1
sS"302['attack', (9, 17)]"
p200
I-1
sS"253['attack', (4, 8)]"
p201
I-1
sS"33['attack', (4, 14)]"
p202
I-2
sS"302['move', (9, 3)]"
p203
I-100
sS"64['attack', (9, 13)]"
p204
I-1
sS"274['attack', (16, 7)]"
p205
I-1
sS"455['attack', (7, 5)]"
p206
I-1
sS"198['attack', (5, 16)]"
p207
I-1
sS"197['attack', (12, 3)]"
p208
I-2
sS"101['attack', (2, 7)]"
p209
I-1
sS"27['move', (1, 12)]"
p210
I-1
sS"171['attack', (3, 7)]"
p211
I-1
sS"18['attack', (4, 14)]"
p212
I-1
sS"161['attack', (11, 3)]"
p213
I-1
sS"128['move', (17, 8)]"
p214
I-1
sS"17['attack', (17, 10)]"
p215
I-1
sS"322['attack', (13, 14)]"
p216
I-2
sS"128['attack', (6, 16)]"
p217
I-1
sS"45['attack', (5, 16)]"
p218
I-1
sS"264['attack', (17, 9)]"
p219
I-1
sS"142['attack', (14, 5)]"
p220
I-1
sS"1048850['move', (12, 1)]"
p221
I-1
sS"118['attack', (2, 11)]"
p222
I-1
sS"147['attack', (13, 5)]"
p223
I-1
sS"413['attack', (14, 15)]"
p224
I-1
sS"59['attack', (7, 14)]"
p225
I-1
sS"238['attack', (10, 17)]"
p226
I-1
sS"19['attack', (2, 15)]"
p227
I-1
sS"205['move', (2, 4)]"
p228
I-1
sS"175['attack', (13, 12)]"
p229
I-2
sS"53['attack', (7, 11)]"
p230
I-1
sS"234['attack', (8, 17)]"
p231
I-1
sS"236['attack', (11, 10)]"
p232
I-1
sS"138['attack', (13, 5)]"
p233
I-1
sS"1['attack', (15, 15)]"
p234
I-1
sS"393['attack', (10, 2)]"
p235
I-1
sS"42['attack', (3, 14)]"
p236
I-1
sS"1048624['attack', (3, 5)]"
p237
I-1
sS"173['attack', (15, 12)]"
p238
I-1
sS"261['attack', (5, 5)]"
p239
I-1
sS"92['attack', (11, 12)]"
p240
I-1
sS"26['attack', (13, 15)]"
p241
I-1
sS"264['attack', (5, 16)]"
p242
I-1
sS"12['attack', (11, 0)]"
p243
I-1
sS"76['attack', (10, 16)]"
p244
I-1
sS"1048706['attack', (5, 10)]"
p245
I-1
sS"49['move', (9, 0)]"
p246
I-1
sS"157['attack', (16, 6)]"
p247
I-1
sS"148['attack', (12, 15)]"
p248
I-1
sS"226['attack', (6, 13)]"
p249
I-1
sS"208['move', (2, 3)]"
p250
I-1
sS"46['attack', (8, 8)]"
p251
I-1
sS"352['attack', (4, 4)]"
p252
I-1
sS"161['attack', (6, 15)]"
p253
I-1
sS"155['attack', (3, 12)]"
p254
I-1
sS"401['attack', (10, 2)]"
p255
I-1
sS"33['attack', (1, 10)]"
p256
I-1
sS"117['attack', (6, 14)]"
p257
I-1
sS"247['move', (2, 14)]"
p258
I-1
sS"15['attack', (12, 12)]"
p259
I-1
sS"180['attack', (6, 5)]"
p260
I-1
sS"48['attack', (11, 3)]"
p261
I-2
sS"60['attack', (7, 7)]"
p262
I-1
sS"118['attack', (6, 9)]"
p263
I-1
sS"257['attack', (3, 15)]"
p264
I-2
sS"244['attack', (13, 15)]"
p265
I-1
sS"83['attack', (6, 5)]"
p266
I-101
sS"132['attack', (11, 17)]"
p267
I-1
sS"66['move', (13, 1)]"
p268
I-1
sS"159['attack', (14, 12)]"
p269
I-1
sS"256['attack', (6, 9)]"
p270
I-1
sS"336['attack', (11, 5)]"
p271
I-2
sS"216['attack', (15, 5)]"
p272
I-2
sS"366['attack', (10, 13)]"
p273
I-1
sS"442['attack', (14, 4)]"
p274
I-2
sS"336['move', (9, 18)]"
p275
I-1
sS"82['attack', (11, 2)]"
p276
I-1
sS"367['attack', (4, 15)]"
p277
I-1
sS"4['attack', (10, 16)]"
p278
I-1
sS"20['attack', (2, 6)]"
p279
I-1
sS"56['attack', (8, 0)]"
p280
I-2
sS"54['move', (12, 6)]"
p281
I-100
sS"320['attack', (16, 8)]"
p282
I-2
sS"33['attack', (10, 0)]"
p283
I-1
sS"98['attack', (3, 15)]"
p284
I-1
sS"258['attack', (14, 10)]"
p285
I-1
sS"65['attack', (4, 14)]"
p286
I-1
sS"105['attack', (14, 10)]"
p287
I-1
sS"269['attack', (8, 9)]"
p288
I-1
sS"456['attack', (10, 16)]"
p289
I-1
sS"35['attack', (5, 9)]"
p290
I-1
sS"261['attack', (17, 10)]"
p291
I-1
sS"1049062['attack', (12, 5)]"
p292
I-1
sS"282['attack', (11, 2)]"
p293
I-1
sS"269['attack', (14, 8)]"
p294
I-1
sS"374['attack', (5, 5)]"
p295
I-1
sS"216['attack', (5, 13)]"
p296
I-1
sS"257['attack', (10, 0)]"
p297
I-1
sS"268['attack', (3, 16)]"
p298
I-1
sS"70['move', (4, 16)]"
p299
I-1
sS"1048855['attack', (10, 4)]"
p300
I-1
sS"254['attack', (8, 5)]"
p301
I-1
sS"130['attack', (10, 2)]"
p302
I-2
sS"232['attack', (13, 14)]"
p303
I-1
sS"144['attack', (9, 2)]"
p304
I-1
sS"162['attack', (7, 15)]"
p305
I-1
sS"160['attack', (2, 9)]"
p306
I-1
sS"34['attack', (5, 14)]"
p307
I-1
sS"130['attack', (16, 7)]"
p308
I-1
sS"34['move', (6, 1)]"
p309
I-2
sS"116['move', (14, 16)]"
p310
I-2
sS"284['attack', (3, 12)]"
p311
I-1
sS"15['attack', (7, 6)]"
p312
I-1
sS"30['attack', (10, 3)]"
p313
I-1
sS"44['attack', (2, 11)]"
p314
I-1
sS"296['attack', (16, 6)]"
p315
I-1
sS"51['attack', (11, 9)]"
p316
I-1
sS"162['attack', (14, 15)]"
p317
I-1
sS"204['attack', (6, 8)]"
p318
I-1
sS"134['attack', (5, 17)]"
p319
I-1
sS"1048999['attack', (3, 15)]"
p320
I99
sS"84['attack', (12, 15)]"
p321
I-1
sS"208['attack', (10, 16)]"
p322
I-1
sS"6['attack', (9, 3)]"
p323
I-1
sS"53['attack', (1, 10)]"
p324
I-2
sS"156['attack', (16, 9)]"
p325
I-1
sS"5['attack', (14, 14)]"
p326
I-1
sS"117['move', (1, 11)]"
p327
I-100
sS"334['attack', (11, 5)]"
p328
I-1
sS"78['attack', (12, 17)]"
p329
I-1
sS"362['attack', (15, 10)]"
p330
I-1
sS"18['attack', (8, 3)]"
p331
I-2
sS"120['attack', (8, 5)]"
p332
I-1
sS"140['attack', (10, 2)]"
p333
I-1
sS"1['attack', (5, 1)]"
p334
I-1
sS"177['attack', (2, 7)]"
p335
I-1
sS"52['attack', (2, 10)]"
p336
I-1
sS"163['move', (11, 2)]"
p337
I-1
sS"207['attack', (16, 6)]"
p338
I-1
sS"49['attack', (2, 14)]"
p339
I-1
sS"233['attack', (4, 5)]"
p340
I-1
sS"188['attack', (13, 4)]"
p341
I-1
sS"1048839['attack', (16, 8)]"
p342
I-1
sS"304['attack', (8, 4)]"
p343
I-1
sS"660['attack', (15, 12)]"
p344
I-1
sS"8['attack', (9, 6)]"
p345
I-1
sS"324['attack', (9, 6)]"
p346
I-1
sS"28['attack', (14, 4)]"
p347
I-1
sS"33['attack', (5, 14)]"
p348
I-1
sS"216['attack', (7, 1)]"
p349
I-1
sS"215['attack', (8, 1)]"
p350
I-2
sS"28['attack', (17, 6)]"
p351
I-2
sS"260['attack', (2, 4)]"
p352
I-1
sS"354['move', (14, 14)]"
p353
I-1
sS"68['attack', (14, 13)]"
p354
I-1
sS"44['attack', (9, 18)]"
p355
I-1
sS"223['attack', (16, 9)]"
p356
I-1
sS"336['attack', (8, 3)]"
p357
I-1
sS"244['attack', (15, 11)]"
p358
I-1
sS"194['attack', (3, 6)]"
p359
I-1
sS"306['attack', (4, 16)]"
p360
I-1
sS"40['attack', (11, 2)]"
p361
I-1
sS"328['move', (17, 12)]"
p362
I-1
sS"152['attack', (2, 6)]"
p363
I-1
sS"199['attack', (13, 11)]"
p364
I-1
sS"328['attack', (10, 16)]"
p365
I-1
sS"68['attack', (3, 5)]"
p366
I-1
sS"68['move', (8, 18)]"
p367
I-1
sS"65['attack', (11, 14)]"
p368
I-1
sS"101['attack', (16, 8)]"
p369
I-2
sS"0['attack', (10, 18)]"
p370
I-1
sS"156['attack', (14, 13)]"
p371
I-1
sS"249['attack', (15, 6)]"
p372
I-2
sS"135['attack', (6, 15)]"
p373
I-1
sS"8['attack', (9, 17)]"
p374
I-2
sS"153['attack', (2, 3)]"
p375
I-1
sS"18['attack', (12, 15)]"
p376
I-1
sS"98['move', (7, 2)]"
p377
I-2
sS"340['attack', (9, 13)]"
p378
I-1
sS"130['attack', (4, 3)]"
p379
I-1
sS"256['attack', (13, 14)]"
p380
I-1
sS"76['attack', (3, 3)]"
p381
I-2
sS"248['attack', (14, 14)]"
p382
I-1
sS"261['attack', (15, 2)]"
p383
I-2
sS"37['attack', (11, 14)]"
p384
I-2
sS"238['move', (8, 17)]"
p385
I-1
sS"225['guard']"
p386
I-1
sS"1048607['attack', (14, 11)]"
p387
I-1
sS"49['attack', (7, 11)]"
p388
I-1
sS"0['attack', (5, 4)]"
p389
I-1
sS"20['attack', (2, 3)]"
p390
I-1
sS"97['attack', (12, 1)]"
p391
I-1
sS"289['move', (7, 2)]"
p392
I-100
sS"189['attack', (7, 2)]"
p393
I-1
sS"66['attack', (2, 7)]"
p394
I-1
sS"92['move', (4, 15)]"
p395
I-1
sS"149['attack', (6, 15)]"
p396
I-1
sS"259['attack', (11, 5)]"
p397
I-1
sS"51['attack', (13, 3)]"
p398
I-1
sS"270['move', (6, 17)]"
p399
I-1
sS"1048802['attack', (12, 15)]"
p400
I-1
sS"4['attack', (2, 4)]"
p401
I-1
sS"88['attack', (1, 11)]"
p402
I-1
sS"1048749['attack', (5, 14)]"
p403
I-1
sS"379['attack', (10, 16)]"
p404
I-1
sS"334['attack', (4, 14)]"
p405
I-1
sS"8['move', (2, 8)]"
p406
I-1
sS"31['attack', (13, 16)]"
p407
I-1
sS"437['attack', (14, 5)]"
p408
I-1
sS"4['move', (2, 11)]"
p409
I-1
sS"133['attack', (3, 7)]"
p410
I-1
sS"164['move', (12, 17)]"
p411
I-1
sS"154['attack', (15, 11)]"
p412
I-1
sS"157['attack', (14, 15)]"
p413
I-1
sS"166['attack', (8, 16)]"
p414
I-2
sS"153['attack', (12, 11)]"
p415
I-1
sS"9['attack', (6, 4)]"
p416
I-1
sS"138['move', (3, 2)]"
p417
I-1
sS"228['attack', (15, 14)]"
p418
I-1
sS"309['attack', (18, 10)]"
p419
I-101
sS"230['attack', (17, 11)]"
p420
I-1
sS"95['move', (18, 7)]"
p421
I-1
sS"40['attack', (16, 7)]"
p422
I-1
sS"52['attack', (7, 12)]"
p423
I-2
sS"267['attack', (14, 5)]"
p424
I-1
sS"74['move', (12, 1)]"
p425
I-1
sS"152['attack', (10, 9)]"
p426
I-1
sS"107['attack', (11, 8)]"
p427
I-1
sS"180['attack', (17, 13)]"
p428
I-1
sS"1048703['attack', (8, 1)]"
p429
I-1
sS"38['attack', (3, 8)]"
p430
I-1
sS"76['move', (9, 18)]"
p431
I-1
sS"1048791['attack', (3, 6)]"
p432
I-1
sS"82['attack', (16, 12)]"
p433
I-1
sS"88['attack', (1, 5)]"
p434
I-1
sS"1['attack', (13, 13)]"
p435
I-1
sS"4['attack', (11, 17)]"
p436
I-1
sS"66['attack', (10, 6)]"
p437
I-1
sS"53['attack', (2, 15)]"
p438
I-3
sS"345['attack', (14, 3)]"
p439
I-1
sS"17['move', (1, 5)]"
p440
I-1
sS"298['attack', (2, 11)]"
p441
I-2
sS"244['attack', (7, 10)]"
p442
I-1
sS"12['attack', (3, 5)]"
p443
I-1
sS"129['move', (9, 0)]"
p444
I-1
sS"182['attack', (3, 2)]"
p445
I-1
sS"329['attack', (17, 10)]"
p446
I-1
sS"288['move', (8, 0)]"
p447
I-1
sS"16['move', (17, 6)]"
p448
I-1
sS"313['attack', (10, 0)]"
p449
I-1
sS"5['attack', (16, 15)]"
p450
I-1
sS"208['attack', (3, 4)]"
p451
I-2
sS"2['move', (11, 0)]"
p452
I-2
sS"318['attack', (5, 11)]"
p453
I-2
sS"104['attack', (15, 11)]"
p454
I-1
sS"1049003['attack', (17, 10)]"
p455
I-1
sS"32['attack', (2, 9)]"
p456
I-1
sS"20['attack', (16, 9)]"
p457
I-1
sS"105['attack', (0, 7)]"
p458
I-1
sS"308['attack', (12, 13)]"
p459
I-1
sS"300['attack', (15, 11)]"
p460
I-1
sS"103['attack', (3, 9)]"
p461
I-1
sS"276['attack', (10, 2)]"
p462
I-2
sS"137['attack', (13, 12)]"
p463
I-1
sS"32['attack', (1, 10)]"
p464
I-1
sS"3['attack', (5, 12)]"
p465
I-1
sS"113['attack', (6, 4)]"
p466
I-1
sS"354['attack', (6, 6)]"
p467
I-1
sS"456['move', (7, 18)]"
p468
I-1
sS"210['attack', (9, 0)]"
p469
I-1
sS"26['attack', (8, 17)]"
p470
I-1
sS"210['attack', (11, 15)]"
p471
I-1
sS"194['move', (10, 18)]"
p472
I-2
sS"139['move', (4, 2)]"
p473
I-1
sS"129['attack', (14, 5)]"
p474
I-1
sS"39['attack', (5, 10)]"
p475
I-1
sS"131['attack', (5, 1)]"
p476
I-1
sS"281['attack', (3, 12)]"
p477
I-1
sS"203['attack', (4, 2)]"
p478
I-2
sS"98['attack', (5, 4)]"
p479
I-1
sS"209['attack', (8, 15)]"
p480
I-1
sS"77['attack', (15, 5)]"
p481
I-1
sS"262['attack', (6, 4)]"
p482
I-1
sS"113['move', (1, 13)]"
p483
I-1
sS"250['attack', (5, 16)]"
p484
I-1
sS"121['attack', (8, 2)]"
p485
I-1
sS"301['attack', (3, 13)]"
p486
I-1
sS"225['attack', (7, 14)]"
p487
I-1
sS"217['attack', (13, 5)]"
p488
I-1
sS"2['attack', (1, 7)]"
p489
I-2
sS"411['guard']"
p490
I-1
sS"19['attack', (15, 3)]"
p491
I-1
sS"203['attack', (2, 9)]"
p492
I-1
sS"80['attack', (7, 12)]"
p493
I-1
sS"268['move', (14, 3)]"
p494
I100
sS"1['attack', (11, 0)]"
p495
I-1
sS"128['move', (18, 9)]"
p496
I-1
sS"4['attack', (4, 14)]"
p497
I-1
sS"16['attack', (16, 11)]"
p498
I-1
sS"145['attack', (8, 14)]"
p499
I-1
sS"41['attack', (5, 14)]"
p500
I-1
sS"94['attack', (11, 15)]"
p501
I-1
sS"282['attack', (10, 3)]"
p502
I-1
sS"278['attack', (3, 2)]"
p503
I-1
sS"42['attack', (14, 7)]"
p504
I-1
sS"41['move', (2, 14)]"
p505
I-1
sS"228['attack', (4, 16)]"
p506
I-1
sS"136['attack', (16, 9)]"
p507
I-1
sS"0['attack', (14, 4)]"
p508
I-1
sS"13['move', (18, 11)]"
p509
I-1
sS"209['attack', (2, 11)]"
p510
I-1
sS"77['attack', (3, 8)]"
p511
I-1
sS"26['attack', (9, 17)]"
p512
I-1
sS"8['attack', (10, 18)]"
p513
I-1
sS"8['attack', (5, 14)]"
p514
I-1
sS"23['attack', (8, 1)]"
p515
I-1
sS"199['attack', (3, 9)]"
p516
I-1
sS"75['attack', (4, 10)]"
p517
I-1
sS"1048691['attack', (13, 14)]"
p518
I-2
sS"227['attack', (15, 3)]"
p519
I-1
sS"93['guard']"
p520
I-100
sS"280['attack', (10, 1)]"
p521
I-1
sS"42['move', (5, 1)]"
p522
I-1
sS"50['attack', (3, 12)]"
p523
I-1
sS"82['attack', (4, 11)]"
p524
I-1
sS"144['move', (12, 17)]"
p525
I-1
sS"128['attack', (15, 12)]"
p526
I-1
sS"34['move', (7, 18)]"
p527
I-1
sS"8['attack', (17, 10)]"
p528
I-1
sS"224['move', (9, 16)]"
p529
I-1
sS"48['attack', (11, 16)]"
p530
I-1
sS"73['attack', (2, 8)]"
p531
I-2
sS"88['attack', (5, 5)]"
p532
I-1
sS"96['attack', (9, 5)]"
p533
I-1
sS"21['attack', (11, 6)]"
p534
I-1
sS"300['attack', (9, 13)]"
p535
I-1
sS"89['move', (2, 7)]"
p536
I-1
sS"98['attack', (14, 6)]"
p537
I-1
sS"321['attack', (6, 12)]"
p538
I-1
sS"109['attack', (3, 5)]"
p539
I-1
sS"1048835['attack', (14, 13)]"
p540
I-1
sS"179['move', (8, 2)]"
p541
I-1
sS"144['attack', (13, 5)]"
p542
I-1
sS"222['attack', (9, 3)]"
p543
I-1
sS"192['move', (7, 16)]"
p544
I-1
sS"322['attack', (7, 16)]"
p545
I-1
sS"109['attack', (5, 14)]"
p546
I-1
sS"460['attack', (14, 6)]"
p547
I-1
sS"1048635['attack', (11, 7)]"
p548
I-1
sS"161['attack', (9, 0)]"
p549
I-1
sS"1048839['attack', (8, 4)]"
p550
I-1
sS"109['attack', (3, 16)]"
p551
I-1
sS"320['attack', (4, 5)]"
p552
I-1
sS"182['move', (2, 3)]"
p553
I-2
sS"459['attack', (8, 10)]"
p554
I-1
sS"190['attack', (9, 4)]"
p555
I-1
sS"74['attack', (2, 9)]"
p556
I-1
sS"214['attack', (10, 13)]"
p557
I-1
sS"381['attack', (5, 4)]"
p558
I-1
sS"83['attack', (6, 2)]"
p559
I-1
sS"105['move', (1, 13)]"
p560
I-1
sS"151['attack', (11, 2)]"
p561
I-1
sS"138['attack', (3, 10)]"
p562
I-1
sS"524['attack', (14, 13)]"
p563
I-1
sS"328['attack', (15, 15)]"
p564
I-1
sS"198['attack', (4, 2)]"
p565
I-101
sS"244['attack', (5, 11)]"
p566
I-1
sS"52['attack', (15, 15)]"
p567
I-1
sS"64['attack', (14, 12)]"
p568
I-1
sS"101['move', (14, 2)]"
p569
I-1
sS"268['attack', (3, 2)]"
p570
I-1
sS"554['attack', (8, 2)]"
p571
I-1
sS"421['attack', (10, 3)]"
p572
I-1
sS"211['attack', (15, 10)]"
p573
I-1
sS"20['attack', (13, 4)]"
p574
I-1
sS"26['guard']"
p575
I-1
sS"211['attack', (9, 0)]"
p576
I-1
sS"209['move', (3, 6)]"
p577
I-100
sS"122['attack', (9, 4)]"
p578
I-1
sS"128['attack', (10, 1)]"
p579
I-1
sS"88['attack', (11, 17)]"
p580
I-1
sS"1048862['move', (17, 13)]"
p581
I-1
sS"212['attack', (11, 17)]"
p582
I-1
sS"90['attack', (5, 5)]"
p583
I-2
sS"26['attack', (5, 11)]"
p584
I-1
sS"240['attack', (16, 7)]"
p585
I-1
sS"110['attack', (16, 8)]"
p586
I-1
sS"14['move', (8, 17)]"
p587
I-1
sS"451['attack', (11, 8)]"
p588
I-1
sS"2['attack', (12, 17)]"
p589
I-1
sS"180['attack', (14, 13)]"
p590
I-1
sS"209['attack', (11, 16)]"
p591
I-1
sS"4['attack', (16, 11)]"
p592
I-2
sS"10['attack', (11, 9)]"
p593
I-1
sS"172['attack', (10, 8)]"
p594
I-1
sS"262['guard']"
p595
I-100
sS"8['attack', (17, 7)]"
p596
I-1
sS"70['attack', (3, 3)]"
p597
I-1
sS"413['attack', (3, 11)]"
p598
I-1
sS"145['attack', (16, 9)]"
p599
I-1
sS"225['attack', (13, 14)]"
p600
I-1
sS"212['attack', (17, 5)]"
p601
I-1
sS"314['attack', (8, 15)]"
p602
I-1
sS"550['move', (12, 17)]"
p603
I-1
sS"363['attack', (15, 12)]"
p604
I-2
sS"140['attack', (14, 7)]"
p605
I-1
sS"45['attack', (3, 13)]"
p606
I-101
sS"77['attack', (16, 9)]"
p607
I-1
sS"19['attack', (16, 4)]"
p608
I-1
sS"37['attack', (6, 10)]"
p609
I-1
sS"206['attack', (5, 5)]"
p610
I-1
sS"26['attack', (5, 13)]"
p611
I-1
sS"213['attack', (14, 4)]"
p612
I-1
sS"73['attack', (16, 10)]"
p613
I-1
sS"171['attack', (10, 16)]"
p614
I-1
sS"76['attack', (8, 16)]"
p615
I-1
sS"183['attack', (5, 11)]"
p616
I-1
sS"172['attack', (15, 14)]"
p617
I-1
sS"82['move', (1, 12)]"
p618
I-1
sS"216['move', (8, 1)]"
p619
I-1
sS"0['move', (2, 4)]"
p620
I-2
sS"1048714['attack', (8, 16)]"
p621
I-1
sS"48['move', (16, 6)]"
p622
I-1
sS"178['attack', (10, 3)]"
p623
I-101
sS"204['attack', (18, 10)]"
p624
I-1
sS"149['attack', (16, 13)]"
p625
I-3
sS"152['attack', (12, 7)]"
p626
I-1
sS"24['attack', (15, 12)]"
p627
I-1
sS"161['attack', (2, 3)]"
p628
I-1
sS"35['move', (2, 14)]"
p629
I-2
sS"105['attack', (13, 12)]"
p630
I-1
sS"12['attack', (2, 14)]"
p631
I-1
sS"409['attack', (10, 10)]"
p632
I-1
sS"148['move', (9, 0)]"
p633
I-1
sS"78['attack', (0, 7)]"
p634
I-1
sS"282['attack', (6, 3)]"
p635
I-1
sS"117['attack', (2, 15)]"
p636
I-1
sS"224['attack', (5, 3)]"
p637
I-1
sS"1048684['attack', (11, 3)]"
p638
I-1
sS"151['attack', (16, 6)]"
p639
I-1
sS"174['attack', (15, 9)]"
p640
I-1
sS"70['attack', (6, 5)]"
p641
I-1
sS"233['attack', (10, 8)]"
p642
I-1
sS"94['attack', (16, 10)]"
p643
I-1
sS"207['attack', (2, 12)]"
p644
I-1
sS"212['attack', (2, 8)]"
p645
I-1
sS"241['attack', (6, 2)]"
p646
I-1
sS"168['attack', (8, 2)]"
p647
I-1
sS"81['attack', (7, 13)]"
p648
I-1
sS"419['attack', (10, 9)]"
p649
I-1
sS"419['attack', (9, 9)]"
p650
I-1
sS"348['attack', (15, 7)]"
p651
I-1
sS"1048676['attack', (11, 10)]"
p652
I-1
sS"23['move', (11, 2)]"
p653
I99
sS"294['attack', (16, 14)]"
p654
I-1
sS"227['attack', (3, 14)]"
p655
I-1
sS"222['move', (15, 16)]"
p656
I-1
sS"32['attack', (14, 14)]"
p657
I-1
sS"148['move', (4, 2)]"
p658
I-1
sS"26['attack', (7, 13)]"
p659
I-1
sS"217['attack', (6, 12)]"
p660
I-1
sS"2['move', (0, 8)]"
p661
I-2
sS"348['attack', (17, 12)]"
p662
I-1
sS"100['attack', (0, 10)]"
p663
I-1
sS"309['attack', (14, 8)]"
p664
I-1
sS"256['attack', (10, 2)]"
p665
I-1
sS"435['attack', (16, 3)]"
p666
I-1
sS"200['attack', (10, 16)]"
p667
I-2
sS"224['move', (4, 16)]"
p668
I-1
sS"104['attack', (3, 12)]"
p669
I-1
sS"18['attack', (3, 12)]"
p670
I-1
sS"84['attack', (7, 3)]"
p671
I-1
sS"86['attack', (16, 8)]"
p672
I-1
sS"64['attack', (12, 5)]"
p673
I-1
sS"54['attack', (1, 5)]"
p674
I-1
sS"65['attack', (0, 7)]"
p675
I-1
sS"198['attack', (13, 2)]"
p676
I-1
sS"1['attack', (9, 8)]"
p677
I-1
sS"65['attack', (8, 15)]"
p678
I-1
sS"1048611['attack', (4, 6)]"
p679
I-1
sS"55['move', (0, 10)]"
p680
I-1
sS"1048818['attack', (7, 12)]"
p681
I-1
sS"42['attack', (2, 13)]"
p682
I-1
sS"195['attack', (6, 5)]"
p683
I-1
sS"1049068['attack', (14, 12)]"
p684
I-1
sS"206['attack', (15, 10)]"
p685
I-1
sS"1049040['attack', (7, 13)]"
p686
I-1
sS"329['attack', (1, 5)]"
p687
I-1
sS"196['attack', (15, 4)]"
p688
I-1
sS"134['attack', (4, 16)]"
p689
I-1
sS"194['move', (6, 17)]"
p690
I-1
sS"148['move', (17, 12)]"
p691
I-1
sS"76['attack', (4, 13)]"
p692
I-1
sS"96['attack', (0, 10)]"
p693
I-1
sS"113['attack', (4, 2)]"
p694
I-1
sS"118['move', (15, 16)]"
p695
I-1
sS"1048777['attack', (15, 4)]"
p696
I-1
sS"1048720['attack', (13, 13)]"
p697
I-1
sS"32['attack', (14, 12)]"
p698
I-1
sS"129['attack', (16, 9)]"
p699
I-2
sS"208['move', (9, 18)]"
p700
I-1
sS"174['attack', (9, 0)]"
p701
I-1
sS"268['attack', (14, 3)]"
p702
I-1
sS"228['attack', (4, 5)]"
p703
I-1
sS"200['move', (9, 18)]"
p704
I-1
sS"116['attack', (3, 12)]"
p705
I-1
sS"58['attack', (9, 4)]"
p706
I-1
sS"1048738['attack', (9, 15)]"
p707
I-1
sS"6['move', (6, 17)]"
p708
I-1
sS"215['attack', (12, 8)]"
p709
I-1
sS"231['attack', (6, 9)]"
p710
I-1
sS"143['move', (7, 0)]"
p711
I-1
sS"192['attack', (13, 2)]"
p712
I-1
sS"202['attack', (2, 4)]"
p713
I-1
sS"181['attack', (4, 2)]"
p714
I-1
sS"264['attack', (8, 18)]"
p715
I-1
sS"0['attack', (10, 17)]"
p716
I-1
sS"109['attack', (17, 8)]"
p717
I-1
sS"120['attack', (7, 1)]"
p718
I-1
sS"1048744['attack', (13, 12)]"
p719
I-1
sS"20['attack', (7, 15)]"
p720
I-1
sS"406['move', (6, 17)]"
p721
I-1
sS"161['attack', (6, 2)]"
p722
I-1
sS"101['attack', (13, 1)]"
p723
I-1
sS"18['attack', (13, 12)]"
p724
I-1
sS"133['attack', (16, 5)]"
p725
I-1
sS"277['attack', (16, 14)]"
p726
I-1
sS"70['attack', (10, 5)]"
p727
I-1
sS"110['attack', (10, 4)]"
p728
I-1
sS"108['attack', (8, 10)]"
p729
I-1
sS"74['attack', (3, 3)]"
p730
I-1
sS"64['attack', (16, 8)]"
p731
I-2
sS"290['attack', (5, 6)]"
p732
I-1
sS"263['attack', (10, 4)]"
p733
I-1
sS"38['attack', (2, 11)]"
p734
I-1
sS"154['move', (6, 1)]"
p735
I-2
sS"160['attack', (17, 6)]"
p736
I-1
sS"60['attack', (3, 13)]"
p737
I-1
sS"302['attack', (5, 7)]"
p738
I-1
sS"282['move', (3, 2)]"
p739
I-1
sS"37['move', (0, 9)]"
p740
I-2
sS"113['attack', (17, 6)]"
p741
I-1
sS"140['attack', (9, 17)]"
p742
I-1
sS"159['attack', (16, 8)]"
p743
I-1
sS"1048703['attack', (8, 15)]"
p744
I-1
sS"19['move', (14, 16)]"
p745
I-2
sS"76['attack', (13, 14)]"
p746
I-1
sS"263['attack', (8, 3)]"
p747
I-1
sS"18['attack', (15, 12)]"
p748
I-1
sS"279['attack', (15, 4)]"
p749
I-2
sS"100['attack', (5, 5)]"
p750
I-1
sS"85['attack', (2, 3)]"
p751
I-2
sS"153['attack', (3, 4)]"
p752
I-1
sS"231['attack', (11, 4)]"
p753
I-1
sS"25['attack', (6, 15)]"
p754
I-1
sS"314['attack', (16, 11)]"
p755
I-1
sS"169['attack', (8, 1)]"
p756
I-1
sS"59['attack', (1, 12)]"
p757
I-1
sS"142['attack', (16, 4)]"
p758
I-1
sS"275['move', (5, 1)]"
p759
I-1
sS"170['attack', (15, 11)]"
p760
I-2
sS"138['attack', (9, 4)]"
p761
I-1
sS"290['attack', (5, 4)]"
p762
I-1
sS"352['attack', (5, 13)]"
p763
I-1
sS"218['attack', (10, 10)]"
p764
I-1
sS"91['attack', (1, 8)]"
p765
I-1
sS"88['attack', (11, 3)]"
p766
I-1
sS"130['attack', (7, 15)]"
p767
I-1
sS"128['attack', (9, 5)]"
p768
I-1
sS"8['attack', (13, 5)]"
p769
I-1
sS"217['attack', (13, 12)]"
p770
I-1
sS"167['attack', (6, 14)]"
p771
I-1
sS"381['attack', (9, 3)]"
p772
I-1
sS"157['attack', (12, 16)]"
p773
I-1
sS"46['attack', (8, 17)]"
p774
I-1
sS"24['attack', (14, 7)]"
p775
I-101
sS"267['attack', (10, 4)]"
p776
I-1
sS"44['attack', (9, 17)]"
p777
I-2
sS"199['attack', (14, 4)]"
p778
I-1
sS"18['attack', (8, 12)]"
p779
I-1
sS"82['attack', (14, 16)]"
p780
I-1
sS"93['attack', (3, 12)]"
p781
I-1
sS"214['attack', (13, 17)]"
p782
I-1
sS"176['attack', (12, 4)]"
p783
I-1
sS"104['attack', (12, 5)]"
p784
I-1
sS"221['attack', (15, 6)]"
p785
I-2
sS"66['attack', (7, 2)]"
p786
I-1
sS"212['attack', (17, 10)]"
p787
I-2
sS"107['move', (9, 15)]"
p788
I-100
sS"486['attack', (3, 13)]"
p789
I-1
sS"47['attack', (0, 7)]"
p790
I-1
sS"1048638['attack', (13, 9)]"
p791
I-1
sS"14['attack', (12, 7)]"
p792
I-1
sS"209['attack', (10, 15)]"
p793
I-1
sS"230['attack', (4, 11)]"
p794
I-1
sS"323['attack', (14, 13)]"
p795
I-1
sS"81['attack', (4, 2)]"
p796
I-1
sS"451['attack', (14, 13)]"
p797
I-1
sS"108['attack', (5, 15)]"
p798
I-1
sS"104['attack', (2, 11)]"
p799
I-1
sS"482['attack', (12, 14)]"
p800
I-1
sS"1048808['attack', (12, 4)]"
p801
I-1
sS"26['attack', (13, 4)]"
p802
I-1
sS"296['attack', (8, 16)]"
p803
I-1
sS"106['attack', (16, 5)]"
p804
I-1
sS"331['attack', (10, 9)]"
p805
I-102
sS"185['attack', (13, 9)]"
p806
I-1
sS"228['attack', (5, 14)]"
p807
I-1
sS"114['move', (16, 14)]"
p808
I-1
sS"1048730['attack', (10, 16)]"
p809
I-1
sS"98['attack', (15, 5)]"
p810
I-1
sS"106['attack', (15, 7)]"
p811
I-1
sS"171['attack', (16, 7)]"
p812
I-1
sS"84['attack', (2, 14)]"
p813
I-1
sS"21['attack', (17, 6)]"
p814
I-2
sS"102['attack', (6, 17)]"
p815
I-1
sS"164['attack', (15, 9)]"
p816
I-1
sS"1048680['attack', (8, 3)]"
p817
I-1
sS"36['attack', (11, 14)]"
p818
I-1
sS"134['attack', (6, 5)]"
p819
I-1
sS"34['attack', (2, 7)]"
p820
I-2
sS"58['attack', (8, 2)]"
p821
I-1
sS"338['attack', (14, 3)]"
p822
I-1
sS"83['attack', (8, 16)]"
p823
I-1
sS"139['attack', (4, 14)]"
p824
I-1
sS"145['move', (18, 7)]"
p825
I-1
sS"96['attack', (3, 4)]"
p826
I-1
sS"49['attack', (3, 7)]"
p827
I-1
sS"200['attack', (11, 16)]"
p828
I-1
sS"228['attack', (12, 15)]"
p829
I-1
sS"83['attack', (2, 10)]"
p830
I-2
sS"166['attack', (12, 15)]"
p831
I-1
sS"227['attack', (2, 14)]"
p832
I-1
sS"72['attack', (16, 11)]"
p833
I-2
sS"205['attack', (6, 13)]"
p834
I-1
sS"270['attack', (11, 5)]"
p835
I-1
sS"97['attack', (6, 2)]"
p836
I-1
sS"244['attack', (4, 8)]"
p837
I-1
sS"96['move', (10, 18)]"
p838
I-1
sS"215['attack', (13, 15)]"
p839
I-1
sS"26['attack', (10, 1)]"
p840
I-1
sS"553['attack', (10, 8)]"
p841
I-1
sS"389['attack', (5, 9)]"
p842
I-1
sS"224['attack', (12, 3)]"
p843
I-1
sS"128['move', (5, 17)]"
p844
I-1
sS"459['attack', (10, 10)]"
p845
I-1
sS"73['attack', (10, 8)]"
p846
I-101
sS"435['attack', (15, 8)]"
p847
I-1
sS"66['attack', (10, 17)]"
p848
I-2
sS"218['move', (13, 17)]"
p849
I-1
sS"424['attack', (9, 8)]"
p850
I-1
sS"190['attack', (7, 13)]"
p851
I-1
sS"264['attack', (6, 16)]"
p852
I-2
sS"224['attack', (14, 7)]"
p853
I-1
sS"199['attack', (6, 15)]"
p854
I-1
sS"266['move', (18, 8)]"
p855
I-1
sS"181['move', (6, 1)]"
p856
I-1
sS"1048673['attack', (16, 10)]"
p857
I-1
sS"199['attack', (4, 11)]"
p858
I-1
sS"50['attack', (15, 12)]"
p859
I-1
sS"60['attack', (16, 13)]"
p860
I-1
sS"218['attack', (3, 13)]"
p861
I-1
sS"519['attack', (5, 13)]"
p862
I-1
sS"1048817['attack', (13, 5)]"
p863
I-1
sS"80['attack', (12, 1)]"
p864
I-1
sS"453['move', (9, 0)]"
p865
I-2
sS"137['attack', (4, 8)]"
p866
I-1
sS"53['attack', (17, 7)]"
p867
I-1
sS"281['attack', (17, 7)]"
p868
I-1
sS"83['attack', (4, 11)]"
p869
I-1
sS"131['attack', (10, 1)]"
p870
I-1
sS"164['attack', (10, 16)]"
p871
I-1
sS"93['attack', (2, 7)]"
p872
I-1
sS"61['attack', (16, 5)]"
p873
I-1
sS"24['attack', (11, 0)]"
p874
I-2
sS"258['attack', (15, 16)]"
p875
I-1
sS"290['move', (16, 3)]"
p876
I-1
sS"13['attack', (5, 16)]"
p877
I-1
sS"359['attack', (15, 13)]"
p878
I-1
sS"6['move', (17, 12)]"
p879
I-1
sS"110['attack', (8, 17)]"
p880
I-1
sS"442['attack', (15, 5)]"
p881
I-1
sS"253['attack', (13, 6)]"
p882
I-1
sS"113['attack', (8, 6)]"
p883
I-1
sS"147['attack', (2, 10)]"
p884
I-1
sS"1048628['move', (17, 12)]"
p885
I-2
sS"212['attack', (9, 12)]"
p886
I-1
sS"158['attack', (1, 7)]"
p887
I-1
sS"147['attack', (16, 11)]"
p888
I-1
sS"292['attack', (15, 12)]"
p889
I-1
sS"153['attack', (15, 11)]"
p890
I-1
sS"208['attack', (16, 12)]"
p891
I-1
sS"21['attack', (1, 12)]"
p892
I-1
sS"144['attack', (4, 4)]"
p893
I-1
sS"197['attack', (11, 3)]"
p894
I-1
sS"156['attack', (12, 3)]"
p895
I-1
sS"261['attack', (14, 5)]"
p896
I-1
sS"132['guard']"
p897
I-2
sS"115['attack', (7, 2)]"
p898
I-1
sS"308['move', (12, 17)]"
p899
I-1
sS"1048746['attack', (14, 13)]"
p900
I-1
sS"118['attack', (12, 5)]"
p901
I-1
sS"416['attack', (17, 11)]"
p902
I-1
sS"226['attack', (5, 17)]"
p903
I-1
sS"216['attack', (16, 10)]"
p904
I-2
sS"146['attack', (12, 13)]"
p905
I99
sS"57['attack', (14, 15)]"
p906
I-1
sS"22['move', (0, 11)]"
p907
I-1
sS"329['attack', (6, 14)]"
p908
I-1
sS"299['attack', (12, 7)]"
p909
I-2
sS"440['move', (6, 17)]"
p910
I-1
sS"283['move', (16, 3)]"
p911
I-1
sS"117['attack', (10, 15)]"
p912
I-1
sS"276['attack', (2, 14)]"
p913
I-1
sS"1048965['attack', (15, 10)]"
p914
I-100
sS"58['attack', (7, 1)]"
p915
I-2
sS"140['attack', (13, 8)]"
p916
I-1
sS"34['attack', (10, 15)]"
p917
I-1
sS"395['attack', (6, 13)]"
p918
I-1
sS"153['attack', (7, 1)]"
p919
I-1
sS"0['attack', (13, 3)]"
p920
I-1
sS"114['attack', (13, 11)]"
p921
I-1
sS"64['attack', (14, 13)]"
p922
I-1
sS"1048749['attack', (9, 3)]"
p923
I-1
sS"304['move', (18, 10)]"
p924
I-1
sS"7['attack', (16, 4)]"
p925
I-1
sS"1048726['attack', (1, 8)]"
p926
I-1
sS"26['attack', (10, 14)]"
p927
I-1
sS"162['attack', (10, 7)]"
p928
I-1
sS"1048602['attack', (14, 11)]"
p929
I-1
sS"130['move', (17, 13)]"
p930
I-1
sS"404['attack', (4, 12)]"
p931
I-1
sS"201['attack', (14, 10)]"
p932
I-1
sS"88['attack', (13, 4)]"
p933
I-1
sS"120['attack', (1, 8)]"
p934
I-1
sS"141['attack', (2, 7)]"
p935
I-2
sS"300['attack', (8, 12)]"
p936
I-1
sS"284['move', (6, 1)]"
p937
I-101
sS"170['attack', (5, 16)]"
p938
I-1
sS"260['attack', (14, 2)]"
p939
I-1
sS"77['attack', (3, 5)]"
p940
I-1
sS"130['move', (2, 14)]"
p941
I-1
sS"174['attack', (4, 4)]"
p942
I-1
sS"216['attack', (9, 1)]"
p943
I-1
sS"34['attack', (8, 14)]"
p944
I-1
sS"1['attack', (17, 11)]"
p945
I-1
sS"70['move', (13, 3)]"
p946
I-1
sS"160['attack', (10, 3)]"
p947
I-1
sS"1048781['attack', (14, 5)]"
p948
I-1
sS"0['move', (17, 13)]"
p949
I-2
sS"449['attack', (6, 11)]"
p950
I-1
sS"108['move', (6, 17)]"
p951
I-1
sS"300['attack', (7, 11)]"
p952
I-1
sS"44['attack', (5, 13)]"
p953
I-1
sS"353['attack', (4, 7)]"
p954
I99
sS"309['attack', (17, 11)]"
p955
I-1
sS"150['attack', (8, 16)]"
p956
I-1
sS"165['attack', (13, 14)]"
p957
I-1
sS"200['attack', (16, 12)]"
p958
I-2
sS"109['attack', (10, 4)]"
p959
I-1
sS"0['attack', (7, 4)]"
p960
I-2
sS"5['attack', (9, 4)]"
p961
I-1
sS"161['attack', (10, 15)]"
p962
I-1
sS"167['move', (3, 3)]"
p963
I-1
sS"88['attack', (12, 2)]"
p964
I-1
sS"24['attack', (8, 2)]"
p965
I-1
sS"282['move', (6, 1)]"
p966
I-1
sS"299['attack', (1, 6)]"
p967
I-1
sS"213['attack', (7, 13)]"
p968
I-1
sS"144['move', (16, 15)]"
p969
I-1
sS"358['move', (4, 16)]"
p970
I-1
sS"196['move', (16, 15)]"
p971
I-1
sS"1048758['attack', (7, 14)]"
p972
I-1
sS"1048799['attack', (14, 13)]"
p973
I-1
sS"26['attack', (11, 8)]"
p974
I-1
sS"230['attack', (16, 12)]"
p975
I-1
sS"157['attack', (3, 11)]"
p976
I-101
sS"103['attack', (15, 3)]"
p977
I-1
sS"249['attack', (11, 12)]"
p978
I-1
sS"138['move', (10, 0)]"
p979
I-1
sS"192['attack', (10, 12)]"
p980
I-1
sS"89['attack', (3, 16)]"
p981
I-1
sS"141['attack', (8, 0)]"
p982
I-1
sS"312['attack', (2, 6)]"
p983
I-1
sS"478['attack', (14, 5)]"
p984
I-1
sS"17['move', (5, 16)]"
p985
I-1
sS"30['attack', (7, 1)]"
p986
I-1
sS"174['attack', (9, 17)]"
p987
I-1
sS"173['attack', (7, 7)]"
p988
I-1
sS"166['attack', (5, 4)]"
p989
I-1
sS"354['attack', (3, 10)]"
p990
I-1
sS"330['attack', (9, 16)]"
p991
I-1
sS"140['attack', (5, 4)]"
p992
I-1
sS"182['attack', (13, 6)]"
p993
I-1
sS"62['attack', (13, 3)]"
p994
I-1
sS"238['attack', (5, 12)]"
p995
I-1
sS"293['attack', (11, 10)]"
p996
I-1
sS"85['attack', (11, 4)]"
p997
I-1
sS"12['attack', (3, 11)]"
p998
I-1
sS"42['attack', (2, 10)]"
p999
I-1
sS"217['move', (17, 6)]"
p1000
I-1
sS"336['attack', (7, 16)]"
p1001
I-1
sS"27['attack', (7, 14)]"
p1002
I-1
sS"244['attack', (14, 8)]"
p1003
I-1
sS"136['attack', (16, 7)]"
p1004
I-1
sS"154['attack', (6, 5)]"
p1005
I-1
sS"339['attack', (15, 5)]"
p1006
I-1
sS"62['attack', (6, 3)]"
p1007
I-1
sS"91['attack', (15, 15)]"
p1008
I-1
sS"201['attack', (9, 2)]"
p1009
I-1
sS"2['attack', (6, 5)]"
p1010
I-1
sS"86['attack', (8, 13)]"
p1011
I-1
sS"49['attack', (12, 15)]"
p1012
I-1
sS"238['attack', (5, 3)]"
p1013
I-1
sS"360['attack', (2, 12)]"
p1014
I-1
sS"8['attack', (7, 5)]"
p1015
I-1
sS"152['attack', (1, 10)]"
p1016
I-1
sS"129['attack', (5, 15)]"
p1017
I-1
sS"351['attack', (17, 11)]"
p1018
I-1
sS"561['guard']"
p1019
I-100
sS"442['attack', (14, 6)]"
p1020
I-1
sS"191['move', (6, 17)]"
p1021
I-2
sS"104['attack', (16, 7)]"
p1022
I-2
sS"129['attack', (18, 10)]"
p1023
I-2
sS"156['attack', (15, 12)]"
p1024
I-1
sS"85['attack', (18, 10)]"
p1025
I-2
sS"149['attack', (10, 3)]"
p1026
I-1
sS"348['attack', (16, 11)]"
p1027
I-1
sS"100['attack', (4, 5)]"
p1028
I-1
sS"134['attack', (6, 3)]"
p1029
I-1
sS"187['move', (16, 14)]"
p1030
I-1
sS"54['attack', (12, 16)]"
p1031
I-1
sS"8['move', (0, 9)]"
p1032
I-1
sS"13['attack', (4, 12)]"
p1033
I-1
sS"66['attack', (16, 4)]"
p1034
I-1
sS"193['attack', (12, 8)]"
p1035
I-1
sS"229['attack', (4, 10)]"
p1036
I-101
sS"214['attack', (8, 3)]"
p1037
I-1
sS"72['attack', (8, 2)]"
p1038
I-1
sS"30['attack', (4, 15)]"
p1039
I-1
sS"149['attack', (17, 9)]"
p1040
I-1
sS"24['attack', (9, 6)]"
p1041
I-1
sS"26['attack', (6, 2)]"
p1042
I-1
sS"212['attack', (7, 2)]"
p1043
I-1
sS"88['attack', (1, 8)]"
p1044
I-1
sS"233['attack', (12, 6)]"
p1045
I-1
sS"19['attack', (17, 11)]"
p1046
I-1
sS"247['attack', (4, 3)]"
p1047
I-1
sS"193['attack', (2, 10)]"
p1048
I-1
sS"74['attack', (17, 11)]"
p1049
I-1
sS"388['attack', (7, 16)]"
p1050
I-1
sS"8['attack', (15, 5)]"
p1051
I-1
sS"414['attack', (14, 3)]"
p1052
I-1
sS"289['attack', (2, 9)]"
p1053
I-1
sS"280['attack', (5, 15)]"
p1054
I-1
sS"149['move', (0, 9)]"
p1055
I-1
sS"68['attack', (6, 17)]"
p1056
I-1
sS"1048842['attack', (9, 14)]"
p1057
I-1
sS"8['attack', (5, 4)]"
p1058
I-2
sS"140['attack', (7, 16)]"
p1059
I-1
sS"134['attack', (1, 11)]"
p1060
I-1
sS"92['attack', (15, 4)]"
p1061
I-1
sS"56['move', (6, 17)]"
p1062
I-101
sS"128['attack', (9, 13)]"
p1063
I-1
sS"160['move', (10, 17)]"
p1064
I-1
sS"100['attack', (4, 7)]"
p1065
I-1
sS"209['attack', (16, 10)]"
p1066
I-101
sS"128['move', (10, 18)]"
p1067
I-2
sS"121['attack', (14, 7)]"
p1068
I-101
sS"115['attack', (5, 2)]"
p1069
I-1
sS"204['attack', (16, 14)]"
p1070
I-1
sS"26['attack', (3, 12)]"
p1071
I-2
sS"318['attack', (14, 10)]"
p1072
I-1
sS"20['attack', (15, 14)]"
p1073
I-1
sS"174['attack', (15, 11)]"
p1074
I-1
sS"36['attack', (2, 7)]"
p1075
I-1
sS"128['attack', (14, 5)]"
p1076
I-1
sS"221['attack', (4, 14)]"
p1077
I-1
sS"216['guard']"
p1078
I-1
sS"648['attack', (7, 15)]"
p1079
I-1
sS"228['attack', (17, 10)]"
p1080
I-1
sS"130['move', (3, 16)]"
p1081
I-2
sS"176['move', (5, 17)]"
p1082
I-1
sS"131['attack', (11, 3)]"
p1083
I-1
sS"21['move', (1, 8)]"
p1084
I-1
sS"316['attack', (3, 9)]"
p1085
I-1
sS"72['attack', (2, 7)]"
p1086
I-1
sS"49['attack', (6, 3)]"
p1087
I-1
sS"134['attack', (1, 9)]"
p1088
I-1
sS"44['move', (14, 16)]"
p1089
I-1
sS"332['attack', (15, 11)]"
p1090
I-1
sS"22['attack', (2, 12)]"
p1091
I-2
sS"151['attack', (3, 11)]"
p1092
I-101
sS"224['move', (15, 2)]"
p1093
I-1
sS"57['move', (2, 10)]"
p1094
I-100
sS"128['attack', (16, 9)]"
p1095
I-1
sS"148['attack', (16, 9)]"
p1096
I-1
sS"19['attack', (5, 2)]"
p1097
I-1
sS"1048772['attack', (14, 10)]"
p1098
I-1
sS"47['attack', (3, 13)]"
p1099
I-1
sS"156['attack', (9, 15)]"
p1100
I-1
sS"198['move', (8, 18)]"
p1101
I-1
sS"5['move', (3, 15)]"
p1102
I-1
sS"132['attack', (9, 16)]"
p1103
I-2
sS"34['attack', (1, 13)]"
p1104
I-1
sS"0['move', (3, 16)]"
p1105
I-1
sS"147['move', (12, 14)]"
p1106
I-100
sS"297['attack', (3, 3)]"
p1107
I-1
sS"150['attack', (5, 4)]"
p1108
I-1
sS"224['attack', (7, 17)]"
p1109
I-1
sS"218['attack', (6, 17)]"
p1110
I-1
sS"146['attack', (4, 2)]"
p1111
I-2
sS"346['attack', (10, 9)]"
p1112
I-1
sS"2['attack', (7, 16)]"
p1113
I-1
sS"13['attack', (4, 14)]"
p1114
I-2
sS"274['attack', (12, 4)]"
p1115
I-1
sS"188['attack', (9, 2)]"
p1116
I-1
sS"74['attack', (6, 17)]"
p1117
I-1
sS"188['attack', (6, 6)]"
p1118
I-1
sS"24['attack', (7, 11)]"
p1119
I-1
sS"12['attack', (2, 8)]"
p1120
I-1
sS"224['attack', (16, 9)]"
p1121
I-1
sS"77['attack', (7, 2)]"
p1122
I-1
sS"84['attack', (8, 4)]"
p1123
I-1
sS"102['attack', (11, 12)]"
p1124
I-1
sS"393['attack', (10, 12)]"
p1125
I-1
sS"192['attack', (11, 10)]"
p1126
I-1
sS"40['attack', (12, 10)]"
p1127
I-1
sS"394['attack', (10, 6)]"
p1128
I-1
sS"263['attack', (5, 13)]"
p1129
I-1
sS"142['attack', (2, 11)]"
p1130
I-1
sS"260['attack', (15, 9)]"
p1131
I-1
sS"251['attack', (14, 11)]"
p1132
I-1
sS"130['attack', (14, 8)]"
p1133
I-2
sS"297['attack', (3, 12)]"
p1134
I-1
sS"281['attack', (18, 7)]"
p1135
I-1
sS"98['attack', (10, 1)]"
p1136
I-2
sS"58['attack', (8, 15)]"
p1137
I-1
sS"145['attack', (11, 4)]"
p1138
I-1
sS"269['attack', (9, 1)]"
p1139
I-1
sS"384['attack', (18, 11)]"
p1140
I-1
sS"322['attack', (4, 12)]"
p1141
I-1
sS"16['attack', (11, 18)]"
p1142
I-1
sS"134['attack', (15, 13)]"
p1143
I-1
sS"28['attack', (10, 6)]"
p1144
I-1
sS"122['attack', (2, 14)]"
p1145
I-2
sS"0['move', (12, 17)]"
p1146
I-2
sS"60['attack', (16, 10)]"
p1147
I-1
sS"271['attack', (5, 13)]"
p1148
I-1
sS"82['attack', (9, 2)]"
p1149
I-1
sS"250['attack', (14, 7)]"
p1150
I-1
sS"309['attack', (3, 6)]"
p1151
I-1
sS"37['attack', (7, 1)]"
p1152
I-1
sS"278['attack', (2, 10)]"
p1153
I-1
sS"248['move', (6, 17)]"
p1154
I-1
sS"331['attack', (4, 16)]"
p1155
I-1
sS"28['attack', (16, 7)]"
p1156
I-1
sS"310['attack', (4, 12)]"
p1157
I-1
sS"176['attack', (9, 16)]"
p1158
I-1
sS"78['attack', (0, 8)]"
p1159
I-1
sS"154['attack', (14, 8)]"
p1160
I-1
sS"141['attack', (18, 8)]"
p1161
I-1
sS"133['attack', (17, 11)]"
p1162
I-1
sS"64['attack', (16, 7)]"
p1163
I-1
sS"317['attack', (13, 4)]"
p1164
I-1
sS"270['attack', (14, 13)]"
p1165
I-1
sS"197['attack', (13, 5)]"
p1166
I-1
sS"73['attack', (1, 11)]"
p1167
I-1
sS"33['attack', (9, 11)]"
p1168
I-1
sS"353['attack', (6, 1)]"
p1169
I-1
sS"308['attack', (8, 12)]"
p1170
I-1
sS"98['attack', (2, 11)]"
p1171
I-1
sS"1048956['attack', (9, 14)]"
p1172
I-1
sS"212['attack', (14, 13)]"
p1173
I-1
sS"105['attack', (8, 17)]"
p1174
I-1
sS"54['attack', (13, 7)]"
p1175
I-1
sS"1048722['attack', (13, 12)]"
p1176
I-1
sS"133['attack', (3, 5)]"
p1177
I-1
sS"144['attack', (9, 4)]"
p1178
I-1
sS"1['attack', (0, 8)]"
p1179
I-2
sS"58['move', (2, 14)]"
p1180
I-1
sS"161['attack', (10, 0)]"
p1181
I-1
sS"130['attack', (2, 14)]"
p1182
I-1
sS"100['attack', (15, 12)]"
p1183
I-1
sS"36['move', (1, 12)]"
p1184
I-1
sS"168['move', (6, 1)]"
p1185
I-1
sS"148['attack', (17, 5)]"
p1186
I-1
sS"1048827['attack', (4, 12)]"
p1187
I-1
sS"263['attack', (5, 2)]"
p1188
I-1
sS"223['attack', (5, 3)]"
p1189
I-1
sS"52['attack', (11, 4)]"
p1190
I-1
sS"21['attack', (3, 12)]"
p1191
I-1
sS"64['guard']"
p1192
I-1
sS"222['attack', (4, 16)]"
p1193
I-1
sS"14['attack', (4, 9)]"
p1194
I-1
sS"174['move', (1, 6)]"
p1195
I-1
sS"82['move', (6, 1)]"
p1196
I-1
sS"259['attack', (6, 1)]"
p1197
I-1
sS"1048626['attack', (7, 2)]"
p1198
I-1
sS"228['attack', (1, 12)]"
p1199
I-1
sS"198['attack', (3, 11)]"
p1200
I-1
sS"141['attack', (5, 8)]"
p1201
I-1
sS"274['move', (8, 0)]"
p1202
I-1
sS"187['attack', (6, 2)]"
p1203
I-1
sS"201['attack', (10, 2)]"
p1204
I-1
sS"170['attack', (9, 1)]"
p1205
I-1
sS"139['attack', (4, 15)]"
p1206
I-1
sS"208['move', (2, 14)]"
p1207
I-1
sS"204['attack', (8, 15)]"
p1208
I-1
sS"346['attack', (14, 12)]"
p1209
I-1
sS"85['attack', (13, 2)]"
p1210
I-1
sS"201['attack', (4, 11)]"
p1211
I-1
sS"69['move', (18, 11)]"
p1212
I-1
sS"212['attack', (3, 7)]"
p1213
I-1
sS"333['attack', (8, 15)]"
p1214
I-1
sS"242['attack', (12, 5)]"
p1215
I-1
sS"19['attack', (9, 5)]"
p1216
I-1
sS"85['attack', (13, 12)]"
p1217
I-1
sS"96['attack', (7, 11)]"
p1218
I-1
sS"1048710['attack', (2, 11)]"
p1219
I-1
sS"242['attack', (15, 4)]"
p1220
I-1
sS"1048700['attack', (2, 8)]"
p1221
I-1
sS"130['move', (8, 17)]"
p1222
I-100
sS"21['attack', (10, 2)]"
p1223
I-1
sS"69['attack', (14, 16)]"
p1224
I-1
sS"2['attack', (8, 15)]"
p1225
I-1
sS"48['move', (8, 1)]"
p1226
I-1
sS"72['attack', (13, 16)]"
p1227
I-2
sS"291['attack', (5, 8)]"
p1228
I-1
sS"48['attack', (14, 4)]"
p1229
I-1
sS"396['attack', (11, 18)]"
p1230
I-1
sS"413['attack', (14, 6)]"
p1231
I-1
sS"203['move', (1, 10)]"
p1232
I-1
sS"91['attack', (2, 7)]"
p1233
I-1
sS"241['attack', (5, 14)]"
p1234
I-1
sS"208['attack', (7, 16)]"
p1235
I-1
sS"206['move', (17, 12)]"
p1236
I-1
sS"129['attack', (10, 3)]"
p1237
I-1
sS"207['attack', (16, 11)]"
p1238
I-4
sS"41['attack', (3, 13)]"
p1239
I-1
sS"329['attack', (4, 15)]"
p1240
I-1
sS"202['attack', (11, 13)]"
p1241
I-1
sS"215['attack', (16, 10)]"
p1242
I-101
sS"189['attack', (13, 2)]"
p1243
I-1
sS"33['move', (13, 17)]"
p1244
I-1
sS"89['move', (18, 9)]"
p1245
I-1
sS"190['attack', (7, 9)]"
p1246
I-1
sS"144['attack', (9, 5)]"
p1247
I-1
sS"30['attack', (1, 12)]"
p1248
I-1
sS"218['move', (16, 7)]"
p1249
I-1
sS"36['attack', (2, 11)]"
p1250
I-2
sS"167['attack', (14, 4)]"
p1251
I-1
sS"117['attack', (14, 13)]"
p1252
I-101
sS"320['attack', (17, 12)]"
p1253
I-1
sS"75['attack', (3, 9)]"
p1254
I-1
sS"132['attack', (7, 5)]"
p1255
I-1
sS"414['attack', (16, 14)]"
p1256
I-1
sS"379['attack', (14, 5)]"
p1257
I-2
sS"1048839['attack', (16, 10)]"
p1258
I-1
sS"247['attack', (2, 11)]"
p1259
I-1
sS"198['attack', (10, 17)]"
p1260
I-1
sS"129['attack', (2, 15)]"
p1261
I-1
sS"260['attack', (17, 9)]"
p1262
I-1
sS"265['attack', (18, 8)]"
p1263
I-1
sS"96['attack', (9, 17)]"
p1264
I-2
sS"0['attack', (12, 16)]"
p1265
I-1
sS"304['attack', (11, 16)]"
p1266
I99
sS"234['attack', (5, 3)]"
p1267
I-1
sS"88['attack', (14, 15)]"
p1268
I-1
sS"134['attack', (16, 10)]"
p1269
I-1
sS"45['attack', (4, 8)]"
p1270
I-1
sS"37['attack', (16, 11)]"
p1271
I-1
sS"204['attack', (13, 11)]"
p1272
I-1
sS"148['attack', (4, 2)]"
p1273
I-1
sS"176['attack', (6, 17)]"
p1274
I-1
sS"105['attack', (13, 3)]"
p1275
I-2
sS"172['attack', (12, 1)]"
p1276
I-1
sS"61['attack', (14, 2)]"
p1277
I-1
sS"28['attack', (16, 8)]"
p1278
I-1
sS"35['attack', (2, 11)]"
p1279
I-1
sS"74['move', (11, 8)]"
p1280
I-100
sS"429['attack', (4, 9)]"
p1281
I-1
sS"178['attack', (13, 5)]"
p1282
I-1
sS"256['attack', (0, 10)]"
p1283
I-1
sS"5['attack', (1, 8)]"
p1284
I-1
sS"51['move', (9, 0)]"
p1285
I-1
sS"56['attack', (13, 17)]"
p1286
I-2
sS"80['move', (3, 14)]"
p1287
I-1
sS"62['move', (9, 0)]"
p1288
I-2
sS"69['attack', (1, 11)]"
p1289
I-1
sS"322['attack', (5, 5)]"
p1290
I-1
sS"1048731['move', (7, 3)]"
p1291
I-100
sS"201['attack', (3, 9)]"
p1292
I-1
sS"161['attack', (9, 1)]"
p1293
I-1
sS"7['move', (17, 12)]"
p1294
I-1
sS"41['attack', (12, 10)]"
p1295
I-1
sS"1048636['attack', (10, 2)]"
p1296
I-1
sS"392['move', (2, 15)]"
p1297
I-1
sS"150['attack', (0, 8)]"
p1298
I-1
sS"144['attack', (4, 5)]"
p1299
I-2
sS"35['attack', (11, 3)]"
p1300
I-1
sS"179['attack', (4, 3)]"
p1301
I-1
sS"251['attack', (10, 3)]"
p1302
I-1
sS"132['attack', (7, 3)]"
p1303
I-1
sS"12['attack', (15, 8)]"
p1304
I-1
sS"228['guard']"
p1305
I-1
sS"192['attack', (3, 2)]"
p1306
I-1
sS"263['attack', (9, 16)]"
p1307
I-1
sS"43['attack', (4, 15)]"
p1308
I-2
sS"36['move', (2, 8)]"
p1309
I-1
sS'173[, (3, 14)]'
p1310
I-1
sS"64['attack', (3, 9)]"
p1311
I-1
sS"136['attack', (9, 5)]"
p1312
I-1
sS"307['attack', (16, 6)]"
p1313
I-1
sS"184['attack', (6, 13)]"
p1314
I-1
sS"9['attack', (10, 0)]"
p1315
I-2
sS"102['attack', (15, 16)]"
p1316
I-2
sS"220['attack', (15, 12)]"
p1317
I-1
sS"31['attack', (11, 2)]"
p1318
I-1
sS"74['attack', (4, 4)]"
p1319
I-1
sS"20['attack', (14, 14)]"
p1320
I-1
sS"98['attack', (1, 12)]"
p1321
I-1
sS"140['attack', (8, 8)]"
p1322
I-2
sS"216['move', (17, 5)]"
p1323
I-2
sS"258['attack', (7, 5)]"
p1324
I-1
sS"10['attack', (4, 16)]"
p1325
I-1
sS"0['move', (14, 2)]"
p1326
I-1
sS"223['attack', (3, 3)]"
p1327
I-1
sS"187['attack', (14, 2)]"
p1328
I-1
sS"377['attack', (4, 13)]"
p1329
I-1
sS"2['attack', (5, 7)]"
p1330
I-1
sS"176['attack', (15, 12)]"
p1331
I-1
sS"197['attack', (3, 9)]"
p1332
I-1
sS"391['attack', (11, 14)]"
p1333
I-1
sS"44['attack', (16, 11)]"
p1334
I-1
sS"4['move', (6, 17)]"
p1335
I-2
sS"87['attack', (1, 8)]"
p1336
I-1
sS"84['attack', (13, 12)]"
p1337
I-1
sS"34['attack', (3, 15)]"
p1338
I-1
sS"85['attack', (12, 8)]"
p1339
I-1
sS"93['attack', (15, 7)]"
p1340
I-1
sS"107['attack', (11, 11)]"
p1341
I-1
sS"34['attack', (3, 10)]"
p1342
I-1
sS"136['attack', (6, 14)]"
p1343
I-1
sS"147['attack', (6, 4)]"
p1344
I-1
sS"72['attack', (14, 16)]"
p1345
I-1
sS"200['move', (18, 9)]"
p1346
I-1
sS"193['attack', (2, 9)]"
p1347
I-1
sS"217['attack', (17, 8)]"
p1348
I-1
sS"116['move', (1, 12)]"
p1349
I-1
sS"194['attack', (15, 4)]"
p1350
I-1
sS"89['attack', (8, 15)]"
p1351
I-1
sS"39['attack', (12, 4)]"
p1352
I-1
sS"279['attack', (17, 12)]"
p1353
I-1
sS"266['attack', (7, 6)]"
p1354
I-1
sS"208['attack', (10, 17)]"
p1355
I-1
sS"129['attack', (10, 0)]"
p1356
I-1
sS"177['attack', (0, 10)]"
p1357
I-1
sS"96['attack', (5, 15)]"
p1358
I-1
sS"32['attack', (16, 4)]"
p1359
I-2
sS"160['attack', (4, 9)]"
p1360
I-1
sS"153['attack', (11, 14)]"
p1361
I-1
sS"1048596['move', (7, 2)]"
p1362
I-1
sS"107['attack', (7, 1)]"
p1363
I-1
sS"45['attack', (14, 2)]"
p1364
I-1
sS"312['attack', (4, 14)]"
p1365
I-1
sS"24['attack', (17, 9)]"
p1366
I-1
sS"177['attack', (14, 4)]"
p1367
I-1
sS"138['attack', (13, 11)]"
p1368
I-1
sS"164['attack', (3, 13)]"
p1369
I-1
sS"1048929['attack', (12, 8)]"
p1370
I-1
sS"224['attack', (16, 3)]"
p1371
I-1
sS"68['attack', (14, 12)]"
p1372
I-1
sS"1048680['attack', (3, 10)]"
p1373
I-1
sS"132['attack', (2, 10)]"
p1374
I-1
sS"48['move', (12, 17)]"
p1375
I-1
sS"86['attack', (15, 2)]"
p1376
I-1
sS"33['attack', (1, 9)]"
p1377
I-2
sS"258['attack', (12, 4)]"
p1378
I-1
sS"538['attack', (12, 17)]"
p1379
I-1
sS"222['move', (17, 6)]"
p1380
I-1
sS"14['move', (6, 17)]"
p1381
I-2
sS"85['move', (16, 14)]"
p1382
I-1
sS"1['attack', (14, 12)]"
p1383
I-1
sS"168['move', (14, 5)]"
p1384
I-100
sS"26['attack', (1, 6)]"
p1385
I-2
sS"209['attack', (13, 8)]"
p1386
I-1
sS"215['attack', (4, 14)]"
p1387
I-1
sS"186['move', (15, 12)]"
p1388
I-1
sS"268['attack', (3, 15)]"
p1389
I-2
sS"16['attack', (2, 10)]"
p1390
I-2
sS"198['attack', (6, 17)]"
p1391
I-1
sS"0['attack', (11, 17)]"
p1392
I-1
sS"76['move', (10, 2)]"
p1393
I-1
sS"168['attack', (10, 3)]"
p1394
I-2
sS"75['attack', (5, 3)]"
p1395
I-1
sS"46['attack', (16, 8)]"
p1396
I-1
sS"70['attack', (7, 1)]"
p1397
I-1
sS"80['attack', (2, 8)]"
p1398
I-1
sS"457['attack', (4, 16)]"
p1399
I-1
sS"402['attack', (16, 8)]"
p1400
I-1
sS"86['attack', (16, 14)]"
p1401
I-1
sS"101['attack', (1, 12)]"
p1402
I-1
sS"261['move', (17, 12)]"
p1403
I-1
sS"50['attack', (11, 2)]"
p1404
I-1
sS"192['attack', (9, 15)]"
p1405
I-1
sS"42['move', (2, 15)]"
p1406
I-1
sS"297['attack', (3, 2)]"
p1407
I-1
sS"361['attack', (7, 5)]"
p1408
I-1
sS"66['attack', (12, 2)]"
p1409
I-1
sS"76['attack', (5, 4)]"
p1410
I-1
sS"96['attack', (6, 3)]"
p1411
I-1
sS"164['move', (3, 2)]"
p1412
I-1
sS"89['attack', (3, 9)]"
p1413
I-1
sS"21['move', (1, 7)]"
p1414
I-1
sS"24['attack', (8, 3)]"
p1415
I-1
sS"137['attack', (7, 4)]"
p1416
I-1
sS"2['attack', (0, 11)]"
p1417
I-1
sS"174['move', (5, 17)]"
p1418
I-1
sS"182['attack', (14, 8)]"
p1419
I-1
sS"72['attack', (7, 9)]"
p1420
I-1
sS"58['attack', (12, 7)]"
p1421
I-1
sS"90['move', (6, 1)]"
p1422
I-2
sS"69['attack', (1, 13)]"
p1423
I-1
sS"276['attack', (9, 1)]"
p1424
I-2
sS"376['attack', (2, 14)]"
p1425
I-1
sS"250['attack', (4, 14)]"
p1426
I-1
sS"179['attack', (1, 8)]"
p1427
I-1
sS"199['attack', (5, 5)]"
p1428
I-1
sS"228['attack', (15, 6)]"
p1429
I-1
sS"30['attack', (15, 7)]"
p1430
I-1
sS"258['move', (15, 16)]"
p1431
I-1
sS"283['attack', (9, 4)]"
p1432
I-1
sS"22['attack', (2, 14)]"
p1433
I-1
sS"134['attack', (17, 5)]"
p1434
I-1
sS"46['attack', (16, 11)]"
p1435
I-1
sS"120['attack', (7, 14)]"
p1436
I-101
sS"62['attack', (5, 16)]"
p1437
I-1
sS"21['attack', (17, 10)]"
p1438
I-1
sS"64['move', (4, 2)]"
p1439
I-1
sS"233['attack', (8, 1)]"
p1440
I-1
sS"33['attack', (8, 15)]"
p1441
I-1
sS"61['attack', (1, 7)]"
p1442
I-1
sS"75['move', (13, 17)]"
p1443
I-2
sS"4['attack', (11, 16)]"
p1444
I-1
sS"215['attack', (3, 3)]"
p1445
I-1
sS"160['attack', (11, 5)]"
p1446
I-1
sS"65['attack', (17, 10)]"
p1447
I-2
sS"19['attack', (14, 11)]"
p1448
I-1
sS"149['attack', (11, 4)]"
p1449
I-1
sS"40['attack', (7, 10)]"
p1450
I-1
sS"226['attack', (11, 11)]"
p1451
I-1
sS"39['attack', (13, 7)]"
p1452
I-1
sS"284['attack', (15, 6)]"
p1453
I-1
sS"216['attack', (6, 1)]"
p1454
I-1
sS"2['attack', (15, 5)]"
p1455
I-1
sS"269['attack', (4, 14)]"
p1456
I-1
sS"4['move', (1, 12)]"
p1457
I-2
sS"196['attack', (8, 18)]"
p1458
I-1
sS"85['attack', (13, 15)]"
p1459
I-1
sS"113['attack', (14, 12)]"
p1460
I-1
sS"9['attack', (11, 1)]"
p1461
I-1
sS"129['attack', (3, 6)]"
p1462
I-1
sS"151['attack', (6, 13)]"
p1463
I-1
sS"346['move', (3, 2)]"
p1464
I-1
sS"29['attack', (17, 8)]"
p1465
I-1
sS"1048722['attack', (9, 15)]"
p1466
I-1
sS"75['attack', (9, 1)]"
p1467
I-1
sS"47['attack', (14, 14)]"
p1468
I-1
sS"96['move', (17, 12)]"
p1469
I-1
sS"170['attack', (11, 3)]"
p1470
I-1
sS"290['attack', (6, 4)]"
p1471
I-1
sS"306['move', (12, 17)]"
p1472
I-1
sS"142['attack', (1, 7)]"
p1473
I-1
sS"76['attack', (1, 12)]"
p1474
I-1
sS"12['attack', (16, 9)]"
p1475
I-1
sS"30['attack', (2, 7)]"
p1476
I-1
sS"19['attack', (10, 1)]"
p1477
I-1
sS"190['attack', (11, 11)]"
p1478
I-1
sS"135['move', (17, 6)]"
p1479
I-1
sS"107['attack', (6, 12)]"
p1480
I-1
sS"193['attack', (9, 0)]"
p1481
I-1
sS"50['move', (9, 0)]"
p1482
I-1
sS"64['attack', (15, 4)]"
p1483
I-1
sS"33['attack', (4, 3)]"
p1484
I-1
sS"51['attack', (2, 14)]"
p1485
I-1
sS"514['attack', (7, 15)]"
p1486
I-1
sS"165['move', (12, 1)]"
p1487
I-1
sS"217['attack', (13, 15)]"
p1488
I-2
sS"204['attack', (14, 5)]"
p1489
I-1
sS"320['attack', (6, 17)]"
p1490
I-1
sS"40['attack', (3, 11)]"
p1491
I-1
sS"99['attack', (2, 7)]"
p1492
I-1
sS"153['attack', (2, 11)]"
p1493
I-1
sS"427['attack', (15, 13)]"
p1494
I-1
sS"149['attack', (3, 2)]"
p1495
I-1
sS"69['move', (17, 11)]"
p1496
I-1
sS"36['attack', (13, 5)]"
p1497
I-1
sS"314['attack', (2, 3)]"
p1498
I-1
sS"240['attack', (6, 2)]"
p1499
I-1
sS"133['attack', (4, 11)]"
p1500
I-1
sS"152['attack', (3, 12)]"
p1501
I-1
sS"367['attack', (5, 7)]"
p1502
I-1
sS"68['attack', (2, 6)]"
p1503
I-1
sS"1048664['attack', (11, 9)]"
p1504
I-1
sS"190['attack', (9, 2)]"
p1505
I-1
sS"228['move', (17, 6)]"
p1506
I-1
sS"142['move', (0, 7)]"
p1507
I-1
sS"175['attack', (8, 6)]"
p1508
I-1
sS"189['attack', (5, 13)]"
p1509
I-1
sS"20['move', (14, 4)]"
p1510
I-1
sS"144['attack', (9, 15)]"
p1511
I-1
sS"226['attack', (6, 14)]"
p1512
I-1
sS"1048829['attack', (7, 14)]"
p1513
I-1
sS"260['move', (18, 11)]"
p1514
I-1
sS"172['attack', (3, 8)]"
p1515
I-1
sS"1048641['attack', (8, 4)]"
p1516
I-1
sS"49['attack', (14, 6)]"
p1517
I-1
sS"77['move', (6, 1)]"
p1518
I-1
sS"72['move', (17, 6)]"
p1519
I-1
sS"129['attack', (13, 6)]"
p1520
I-1
sS"228['attack', (5, 3)]"
p1521
I-1
sS"192['guard']"
p1522
I-1
sS"190['attack', (5, 6)]"
p1523
I-1
sS"196['attack', (10, 17)]"
p1524
I-1
sS"355['attack', (6, 15)]"
p1525
I-1
sS"197['attack', (14, 3)]"
p1526
I-1
sS"74['attack', (2, 8)]"
p1527
I-1
sS"144['attack', (10, 17)]"
p1528
I-1
sS"150['attack', (15, 8)]"
p1529
I-1
sS"72['attack', (10, 16)]"
p1530
I-1
sS"7['attack', (3, 13)]"
p1531
I-1
sS"292['move', (15, 2)]"
p1532
I-1
sS"171['attack', (3, 2)]"
p1533
I-1
sS"326['attack', (9, 17)]"
p1534
I-1
sS"30['move', (18, 11)]"
p1535
I-1
sS"34['attack', (0, 11)]"
p1536
I-1
sS"194['attack', (5, 6)]"
p1537
I-1
sS"301['attack', (8, 15)]"
p1538
I-1
sS"31['attack', (11, 1)]"
p1539
I-1
sS"0['attack', (9, 17)]"
p1540
I-2
sS"74['attack', (9, 16)]"
p1541
I-1
sS"52['attack', (15, 10)]"
p1542
I-1
sS"113['attack', (6, 9)]"
p1543
I-1
sS"107['attack', (16, 12)]"
p1544
I-1
sS"33['attack', (8, 9)]"
p1545
I-1
sS"67['attack', (1, 9)]"
p1546
I-1
sS"88['attack', (5, 2)]"
p1547
I-2
sS"40['move', (3, 16)]"
p1548
I-2
sS"97['attack', (8, 15)]"
p1549
I-1
sS"453['attack', (15, 12)]"
p1550
I-1
sS"146['attack', (3, 11)]"
p1551
I-1
sS"109['attack', (15, 9)]"
p1552
I-1
sS"70['move', (1, 13)]"
p1553
I-1
sS"101['attack', (4, 8)]"
p1554
I-1
sS"100['move', (16, 11)]"
p1555
I-1
sS"120['attack', (15, 12)]"
p1556
I-1
sS"48['attack', (9, 1)]"
p1557
I-1
sS"130['attack', (5, 15)]"
p1558
I-1
sS"224['move', (17, 13)]"
p1559
I-1
sS"55['attack', (14, 10)]"
p1560
I-1
sS"231['attack', (4, 3)]"
p1561
I-1
sS"131['move', (1, 13)]"
p1562
I-1
sS"38['attack', (9, 13)]"
p1563
I-1
sS"308['move', (18, 10)]"
p1564
I-1
sS"22['attack', (8, 3)]"
p1565
I-1
sS"294['attack', (11, 5)]"
p1566
I-1
sS"165['attack', (14, 10)]"
p1567
I-1
sS"194['attack', (8, 15)]"
p1568
I-1
sS"19['attack', (2, 11)]"
p1569
I-1
sS"79['move', (3, 16)]"
p1570
I-1
sS"192['attack', (11, 2)]"
p1571
I-1
sS"6['attack', (7, 1)]"
p1572
I-1
sS"139['attack', (14, 12)]"
p1573
I-1
sS"74['attack', (11, 15)]"
p1574
I-2
sS"360['attack', (2, 14)]"
p1575
I-1
sS"145['attack', (14, 10)]"
p1576
I-1
sS"213['move', (17, 9)]"
p1577
I-100
sS"10['attack', (9, 1)]"
p1578
I-1
sS"20['attack', (3, 9)]"
p1579
I-1
sS"142['attack', (9, 12)]"
p1580
I-1
sS"410['attack', (6, 13)]"
p1581
I-1
sS"87['attack', (6, 3)]"
p1582
I-1
sS"109['attack', (8, 13)]"
p1583
I-1
sS"36['attack', (1, 12)]"
p1584
I-1
sS"366['attack', (8, 10)]"
p1585
I-1
sS"168['attack', (14, 11)]"
p1586
I-1
sS"196['attack', (13, 15)]"
p1587
I-1
sS"216['attack', (14, 5)]"
p1588
I-1
sS"4['move', (4, 2)]"
p1589
I-1
sS"34['attack', (11, 7)]"
p1590
I-1
sS"64['attack', (17, 7)]"
p1591
I-1
sS"43['attack', (6, 15)]"
p1592
I-1
sS"208['attack', (10, 14)]"
p1593
I-1
sS"282['attack', (7, 14)]"
p1594
I-1
sS"266['attack', (7, 5)]"
p1595
I-1
sS"34['attack', (0, 8)]"
p1596
I-1
sS"90['attack', (7, 12)]"
p1597
I-1
sS"161['move', (2, 14)]"
p1598
I-1
sS"24['attack', (12, 4)]"
p1599
I-1
sS"104['attack', (4, 4)]"
p1600
I-1
sS"52['attack', (15, 4)]"
p1601
I-1
sS"191['attack', (14, 2)]"
p1602
I-1
sS"262['attack', (5, 7)]"
p1603
I-1
sS"18['attack', (8, 1)]"
p1604
I-2
sS"64['move', (17, 6)]"
p1605
I-1
sS"265['attack', (4, 2)]"
p1606
I-2
sS"1048720['attack', (11, 14)]"
p1607
I100
sS"204['attack', (3, 3)]"
p1608
I-2
sS"165['attack', (10, 5)]"
p1609
I-101
sS"75['attack', (16, 9)]"
p1610
I-1
sS"65['attack', (12, 3)]"
p1611
I-1
sS"8['attack', (14, 8)]"
p1612
I-2
sS"25['attack', (3, 13)]"
p1613
I-1
sS"57['attack', (3, 10)]"
p1614
I-1
sS"35['attack', (13, 9)]"
p1615
I-1
sS"4['move', (15, 16)]"
p1616
I-1
sS"13['attack', (9, 1)]"
p1617
I-1
sS"123['attack', (12, 15)]"
p1618
I-1
sS"20['attack', (5, 15)]"
p1619
I-1
sS"1049035['move', (15, 2)]"
p1620
I-1
sS"2['attack', (6, 13)]"
p1621
I-1
sS"162['attack', (14, 4)]"
p1622
I-1
sS"406['attack', (8, 11)]"
p1623
I99
sS"4['attack', (4, 10)]"
p1624
I-1
sS"251['attack', (3, 12)]"
p1625
I-1
sS"0['attack', (8, 2)]"
p1626
I-1
sS"143['attack', (13, 8)]"
p1627
I-1
sS"83['move', (14, 14)]"
p1628
I-1
sS"136['attack', (3, 5)]"
p1629
I-1
sS"209['attack', (4, 16)]"
p1630
I-2
sS"131['attack', (0, 8)]"
p1631
I-1
sS"258['attack', (3, 12)]"
p1632
I-1
sS"156['attack', (10, 13)]"
p1633
I-1
sS"330['attack', (6, 16)]"
p1634
I-2
sS"136['attack', (4, 9)]"
p1635
I-1
sS"30['attack', (2, 14)]"
p1636
I-1
sS"162['attack', (6, 1)]"
p1637
I-1
sS"0['attack', (7, 16)]"
p1638
I-1
sS"332['attack', (3, 16)]"
p1639
I-2
sS"81['attack', (12, 2)]"
p1640
I-1
sS"113['attack', (2, 12)]"
p1641
I-1
sS"161['guard']"
p1642
I-1
sS"10['attack', (10, 10)]"
p1643
I-1
sS"34['attack', (13, 3)]"
p1644
I-2
sS"433['attack', (9, 1)]"
p1645
I-1
sS"159['attack', (1, 8)]"
p1646
I-1
sS"425['attack', (16, 4)]"
p1647
I-1
sS"21['attack', (8, 1)]"
p1648
I-1
sS"37['attack', (2, 9)]"
p1649
I-1
sS"10['attack', (5, 10)]"
p1650
I-1
sS"143['attack', (12, 15)]"
p1651
I-1
sS"154['attack', (9, 15)]"
p1652
I-1
sS"258['attack', (5, 15)]"
p1653
I-2
sS"66['attack', (15, 7)]"
p1654
I-101
sS"12['attack', (9, 17)]"
p1655
I-1
sS"158['attack', (2, 4)]"
p1656
I-1
sS"154['attack', (1, 10)]"
p1657
I-1
sS"122['attack', (16, 7)]"
p1658
I-1
sS"26['move', (4, 16)]"
p1659
I-1
sS"138['attack', (15, 7)]"
p1660
I-1
sS"63['move', (8, 13)]"
p1661
I-100
sS"140['attack', (11, 3)]"
p1662
I-1
sS"146['attack', (17, 8)]"
p1663
I-1
sS"89['move', (1, 13)]"
p1664
I-1
sS"231['attack', (8, 10)]"
p1665
I-1
sS"227['attack', (2, 10)]"
p1666
I-1
sS"65['attack', (16, 6)]"
p1667
I-1
sS"338['attack', (9, 16)]"
p1668
I-1
sS"85['move', (1, 10)]"
p1669
I-1
sS"246['attack', (16, 12)]"
p1670
I-100
sS"489['attack', (2, 14)]"
p1671
I-2
sS"53['attack', (8, 15)]"
p1672
I-1
sS"163['attack', (5, 17)]"
p1673
I-1
sS"145['attack', (9, 14)]"
p1674
I-1
sS"278['attack', (0, 8)]"
p1675
I-1
sS"199['attack', (4, 6)]"
p1676
I-1
sS"250['attack', (15, 5)]"
p1677
I-1
sS"147['move', (14, 14)]"
p1678
I-1
sS"1048834['attack', (9, 4)]"
p1679
I-1
sS"0['attack', (12, 17)]"
p1680
I-1
sS"194['move', (11, 17)]"
p1681
I-1
sS"184['attack', (13, 13)]"
p1682
I-1
sS"268['move', (3, 2)]"
p1683
I-1
sS"136['attack', (14, 8)]"
p1684
I-1
sS"128['attack', (9, 1)]"
p1685
I-1
sS"332['attack', (10, 17)]"
p1686
I-1
sS"97['attack', (5, 2)]"
p1687
I-1
sS"18['attack', (15, 13)]"
p1688
I-1
sS"165['attack', (12, 3)]"
p1689
I-2
sS"41['attack', (2, 12)]"
p1690
I-1
sS"129['attack', (4, 16)]"
p1691
I-2
sS"24['attack', (5, 3)]"
p1692
I-1
sS"135['attack', (4, 15)]"
p1693
I-1
sS"131['attack', (3, 5)]"
p1694
I-1
sS"352['move', (11, 9)]"
p1695
I-100
sS"93['attack', (15, 8)]"
p1696
I-1
sS"4['attack', (4, 3)]"
p1697
I-2
sS"112['attack', (17, 12)]"
p1698
I-1
sS"53['move', (17, 12)]"
p1699
I-1
sS"107['move', (12, 17)]"
p1700
I-1
sS"134['attack', (6, 1)]"
p1701
I-1
sS"8['attack', (11, 5)]"
p1702
I-1
sS"64['move', (6, 17)]"
p1703
I-2
sS"10['attack', (10, 0)]"
p1704
I-1
sS"434['attack', (15, 11)]"
p1705
I-1
sS"177['attack', (10, 1)]"
p1706
I-1
sS"99['attack', (11, 16)]"
p1707
I-1
sS"42['attack', (8, 4)]"
p1708
I-1
sS"36['attack', (9, 1)]"
p1709
I-1
sS"9['attack', (11, 2)]"
p1710
I-1
sS"15['attack', (3, 15)]"
p1711
I-2
sS"95['attack', (15, 6)]"
p1712
I-1
sS"33['attack', (5, 12)]"
p1713
I-1
sS"245['attack', (2, 8)]"
p1714
I-1
sS"247['attack', (1, 12)]"
p1715
I-1
sS"357['attack', (13, 12)]"
p1716
I-1
sS"55['attack', (8, 2)]"
p1717
I-1
sS"113['move', (2, 8)]"
p1718
I100
sS"24['attack', (14, 6)]"
p1719
I-1
sS"389['attack', (5, 15)]"
p1720
I-1
sS"134['attack', (2, 8)]"
p1721
I-1
sS"48['attack', (15, 3)]"
p1722
I-1
sS"10['attack', (5, 6)]"
p1723
I-1
sS"230['attack', (9, 16)]"
p1724
I-1
sS"165['move', (1, 13)]"
p1725
I-1
sS"178['attack', (5, 3)]"
p1726
I-1
sS"174['move', (12, 1)]"
p1727
I-1
sS"49['attack', (1, 10)]"
p1728
I-1
sS"358['attack', (10, 2)]"
p1729
I-1
sS"180['attack', (16, 6)]"
p1730
I-1
sS"137['attack', (5, 8)]"
p1731
I-1
sS"272['attack', (16, 10)]"
p1732
I-1
sS"39['attack', (4, 13)]"
p1733
I-1
sS"257['move', (3, 3)]"
p1734
I-1
sS"166['attack', (13, 5)]"
p1735
I-1
sS"67['attack', (12, 4)]"
p1736
I-1
sS"192['attack', (12, 17)]"
p1737
I-2
sS"328['attack', (16, 11)]"
p1738
I-1
sS"181['attack', (12, 15)]"
p1739
I-1
sS"8['attack', (15, 7)]"
p1740
I-2
sS"38['attack', (1, 12)]"
p1741
I-1
sS"140['attack', (10, 1)]"
p1742
I-1
sS"86['attack', (0, 8)]"
p1743
I-1
sS"64['attack', (2, 11)]"
p1744
I-1
sS"251['move', (4, 14)]"
p1745
I-1
sS"372['attack', (4, 14)]"
p1746
I-1
sS"142['attack', (14, 12)]"
p1747
I-1
sS"65['attack', (11, 4)]"
p1748
I-1
sS"1048988['attack', (12, 4)]"
p1749
I-1
sS"0['attack', (2, 11)]"
p1750
I-1
sS"240['attack', (4, 14)]"
p1751
I-1
sS"248['attack', (5, 4)]"
p1752
I-1
sS"203['attack', (5, 2)]"
p1753
I-1
sS"128['attack', (10, 2)]"
p1754
I-2
sS"267['attack', (6, 11)]"
p1755
I-1
sS"241['attack', (18, 10)]"
p1756
I-1
sS"304['attack', (9, 2)]"
p1757
I-1
sS"1048593['attack', (15, 10)]"
p1758
I-1
sS"163['move', (10, 2)]"
p1759
I-100
sS"231['attack', (14, 13)]"
p1760
I-1
sS"202['move', (6, 17)]"
p1761
I-2
sS"159['attack', (15, 15)]"
p1762
I-1
sS"139['attack', (3, 15)]"
p1763
I-1
sS"101['move', (2, 3)]"
p1764
I-1
sS"258['attack', (6, 11)]"
p1765
I-1
sS"289['attack', (3, 13)]"
p1766
I-1
sS"153['attack', (6, 2)]"
p1767
I-1
sS"27['attack', (13, 3)]"
p1768
I-1
sS"126['attack', (16, 14)]"
p1769
I-1
sS"148['attack', (7, 11)]"
p1770
I-1
sS"28['attack', (4, 13)]"
p1771
I-1
sS"26['attack', (4, 14)]"
p1772
I-1
sS"312['attack', (8, 16)]"
p1773
I-1
sS"2['attack', (3, 16)]"
p1774
I-1
sS"180['attack', (16, 4)]"
p1775
I-1
sS"384['attack', (15, 5)]"
p1776
I-2
sS"134['attack', (9, 17)]"
p1777
I-1
sS"162['attack', (8, 14)]"
p1778
I-1
sS"128['attack', (12, 4)]"
p1779
I-2
sS"195['attack', (6, 9)]"
p1780
I-1
sS"164['move', (11, 18)]"
p1781
I-1
sS"44['attack', (5, 15)]"
p1782
I-1
sS"76['attack', (4, 3)]"
p1783
I-1
sS"240['guard']"
p1784
I-1
sS"238['attack', (13, 11)]"
p1785
I-1
sS"459['attack', (10, 11)]"
p1786
I-1
sS"169['attack', (14, 8)]"
p1787
I-1
sS"129['attack', (3, 5)]"
p1788
I-1
sS"232['attack', (3, 13)]"
p1789
I-1
sS"239['attack', (17, 7)]"
p1790
I-1
sS"64['move', (11, 3)]"
p1791
I-100
sS"84['move', (0, 9)]"
p1792
I-1
sS"297['attack', (5, 14)]"
p1793
I-1
sS"17['attack', (10, 1)]"
p1794
I-1
sS"217['attack', (15, 12)]"
p1795
I-1
sS"68['attack', (12, 3)]"
p1796
I-1
sS"174['attack', (11, 2)]"
p1797
I-1
sS"75['attack', (9, 4)]"
p1798
I-1
sS"301['attack', (3, 8)]"
p1799
I-1
sS"109['move', (6, 1)]"
p1800
I-1
sS"208['attack', (6, 15)]"
p1801
I-1
sS"75['attack', (14, 15)]"
p1802
I-1
sS"134['attack', (3, 9)]"
p1803
I-2
sS"9['attack', (4, 12)]"
p1804
I-1
sS"111['move', (0, 9)]"
p1805
I-1
sS"154['attack', (3, 6)]"
p1806
I-1
sS"384['attack', (14, 7)]"
p1807
I-1
sS"189['move', (17, 6)]"
p1808
I-1
sS"225['move', (2, 4)]"
p1809
I-1
sS"30['attack', (9, 4)]"
p1810
I-1
sS"202['attack', (10, 17)]"
p1811
I-1
sS"149['attack', (15, 12)]"
p1812
I-1
sS"43['attack', (13, 13)]"
p1813
I-1
sS"286['guard']"
p1814
I-1
sS"146['attack', (13, 8)]"
p1815
I-1
sS"202['attack', (17, 7)]"
p1816
I-1
sS"10['attack', (3, 10)]"
p1817
I-1
sS"17['attack', (3, 4)]"
p1818
I-1
sS"306['attack', (5, 15)]"
p1819
I-1
sS"381['attack', (15, 7)]"
p1820
I-101
sS"218['attack', (12, 6)]"
p1821
I-1
sS"208['attack', (15, 14)]"
p1822
I-1
sS"129['move', (0, 11)]"
p1823
I-1
sS"126['attack', (11, 13)]"
p1824
I-1
sS"133['attack', (1, 12)]"
p1825
I-2
sS"13['attack', (14, 12)]"
p1826
I-1
sS"1048982['attack', (3, 11)]"
p1827
I-101
sS"248['attack', (11, 12)]"
p1828
I-1
sS"388['attack', (10, 10)]"
p1829
I-1
sS"103['attack', (14, 12)]"
p1830
I-1
sS"260['attack', (3, 5)]"
p1831
I-1
sS"34['attack', (10, 14)]"
p1832
I-1
sS"226['attack', (5, 12)]"
p1833
I-1
sS"269['attack', (13, 12)]"
p1834
I-1
sS"177['move', (9, 0)]"
p1835
I-1
sS"117['attack', (3, 11)]"
p1836
I-2
sS"262['attack', (6, 17)]"
p1837
I-1
sS"241['attack', (14, 3)]"
p1838
I-1
sS"192['attack', (10, 0)]"
p1839
I-1
sS"265['attack', (11, 14)]"
p1840
I-1
sS"141['attack', (15, 4)]"
p1841
I-1
sS"6['attack', (3, 5)]"
p1842
I-1
sS"2['attack', (10, 1)]"
p1843
I-2
sS"212['move', (16, 4)]"
p1844
I-1
sS"44['move', (3, 3)]"
p1845
I-1
sS"137['attack', (8, 17)]"
p1846
I-1
sS"192['attack', (16, 7)]"
p1847
I-1
sS"1049035['attack', (15, 4)]"
p1848
I-1
sS"88['attack', (14, 11)]"
p1849
I-1
sS"359['attack', (15, 15)]"
p1850
I-1
sS"1['guard']"
p1851
I-1
sS"217['move', (18, 7)]"
p1852
I-1
sS"130['attack', (8, 2)]"
p1853
I-1
sS"398['attack', (9, 16)]"
p1854
I-1
sS"200['attack', (3, 15)]"
p1855
I-1
sS"195['move', (5, 17)]"
p1856
I-1
sS"16['move', (1, 6)]"
p1857
I-1
sS"34['attack', (1, 6)]"
p1858
I-1
sS"281['attack', (13, 7)]"
p1859
I-1
sS"392['attack', (11, 11)]"
p1860
I-1
sS"131['attack', (1, 13)]"
p1861
I-1
sS"217['attack', (10, 6)]"
p1862
I-1
sS"76['attack', (15, 14)]"
p1863
I-1
sS"230['attack', (14, 13)]"
p1864
I-1
sS"207['attack', (2, 10)]"
p1865
I-1
sS"152['attack', (18, 8)]"
p1866
I-2
sS"239['attack', (13, 6)]"
p1867
I-1
sS"107['attack', (12, 15)]"
p1868
I-1
sS"82['attack', (2, 9)]"
p1869
I-2
sS"1048907['attack', (15, 2)]"
p1870
I-1
sS"73['attack', (12, 15)]"
p1871
I-1
sS"75['move', (0, 7)]"
p1872
I-1
sS"79['attack', (14, 12)]"
p1873
I-1
sS"196['move', (16, 14)]"
p1874
I-1
sS"166['attack', (6, 3)]"
p1875
I-3
sS"202['attack', (17, 10)]"
p1876
I-2
sS"0['attack', (10, 16)]"
p1877
I-2
sS"167['attack', (1, 5)]"
p1878
I-2
sS"38['attack', (3, 9)]"
p1879
I-1
sS"86['attack', (14, 13)]"
p1880
I-1
sS"297['attack', (9, 15)]"
p1881
I-1
sS"54['attack', (15, 9)]"
p1882
I-1
sS"153['attack', (6, 9)]"
p1883
I-1
sS"320['attack', (13, 14)]"
p1884
I-1
sS"32['attack', (11, 2)]"
p1885
I-1
sS"108['attack', (14, 13)]"
p1886
I-1
sS"36['attack', (18, 8)]"
p1887
I-1
sS"30['attack', (16, 4)]"
p1888
I-1
sS"138['attack', (3, 2)]"
p1889
I-1
sS"67['attack', (4, 13)]"
p1890
I-2
sS"50['attack', (14, 5)]"
p1891
I-1
sS"174['attack', (2, 11)]"
p1892
I-1
sS"21['attack', (15, 9)]"
p1893
I-1
sS"330['attack', (10, 5)]"
p1894
I-1
sS"157['attack', (14, 4)]"
p1895
I-1
sS"161['attack', (1, 9)]"
p1896
I-1
sS"78['attack', (10, 3)]"
p1897
I-1
sS"185['move', (3, 16)]"
p1898
I-1
sS"103['attack', (5, 10)]"
p1899
I-1
sS"225['move', (7, 13)]"
p1900
I-100
sS"198['move', (4, 14)]"
p1901
I-1
sS"320['attack', (9, 18)]"
p1902
I-2
sS"289['attack', (6, 13)]"
p1903
I-1
sS"102['move', (6, 17)]"
p1904
I-1
sS"77['attack', (8, 16)]"
p1905
I-1
sS"302['attack', (13, 17)]"
p1906
I-1
sS"76['attack', (8, 18)]"
p1907
I-1
sS"2['attack', (6, 3)]"
p1908
I-1
sS"230['attack', (10, 17)]"
p1909
I-1
sS"214['attack', (8, 12)]"
p1910
I-1
sS"226['attack', (4, 11)]"
p1911
I-1
sS"117['move', (0, 10)]"
p1912
I-1
sS"1048610['attack', (15, 10)]"
p1913
I-1
sS"240['attack', (5, 11)]"
p1914
I-1
sS"238['attack', (5, 6)]"
p1915
I-1
sS"108['attack', (14, 6)]"
p1916
I-1
sS"42['attack', (4, 15)]"
p1917
I-2
sS"33['attack', (8, 4)]"
p1918
I-1
sS"341['attack', (15, 4)]"
p1919
I-1
sS"9['attack', (13, 9)]"
p1920
I-1
sS"513['attack', (16, 14)]"
p1921
I-1
sS"2['attack', (7, 2)]"
p1922
I-4
sS"75['attack', (7, 3)]"
p1923
I-1
sS"280['attack', (3, 15)]"
p1924
I-1
sS"195['attack', (3, 5)]"
p1925
I-1
sS"306['attack', (5, 3)]"
p1926
I-2
sS"394['attack', (2, 13)]"
p1927
I-1
sS"75['move', (7, 1)]"
p1928
I-1
sS"130['attack', (2, 7)]"
p1929
I-1
sS"71['attack', (16, 13)]"
p1930
I-1
sS"264['attack', (10, 3)]"
p1931
I-1
sS"102['attack', (3, 15)]"
p1932
I-1
sS"226['attack', (6, 3)]"
p1933
I-1
sS"58['attack', (14, 15)]"
p1934
I-1
sS"269['attack', (16, 6)]"
p1935
I-1
sS"93['attack', (3, 9)]"
p1936
I-2
sS"154['attack', (15, 7)]"
p1937
I-1
sS"167['move', (0, 7)]"
p1938
I-2
sS"33['attack', (10, 15)]"
p1939
I-1
sS"88['attack', (13, 11)]"
p1940
I-1
sS"72['attack', (6, 4)]"
p1941
I-1
sS"92['attack', (4, 4)]"
p1942
I-1
sS"36['attack', (11, 3)]"
p1943
I-1
sS"168['attack', (13, 15)]"
p1944
I-1
sS"291['attack', (15, 11)]"
p1945
I-1
sS"101['attack', (13, 13)]"
p1946
I-1
sS"90['attack', (4, 13)]"
p1947
I-1
sS"306['move', (8, 0)]"
p1948
I-1
sS"36['attack', (17, 11)]"
p1949
I-1
sS"26['attack', (3, 13)]"
p1950
I-1
sS"342['move', (14, 2)]"
p1951
I-1
sS"115['attack', (8, 14)]"
p1952
I-1
sS"225['attack', (13, 4)]"
p1953
I-1
sS"260['attack', (7, 13)]"
p1954
I-1
sS"264['attack', (3, 16)]"
p1955
I-1
sS"192['attack', (4, 16)]"
p1956
I-2
sS"200['attack', (9, 16)]"
p1957
I-1
sS"260['move', (9, 18)]"
p1958
I-1
sS"208['attack', (4, 16)]"
p1959
I-1
sS"173['attack', (13, 9)]"
p1960
I-1
sS"99['attack', (2, 10)]"
p1961
I-2
sS"234['move', (7, 18)]"
p1962
I-1
sS"23['attack', (4, 4)]"
p1963
I-1
sS"36['move', (10, 2)]"
p1964
I-1
sS"39['attack', (8, 7)]"
p1965
I-1
sS"134['attack', (16, 13)]"
p1966
I-1
sS"63['attack', (5, 6)]"
p1967
I-1
sS"336['attack', (6, 4)]"
p1968
I-2
sS"217['attack', (9, 8)]"
p1969
I-1
sS"172['attack', (6, 16)]"
p1970
I-1
sS"250['attack', (15, 7)]"
p1971
I-1
sS"165['attack', (6, 10)]"
p1972
I-1
sS"134['attack', (1, 8)]"
p1973
I-1
sS"193['move', (4, 16)]"
p1974
I-1
sS"95['attack', (2, 7)]"
p1975
I-1
sS"107['attack', (1, 10)]"
p1976
I-2
sS"99['attack', (13, 1)]"
p1977
I-1
sS"422['attack', (7, 11)]"
p1978
I-1
sS"117['attack', (5, 11)]"
p1979
I-2
sS"250['attack', (4, 7)]"
p1980
I-1
sS"269['attack', (3, 15)]"
p1981
I-1
sS"73['move', (2, 4)]"
p1982
I-2
sS"361['attack', (2, 7)]"
p1983
I-1
sS"82['attack', (3, 10)]"
p1984
I-1
sS"43['attack', (9, 5)]"
p1985
I-1
sS"17['attack', (11, 0)]"
p1986
I-1
sS"188['attack', (10, 2)]"
p1987
I-1
sS"16['attack', (4, 2)]"
p1988
I-1
sS"276['attack', (12, 16)]"
p1989
I-1
sS"295['attack', (6, 14)]"
p1990
I-1
sS"96['attack', (2, 11)]"
p1991
I-1
sS"19['move', (4, 16)]"
p1992
I-1
sS"37['attack', (4, 4)]"
p1993
I-1
sS"107['attack', (13, 7)]"
p1994
I-1
sS"412['attack', (15, 9)]"
p1995
I-2
sS"304['attack', (3, 12)]"
p1996
I-1
sS"283['attack', (14, 8)]"
p1997
I-1
sS"132['move', (10, 18)]"
p1998
I-1
sS"81['attack', (4, 14)]"
p1999
I-1
sS"172['attack', (9, 16)]"
p2000
I-1
sS"24['attack', (3, 3)]"
p2001
I-1
sS"270['attack', (3, 12)]"
p2002
I-1
sS"125['attack', (2, 7)]"
p2003
I-1
sS"159['attack', (6, 1)]"
p2004
I-1
sS"180['attack', (10, 2)]"
p2005
I-1
sS"209['attack', (4, 3)]"
p2006
I-1
sS"334['attack', (7, 5)]"
p2007
I-1
sS"584['move', (3, 16)]"
p2008
I-1
sS"174['attack', (14, 12)]"
p2009
I-1
sS"35['attack', (1, 12)]"
p2010
I-2
sS"298['attack', (6, 2)]"
p2011
I-1
sS"348['attack', (14, 13)]"
p2012
I-1
sS"76['move', (7, 15)]"
p2013
I-100
sS"322['attack', (4, 13)]"
p2014
I-1
sS"188['attack', (10, 13)]"
p2015
I-1
sS"372['attack', (10, 17)]"
p2016
I-1
sS"36['attack', (16, 10)]"
p2017
I-2
sS"41['attack', (1, 12)]"
p2018
I-1
sS"8['move', (10, 16)]"
p2019
I-1
sS"104['attack', (11, 13)]"
p2020
I-1
sS"6['move', (2, 14)]"
p2021
I-1
sS"347['attack', (17, 11)]"
p2022
I-2
sS"129['attack', (3, 10)]"
p2023
I-1
sS"176['attack', (2, 12)]"
p2024
I-1
sS"94['attack', (14, 15)]"
p2025
I-1
sS"466['attack', (11, 9)]"
p2026
I-1
sS"132['attack', (14, 16)]"
p2027
I-1
sS"9['attack', (5, 12)]"
p2028
I-1
sS"194['move', (5, 17)]"
p2029
I-1
sS"141['attack', (8, 11)]"
p2030
I-1
sS"346['attack', (5, 7)]"
p2031
I-1
sS"144['attack', (4, 11)]"
p2032
I-2
sS"56['attack', (10, 3)]"
p2033
I-2
sS"212['attack', (3, 11)]"
p2034
I-2
sS"1['attack', (4, 15)]"
p2035
I-1
sS"80['attack', (5, 7)]"
p2036
I-1
sS"271['attack', (15, 13)]"
p2037
I-1
sS"152['attack', (15, 13)]"
p2038
I-1
sS"455['attack', (16, 13)]"
p2039
I-1
sS"469['attack', (14, 5)]"
p2040
I-1
sS"200['attack', (8, 2)]"
p2041
I-1
sS"59['attack', (6, 17)]"
p2042
I-1
sS"141['attack', (8, 3)]"
p2043
I-1
sS"288['attack', (14, 14)]"
p2044
I-1
sS"24['attack', (8, 1)]"
p2045
I-1
sS"18['attack', (11, 15)]"
p2046
I-1
sS"39['attack', (8, 4)]"
p2047
I-1
sS"91['attack', (6, 1)]"
p2048
I-1
sS"49['move', (12, 1)]"
p2049
I-1
sS"115['attack', (15, 12)]"
p2050
I-1
sS"163['attack', (5, 15)]"
p2051
I-1
sS"96['attack', (2, 9)]"
p2052
I-1
sS"184['attack', (3, 6)]"
p2053
I-1
sS"1048835['move', (11, 0)]"
p2054
I-1
sS"282['move', (6, 17)]"
p2055
I-1
sS"62['attack', (14, 14)]"
p2056
I-1
sS"90['move', (2, 5)]"
p2057
I-1
sS"56['attack', (10, 17)]"
p2058
I-1
sS"47['attack', (12, 15)]"
p2059
I-1
sS"46['attack', (16, 13)]"
p2060
I-1
sS"166['attack', (3, 7)]"
p2061
I-1
sS"39['attack', (2, 6)]"
p2062
I-1
sS"170['attack', (9, 0)]"
p2063
I-1
sS"331['move', (3, 2)]"
p2064
I-1
sS"461['attack', (4, 9)]"
p2065
I-1
sS"205['attack', (16, 14)]"
p2066
I-1
sS"73['attack', (16, 7)]"
p2067
I-1
sS"208['attack', (17, 7)]"
p2068
I-1
sS"139['attack', (3, 10)]"
p2069
I-1
sS"150['attack', (16, 14)]"
p2070
I-1
sS"256['attack', (11, 9)]"
p2071
I-1
sS"116['attack', (5, 2)]"
p2072
I-1
sS"193['attack', (3, 2)]"
p2073
I-1
sS"74['move', (4, 16)]"
p2074
I-2
sS"247['attack', (5, 10)]"
p2075
I-1
sS"48['attack', (15, 13)]"
p2076
I-1
sS"45['attack', (1, 10)]"
p2077
I-1
sS"48['attack', (15, 9)]"
p2078
I-1
sS"137['move', (8, 0)]"
p2079
I-1
sS"112['attack', (13, 5)]"
p2080
I-1
sS"16['attack', (17, 10)]"
p2081
I-1
sS"172['guard']"
p2082
I-1
sS"1048742['move', (1, 6)]"
p2083
I-1
sS"168['attack', (9, 2)]"
p2084
I-1
sS"106['attack', (9, 16)]"
p2085
I-2
sS"190['attack', (3, 12)]"
p2086
I-1
sS"146['move', (1, 12)]"
p2087
I-2
sS"105['attack', (14, 11)]"
p2088
I-101
sS"42['attack', (11, 4)]"
p2089
I-1
sS"88['attack', (3, 11)]"
p2090
I-1
sS"229['attack', (17, 10)]"
p2091
I-1
sS"18['move', (10, 0)]"
p2092
I-1
sS"146['attack', (15, 13)]"
p2093
I-1
sS"32['attack', (6, 4)]"
p2094
I-1
sS"302['attack', (6, 17)]"
p2095
I-1
sS"49['attack', (17, 9)]"
p2096
I-1
sS"294['move', (2, 4)]"
p2097
I-1
sS"334['move', (14, 2)]"
p2098
I-2
sS"250['attack', (4, 10)]"
p2099
I-101
sS"142['attack', (4, 5)]"
p2100
I-2
sS"9['attack', (3, 8)]"
p2101
I-1
sS"120['attack', (3, 3)]"
p2102
I-1
sS"201['attack', (11, 4)]"
p2103
I-1
sS"80['attack', (18, 10)]"
p2104
I-1
sS"93['move', (5, 1)]"
p2105
I-1
sS"81['attack', (16, 13)]"
p2106
I-1
sS"1048844['attack', (15, 12)]"
p2107
I-1
sS"281['attack', (2, 5)]"
p2108
I-1
sS"57['attack', (12, 4)]"
p2109
I-1
sS"20['attack', (4, 14)]"
p2110
I-2
sS"494['attack', (6, 15)]"
p2111
I-1
sS"84['move', (1, 5)]"
p2112
I-1
sS"84['attack', (11, 15)]"
p2113
I-1
sS"399['attack', (3, 14)]"
p2114
I-1
sS"272['attack', (17, 8)]"
p2115
I-1
sS"74['attack', (4, 5)]"
p2116
I-1
sS"112['attack', (10, 17)]"
p2117
I-1
sS"44['attack', (5, 3)]"
p2118
I-1
sS"158['attack', (2, 11)]"
p2119
I-1
sS"35['attack', (14, 3)]"
p2120
I-1
sS"833['attack', (11, 3)]"
p2121
I-1
sS"44['attack', (5, 6)]"
p2122
I-1
sS"193['attack', (8, 13)]"
p2123
I-1
sS"28['attack', (4, 11)]"
p2124
I-1
sS"146['attack', (14, 15)]"
p2125
I-1
sS"133['attack', (7, 15)]"
p2126
I-1
sS"215['attack', (4, 15)]"
p2127
I-1
sS"49['attack', (2, 11)]"
p2128
I-1
sS"289['move', (15, 2)]"
p2129
I-1
sS"227['attack', (10, 11)]"
p2130
I-1
sS"196['attack', (9, 10)]"
p2131
I-1
sS"130['guard']"
p2132
I-100
sS"36['attack', (2, 14)]"
p2133
I-1
sS"37['attack', (0, 10)]"
p2134
I-1
sS"14['attack', (9, 15)]"
p2135
I-1
sS"268['attack', (2, 14)]"
p2136
I-1
sS"68['attack', (0, 10)]"
p2137
I-1
sS"85['move', (16, 4)]"
p2138
I-1
sS"208['attack', (2, 12)]"
p2139
I-1
sS"218['attack', (6, 3)]"
p2140
I-2
sS"18['attack', (6, 13)]"
p2141
I-1
sS"74['attack', (15, 11)]"
p2142
I-1
sS"231['attack', (12, 3)]"
p2143
I-1
sS"63['attack', (5, 7)]"
p2144
I-1
sS"183['attack', (16, 9)]"
p2145
I-1
sS"176['attack', (15, 15)]"
p2146
I-1
sS"227['attack', (15, 13)]"
p2147
I-1
sS"389['attack', (4, 7)]"
p2148
I-1
sS"295['attack', (4, 15)]"
p2149
I-1
sS"13['attack', (4, 5)]"
p2150
I-1
sS"192['attack', (4, 3)]"
p2151
I-1
sS"132['move', (11, 2)]"
p2152
I-1
sS"322['attack', (15, 4)]"
p2153
I-1
sS"94['attack', (10, 17)]"
p2154
I-1
sS"157['attack', (13, 7)]"
p2155
I-1
sS"144['attack', (17, 10)]"
p2156
I-1
sS"74['attack', (6, 16)]"
p2157
I-2
sS"68['attack', (9, 18)]"
p2158
I-1
sS"174['attack', (2, 3)]"
p2159
I-2
sS"12['move', (16, 4)]"
p2160
I-1
sS"69['attack', (17, 5)]"
p2161
I-1
sS"276['attack', (11, 11)]"
p2162
I-1
sS"1['attack', (1, 12)]"
p2163
I-1
sS"18['attack', (14, 15)]"
p2164
I-1
sS"37['attack', (12, 3)]"
p2165
I-1
sS"79['attack', (15, 12)]"
p2166
I-1
sS"173['attack', (6, 16)]"
p2167
I-1
sS"11['attack', (8, 15)]"
p2168
I-1
sS"214['attack', (3, 5)]"
p2169
I-1
sS"24['attack', (4, 14)]"
p2170
I-1
sS"304['attack', (15, 15)]"
p2171
I-1
sS"1048618['attack', (3, 5)]"
p2172
I-1
sS"271['attack', (15, 9)]"
p2173
I-1
sS"96['attack', (13, 8)]"
p2174
I-1
sS"273['attack', (13, 12)]"
p2175
I-1
sS"50['attack', (5, 11)]"
p2176
I-1
sS"196['attack', (7, 12)]"
p2177
I-1
sS"43['attack', (14, 10)]"
p2178
I-1
sS"257['move', (2, 4)]"
p2179
I-1
sS"1048705['attack', (13, 10)]"
p2180
I-1
sS"41['attack', (1, 10)]"
p2181
I-3
sS"216['attack', (17, 9)]"
p2182
I-2
sS"231['attack', (6, 11)]"
p2183
I-1
sS"69['attack', (3, 16)]"
p2184
I-1
sS"36['move', (3, 2)]"
p2185
I-1
sS"19['attack', (6, 4)]"
p2186
I-1
sS"36['attack', (1, 10)]"
p2187
I-2
sS"1048873['attack', (15, 3)]"
p2188
I-1
sS"147['attack', (9, 0)]"
p2189
I-1
sS"363['attack', (3, 14)]"
p2190
I-1
sS"64['attack', (2, 10)]"
p2191
I-1
sS"247['attack', (4, 4)]"
p2192
I-2
sS"4['attack', (17, 9)]"
p2193
I-1
sS"104['attack', (15, 3)]"
p2194
I-1
sS"64['attack', (8, 18)]"
p2195
I-1
sS"6['attack', (2, 12)]"
p2196
I-1
sS"92['attack', (5, 4)]"
p2197
I-1
sS"156['move', (15, 12)]"
p2198
I-1
sS"1048734['move', (3, 6)]"
p2199
I-1
sS"202['attack', (15, 6)]"
p2200
I-1
sS"217['attack', (12, 16)]"
p2201
I-1
sS"144['attack', (11, 17)]"
p2202
I-1
sS"433['attack', (2, 6)]"
p2203
I-1
sS"180['attack', (6, 12)]"
p2204
I-1
sS"63['move', (3, 16)]"
p2205
I-1
sS"243['attack', (6, 12)]"
p2206
I-1
sS"356['attack', (4, 4)]"
p2207
I-1
sS"95['attack', (1, 5)]"
p2208
I-1
sS"56['attack', (3, 8)]"
p2209
I-1
sS"288['attack', (7, 1)]"
p2210
I-1
sS"72['attack', (12, 14)]"
p2211
I-1
sS"136['attack', (6, 10)]"
p2212
I-1
sS"379['attack', (11, 11)]"
p2213
I-1
sS"218['attack', (15, 15)]"
p2214
I-1
sS"67['attack', (15, 12)]"
p2215
I-1
sS"8['attack', (14, 14)]"
p2216
I-1
sS"208['attack', (10, 1)]"
p2217
I-1
sS"75['attack', (6, 4)]"
p2218
I-1
sS"242['attack', (6, 9)]"
p2219
I-1
sS"1048764['attack', (9, 17)]"
p2220
I-1
sS"138['attack', (15, 16)]"
p2221
I-1
sS"62['attack', (12, 2)]"
p2222
I-1
sS"37['attack', (0, 8)]"
p2223
I-1
sS"74['move', (1, 6)]"
p2224
I-1
sS"99['attack', (14, 4)]"
p2225
I-1
sS"154['move', (16, 14)]"
p2226
I-1
sS"73['attack', (5, 17)]"
p2227
I-2
sS"268['attack', (16, 7)]"
p2228
I-2
sS"202['attack', (9, 5)]"
p2229
I-1
sS"290['attack', (17, 12)]"
p2230
I-1
sS"385['attack', (2, 15)]"
p2231
I-1
sS"203['move', (4, 16)]"
p2232
I-1
sS"7['attack', (9, 4)]"
p2233
I-1
sS"0['move', (9, 0)]"
p2234
I-2
sS"180['attack', (15, 14)]"
p2235
I-1
sS"157['attack', (5, 5)]"
p2236
I-1
sS"195['attack', (2, 14)]"
p2237
I-1
sS"98['attack', (1, 7)]"
p2238
I-1
sS"129['guard']"
p2239
I-1
sS"84['attack', (14, 12)]"
p2240
I-1
sS"14['attack', (13, 4)]"
p2241
I-2
sS"161['attack', (14, 14)]"
p2242
I-1
sS"176['attack', (17, 11)]"
p2243
I-1
sS"1['attack', (7, 8)]"
p2244
I-1
sS"195['attack', (7, 4)]"
p2245
I-1
sS"263['attack', (1, 5)]"
p2246
I-1
sS"175['attack', (9, 17)]"
p2247
I-1
sS"50['move', (1, 12)]"
p2248
I-1
sS"52['attack', (8, 11)]"
p2249
I-1
sS"175['attack', (16, 10)]"
p2250
I-1
sS"13['attack', (18, 9)]"
p2251
I-1
sS"54['attack', (7, 14)]"
p2252
I-1
sS"32['move', (1, 6)]"
p2253
I-1
sS"116['attack', (15, 4)]"
p2254
I-1
sS"139['attack', (15, 6)]"
p2255
I-1
sS"130['attack', (15, 13)]"
p2256
I-1
sS"164['attack', (13, 2)]"
p2257
I-1
sS"104['attack', (2, 7)]"
p2258
I-2
sS"78['move', (6, 17)]"
p2259
I-1
sS"9['attack', (4, 14)]"
p2260
I-1
sS"251['move', (14, 16)]"
p2261
I-1
sS"194['attack', (4, 6)]"
p2262
I-1
sS"170['attack', (6, 16)]"
p2263
I-1
sS"151['move', (2, 7)]"
p2264
I-100
sS"88['attack', (9, 8)]"
p2265
I-1
sS"25['attack', (10, 1)]"
p2266
I-1
sS"227['attack', (4, 15)]"
p2267
I-1
sS"96['attack', (15, 13)]"
p2268
I-1
sS"179['attack', (7, 10)]"
p2269
I-1
sS"182['attack', (9, 7)]"
p2270
I-1
sS"193['attack', (6, 7)]"
p2271
I-1
sS"143['move', (16, 5)]"
p2272
I-1
sS"143['attack', (0, 9)]"
p2273
I-1
sS"198['attack', (6, 16)]"
p2274
I-1
sS"226['move', (3, 4)]"
p2275
I100
sS"0['attack', (11, 16)]"
p2276
I-1
sS"36['attack', (12, 14)]"
p2277
I-2
sS"88['attack', (12, 4)]"
p2278
I-1
sS"31['attack', (4, 7)]"
p2279
I-101
sS"57['attack', (2, 10)]"
p2280
I-1
sS"198['attack', (3, 13)]"
p2281
I-1
sS"0['attack', (14, 13)]"
p2282
I-1
sS"188['move', (11, 12)]"
p2283
I100
sS"74['attack', (14, 13)]"
p2284
I-1
sS"134['attack', (13, 7)]"
p2285
I-1
sS"1048683['attack', (14, 13)]"
p2286
I-1
sS"148['move', (0, 10)]"
p2287
I-1
sS"165['attack', (10, 1)]"
p2288
I-1
sS"85['move', (0, 11)]"
p2289
I-1
sS"1048612['attack', (7, 2)]"
p2290
I-1
sS"4['move', (16, 15)]"
p2291
I-1
sS"130['attack', (16, 5)]"
p2292
I-1
sS"305['attack', (2, 9)]"
p2293
I-1
sS"197['attack', (8, 3)]"
p2294
I-1
sS"42['attack', (5, 3)]"
p2295
I-1
sS"165['move', (0, 11)]"
p2296
I-1
sS"40['attack', (13, 2)]"
p2297
I-2
sS"66['attack', (4, 13)]"
p2298
I-1
sS"70['attack', (14, 11)]"
p2299
I-1
sS"195['attack', (1, 5)]"
p2300
I-1
sS"203['attack', (1, 8)]"
p2301
I-1
sS"19['move', (8, 2)]"
p2302
I-1
sS"132['attack', (15, 10)]"
p2303
I-2
sS"102['attack', (17, 6)]"
p2304
I-2
sS"64['move', (11, 0)]"
p2305
I-1
sS"2['attack', (11, 2)]"
p2306
I-2
sS"239['attack', (10, 5)]"
p2307
I-101
sS"188['attack', (15, 11)]"
p2308
I-1
sS"81['attack', (10, 6)]"
p2309
I-1
sS"26['attack', (7, 15)]"
p2310
I-1
sS"179['move', (1, 13)]"
p2311
I-1
sS"98['attack', (13, 6)]"
p2312
I-1
sS"308['attack', (9, 3)]"
p2313
I-1
sS"104['attack', (17, 6)]"
p2314
I-1
sS"270['attack', (4, 3)]"
p2315
I-1
sS"110['attack', (15, 12)]"
p2316
I-1
sS"180['attack', (8, 14)]"
p2317
I-1
sS"37['move', (18, 8)]"
p2318
I-1
sS"32['move', (4, 16)]"
p2319
I-1
sS"138['move', (2, 3)]"
p2320
I-1
sS"156['attack', (2, 11)]"
p2321
I-1
sS"8['move', (6, 17)]"
p2322
I-2
sS"101['attack', (7, 16)]"
p2323
I-1
sS"212['guard']"
p2324
I-1
sS"136['attack', (10, 0)]"
p2325
I-1
sS"10['move', (14, 16)]"
p2326
I-2
sS"99['attack', (4, 7)]"
p2327
I-1
sS"84['attack', (4, 14)]"
p2328
I-1
sS"148['attack', (12, 2)]"
p2329
I-1
sS"291['move', (2, 4)]"
p2330
I-2
sS"38['attack', (7, 14)]"
p2331
I-1
sS"113['attack', (6, 2)]"
p2332
I-1
sS"20['attack', (1, 9)]"
p2333
I-1
sS"289['attack', (6, 7)]"
p2334
I-1
sS"274['attack', (6, 2)]"
p2335
I-1
sS"379['attack', (14, 3)]"
p2336
I-1
sS"296['attack', (3, 10)]"
p2337
I-1
sS"155['attack', (4, 14)]"
p2338
I-1
sS"22['attack', (2, 11)]"
p2339
I-1
sS"201['attack', (3, 13)]"
p2340
I-1
sS"306['attack', (15, 8)]"
p2341
I-1
sS"281['attack', (3, 14)]"
p2342
I-1
sS"100['attack', (3, 6)]"
p2343
I-1
sS"194['attack', (17, 7)]"
p2344
I-2
sS"239['attack', (13, 12)]"
p2345
I-1
sS"166['attack', (10, 1)]"
p2346
I-1
sS"40['attack', (15, 3)]"
p2347
I-1
sS"1048749['attack', (5, 12)]"
p2348
I-1
sS"208['attack', (7, 11)]"
p2349
I-1
sS"25['attack', (9, 2)]"
p2350
I-3
sS"48['attack', (11, 0)]"
p2351
I-1
sS"168['attack', (9, 1)]"
p2352
I-1
sS"135['attack', (12, 4)]"
p2353
I-1
sS"196['attack', (7, 17)]"
p2354
I-1
sS"74['attack', (14, 15)]"
p2355
I-1
sS"303['attack', (4, 15)]"
p2356
I-1
sS"66['attack', (16, 13)]"
p2357
I-1
sS"129['attack', (10, 16)]"
p2358
I-1
sS"78['attack', (16, 10)]"
p2359
I-1
sS"137['attack', (13, 10)]"
p2360
I-1
sS"295['attack', (5, 12)]"
p2361
I-1
sS"94['attack', (4, 9)]"
p2362
I-1
sS"0['attack', (17, 13)]"
p2363
I-2
sS"140['move', (18, 8)]"
p2364
I-1
sS"171['attack', (15, 11)]"
p2365
I-1
sS"65['attack', (6, 1)]"
p2366
I-1
sS"97['move', (3, 2)]"
p2367
I-1
sS"102['attack', (11, 18)]"
p2368
I-2
sS"77['attack', (5, 13)]"
p2369
I-1
sS"122['move', (1, 5)]"
p2370
I-1
sS"238['attack', (2, 10)]"
p2371
I-1
sS"51['attack', (16, 12)]"
p2372
I-1
sS"323['move', (6, 17)]"
p2373
I-1
sS"1048622['attack', (2, 6)]"
p2374
I-1
sS"205['attack', (2, 11)]"
p2375
I-101
sS"102['attack', (5, 9)]"
p2376
I-1
sS"65['move', (11, 0)]"
p2377
I-1
sS"42['attack', (13, 14)]"
p2378
I-1
sS"137['attack', (3, 12)]"
p2379
I-1
sS"36['attack', (6, 3)]"
p2380
I-1
sS"77['attack', (11, 10)]"
p2381
I-1
sS"141['move', (3, 15)]"
p2382
I-1
sS"237['attack', (10, 9)]"
p2383
I-1
sS"238['attack', (5, 15)]"
p2384
I-1
sS"169['attack', (2, 14)]"
p2385
I-1
sS"97['attack', (4, 10)]"
p2386
I-1
sS"99['attack', (13, 5)]"
p2387
I-1
sS"202['move', (4, 16)]"
p2388
I-1
sS"282['guard']"
p2389
I-1
sS"201['attack', (11, 2)]"
p2390
I-1
sS"287['move', (4, 2)]"
p2391
I-1
sS"59['move', (4, 16)]"
p2392
I-1
sS"33['attack', (5, 4)]"
p2393
I-1
sS"1048793['attack', (13, 2)]"
p2394
I-1
sS"24['attack', (1, 7)]"
p2395
I-1
sS"118['move', (1, 12)]"
p2396
I-1
sS"97['attack', (10, 1)]"
p2397
I-1
sS"72['move', (15, 2)]"
p2398
I-1
sS"117['move', (1, 12)]"
p2399
I-1
sS"12['attack', (11, 3)]"
p2400
I-1
sS"94['attack', (11, 4)]"
p2401
I-1
sS"213['attack', (15, 12)]"
p2402
I-1
sS"97['attack', (16, 12)]"
p2403
I-1
sS"82['guard']"
p2404
I-1
sS"123['attack', (5, 9)]"
p2405
I-1
sS"261['attack', (2, 14)]"
p2406
I-1
sS"136['move', (0, 9)]"
p2407
I-1
sS"147['attack', (0, 11)]"
p2408
I-1
sS"41['attack', (10, 2)]"
p2409
I-1
sS"141['move', (8, 0)]"
p2410
I-1
sS"11['attack', (0, 9)]"
p2411
I-1
sS"212['move', (18, 9)]"
p2412
I-1
sS"156['attack', (14, 8)]"
p2413
I-1
sS"133['attack', (5, 16)]"
p2414
I-1
sS"83['attack', (9, 12)]"
p2415
I-1
sS"26['attack', (3, 8)]"
p2416
I-1
sS"368['move', (14, 16)]"
p2417
I-1
sS"35['attack', (3, 14)]"
p2418
I-2
sS"364['attack', (5, 15)]"
p2419
I-2
sS"147['move', (2, 14)]"
p2420
I-1
sS"77['attack', (5, 1)]"
p2421
I-1
sS"98['attack', (7, 1)]"
p2422
I-1
sS"220['move', (2, 14)]"
p2423
I-1
sS"102['attack', (15, 14)]"
p2424
I-2
sS"235['attack', (3, 9)]"
p2425
I-1
sS"218['move', (17, 6)]"
p2426
I-2
sS"58['attack', (6, 6)]"
p2427
I-1
sS"203['attack', (5, 13)]"
p2428
I-1
sS"33['move', (18, 7)]"
p2429
I-1
sS"26['move', (12, 1)]"
p2430
I-1
sS"30['move', (16, 4)]"
p2431
I-2
sS"295['attack', (11, 14)]"
p2432
I-1
sS"132['attack', (2, 9)]"
p2433
I-1
sS"96['attack', (10, 4)]"
p2434
I-1
sS"698['attack', (12, 4)]"
p2435
I99
sS"1048616['attack', (7, 2)]"
p2436
I-1
sS"226['attack', (10, 10)]"
p2437
I-1
sS"8['attack', (12, 5)]"
p2438
I-1
sS"4['attack', (16, 15)]"
p2439
I-1
sS"224['attack', (16, 8)]"
p2440
I-1
sS"224['attack', (8, 18)]"
p2441
I-1
sS"70['attack', (6, 17)]"
p2442
I-1
sS"158['attack', (17, 11)]"
p2443
I-1
sS"52['move', (3, 13)]"
p2444
I-100
sS"276['attack', (6, 15)]"
p2445
I-1
sS"245['attack', (12, 5)]"
p2446
I-1
sS"136['attack', (1, 6)]"
p2447
I-1
sS"182['attack', (2, 14)]"
p2448
I-2
sS"202['attack', (2, 9)]"
p2449
I-1
sS"272['attack', (3, 12)]"
p2450
I-1
sS"32['attack', (1, 8)]"
p2451
I-101
sS"128['attack', (12, 1)]"
p2452
I-1
sS"1['attack', (4, 2)]"
p2453
I-1
sS"276['move', (16, 4)]"
p2454
I-1
sS"18['attack', (6, 15)]"
p2455
I-1
sS"7['attack', (17, 10)]"
p2456
I-1
sS"88['move', (8, 18)]"
p2457
I-1
sS"58['attack', (5, 3)]"
p2458
I-1
sS"409['attack', (16, 8)]"
p2459
I-1
sS"199['attack', (12, 15)]"
p2460
I-1
sS"80['attack', (8, 16)]"
p2461
I-1
sS"66['attack', (10, 3)]"
p2462
I-1
sS"336['attack', (16, 4)]"
p2463
I-1
sS"190['move', (14, 4)]"
p2464
I-1
sS"31['attack', (16, 4)]"
p2465
I-1
sS"74['attack', (11, 5)]"
p2466
I-1
sS"167['move', (1, 12)]"
p2467
I-1
sS"239['attack', (13, 14)]"
p2468
I-1
sS"326['attack', (8, 2)]"
p2469
I-1
sS"43['move', (1, 9)]"
p2470
I-1
sS"151['attack', (8, 4)]"
p2471
I-1
sS"104['attack', (15, 13)]"
p2472
I-1
sS"177['attack', (11, 7)]"
p2473
I-1
sS"36['attack', (12, 16)]"
p2474
I-2
sS"230['attack', (5, 5)]"
p2475
I-1
sS"43['attack', (0, 10)]"
p2476
I-1
sS"148['attack', (5, 10)]"
p2477
I-1
sS"36['attack', (2, 10)]"
p2478
I-1
sS"217['attack', (14, 5)]"
p2479
I-1
sS"207['attack', (8, 10)]"
p2480
I-1
sS"284['attack', (15, 5)]"
p2481
I-2
sS"60['attack', (17, 12)]"
p2482
I-1
sS"210['move', (6, 17)]"
p2483
I-1
sS"280['attack', (4, 15)]"
p2484
I-1
sS"266['attack', (7, 4)]"
p2485
I-1
sS"302['attack', (12, 9)]"
p2486
I-1
sS"9['attack', (9, 1)]"
p2487
I-1
sS"97['move', (2, 4)]"
p2488
I-3
sS"80['attack', (6, 4)]"
p2489
I-1
sS"196['attack', (7, 4)]"
p2490
I-1
sS"165['attack', (10, 4)]"
p2491
I-1
sS"116['attack', (3, 6)]"
p2492
I-2
sS"48['guard']"
p2493
I-1
sS"194['attack', (11, 16)]"
p2494
I-1
sS"50['attack', (10, 1)]"
p2495
I-2
sS"163['attack', (14, 4)]"
p2496
I-1
sS"352['attack', (5, 14)]"
p2497
I-1
sS"190['attack', (15, 11)]"
p2498
I-1
sS"156['move', (13, 15)]"
p2499
I-1
sS"263['attack', (6, 17)]"
p2500
I-1
sS"91['attack', (10, 8)]"
p2501
I-1
sS"286['attack', (16, 12)]"
p2502
I-1
sS"471['attack', (15, 12)]"
p2503
I-1
sS"271['attack', (9, 8)]"
p2504
I-1
sS"120['attack', (2, 6)]"
p2505
I-1
sS"132['attack', (4, 15)]"
p2506
I-1
sS"344['attack', (14, 5)]"
p2507
I-1
sS"29['attack', (5, 4)]"
p2508
I-1
sS"144['attack', (12, 17)]"
p2509
I-1
sS"231['attack', (15, 14)]"
p2510
I-1
sS"153['attack', (10, 10)]"
p2511
I-1
sS"330['attack', (9, 18)]"
p2512
I-1
sS"263['attack', (4, 6)]"
p2513
I-1
sS"46['attack', (18, 7)]"
p2514
I-1
sS"90['attack', (4, 14)]"
p2515
I-1
sS"65['attack', (2, 11)]"
p2516
I-2
sS"289['attack', (8, 14)]"
p2517
I-1
sS"111['attack', (7, 2)]"
p2518
I-1
sS"4['attack', (15, 14)]"
p2519
I-2
sS"162['move', (2, 14)]"
p2520
I-1
sS"36['move', (12, 17)]"
p2521
I-3
sS"24['move', (11, 0)]"
p2522
I-1
sS"24['attack', (16, 9)]"
p2523
I-1
sS"23['move', (6, 17)]"
p2524
I-1
sS"212['attack', (7, 3)]"
p2525
I-1
sS"46['attack', (15, 4)]"
p2526
I-1
sS"330['attack', (6, 15)]"
p2527
I-1
sS"33['attack', (0, 8)]"
p2528
I-2
sS"272['attack', (6, 12)]"
p2529
I-101
sS"121['attack', (3, 5)]"
p2530
I-1
sS"1048770['attack', (13, 11)]"
p2531
I-2
sS"10['attack', (5, 15)]"
p2532
I-2
sS"192['attack', (13, 6)]"
p2533
I-1
sS"187['move', (9, 0)]"
p2534
I-1
sS"278['attack', (6, 3)]"
p2535
I-1
sS"130['move', (12, 3)]"
p2536
I-1
sS"51['attack', (5, 16)]"
p2537
I-1
sS"146['move', (7, 0)]"
p2538
I-1
sS"32['attack', (6, 3)]"
p2539
I-1
sS"158['attack', (5, 7)]"
p2540
I-1
sS"164['attack', (15, 5)]"
p2541
I-1
sS"210['attack', (2, 3)]"
p2542
I-1
sS"149['attack', (4, 14)]"
p2543
I-1
sS"0['move', (8, 18)]"
p2544
I-1
sS"269['move', (6, 17)]"
p2545
I-1
sS"274['attack', (7, 15)]"
p2546
I-1
sS"67['attack', (10, 0)]"
p2547
I-1
sS"204['attack', (7, 14)]"
p2548
I-1
sS"340['attack', (16, 6)]"
p2549
I-1
sS"161['attack', (5, 2)]"
p2550
I-1
sS"1['move', (4, 2)]"
p2551
I-1
sS"53['move', (2, 3)]"
p2552
I-1
sS"30['attack', (3, 13)]"
p2553
I-1
sS"430['attack', (3, 12)]"
p2554
I-1
sS"461['attack', (5, 11)]"
p2555
I99
sS"104['attack', (5, 3)]"
p2556
I-1
sS"25['attack', (4, 12)]"
p2557
I-1
sS"86['attack', (5, 13)]"
p2558
I-1
sS"98['attack', (2, 9)]"
p2559
I-1
sS"9['attack', (4, 8)]"
p2560
I-1
sS"276['attack', (11, 5)]"
p2561
I-1
sS"345['attack', (17, 6)]"
p2562
I-2
sS"19['move', (16, 14)]"
p2563
I-1
sS"182['move', (8, 11)]"
p2564
I-100
sS"259['move', (6, 1)]"
p2565
I-1
sS"44['attack', (15, 13)]"
p2566
I-1
sS"235['attack', (10, 4)]"
p2567
I-1
sS"67['attack', (5, 10)]"
p2568
I-1
sS"152['attack', (2, 11)]"
p2569
I-1
sS"70['attack', (1, 12)]"
p2570
I-1
sS"88['attack', (9, 16)]"
p2571
I-1
sS"82['attack', (16, 7)]"
p2572
I-1
sS"110['attack', (5, 17)]"
p2573
I-1
sS"153['attack', (14, 10)]"
p2574
I-1
sS"47['move', (6, 1)]"
p2575
I-3
sS"210['move', (16, 15)]"
p2576
I-1
sS"139['attack', (10, 4)]"
p2577
I-1
sS"134['move', (0, 11)]"
p2578
I-2
sS"360['attack', (15, 5)]"
p2579
I-1
sS"76['attack', (12, 13)]"
p2580
I-2
sS"16['attack', (10, 17)]"
p2581
I-1
sS"204['attack', (8, 11)]"
p2582
I-1
sS"211['attack', (15, 15)]"
p2583
I-1
sS"336['attack', (12, 4)]"
p2584
I-1
sS"131['attack', (16, 10)]"
p2585
I-2
sS"293['attack', (17, 7)]"
p2586
I-1
sS"92['attack', (5, 12)]"
p2587
I-1
sS"39['attack', (4, 12)]"
p2588
I-1
sS"30['attack', (11, 7)]"
p2589
I-1
sS"74['attack', (2, 11)]"
p2590
I-1
sS"58['attack', (5, 13)]"
p2591
I-1
sS"168['attack', (8, 14)]"
p2592
I-1
sS"152['attack', (1, 6)]"
p2593
I-1
sS"10['attack', (7, 18)]"
p2594
I-1
sS"69['attack', (7, 12)]"
p2595
I-1
sS"300['attack', (3, 12)]"
p2596
I-1
sS"76['attack', (7, 3)]"
p2597
I-1
sS"284['attack', (16, 6)]"
p2598
I-1
sS"370['attack', (8, 2)]"
p2599
I-1
sS"122['attack', (12, 5)]"
p2600
I-1
sS"328['attack', (9, 4)]"
p2601
I-1
sS"98['attack', (11, 16)]"
p2602
I-1
sS"102['attack', (13, 16)]"
p2603
I-1
sS"22['attack', (3, 13)]"
p2604
I-1
sS"65['attack', (13, 3)]"
p2605
I-1
sS"52['attack', (3, 13)]"
p2606
I-1
sS"110['attack', (12, 5)]"
p2607
I-1
sS"183['move', (12, 3)]"
p2608
I-100
sS"128['attack', (10, 3)]"
p2609
I-1
sS"20['attack', (2, 10)]"
p2610
I-2
sS"296['attack', (5, 11)]"
p2611
I-1
sS"24['move', (12, 1)]"
p2612
I-2
sS"238['move', (17, 8)]"
p2613
I-1
sS"136['attack', (4, 5)]"
p2614
I-1
sS"211['attack', (14, 16)]"
p2615
I-1
sS"152['attack', (3, 10)]"
p2616
I-1
sS"308['attack', (8, 4)]"
p2617
I-1
sS"72['attack', (9, 1)]"
p2618
I-1
sS"46['attack', (8, 11)]"
p2619
I-1
sS"66['attack', (13, 12)]"
p2620
I-1
sS"141['attack', (14, 7)]"
p2621
I-1
sS"481['attack', (4, 15)]"
p2622
I-1
sS"95['attack', (10, 3)]"
p2623
I-1
sS"130['attack', (10, 16)]"
p2624
I-3
sS"140['attack', (13, 4)]"
p2625
I-1
sS"108['attack', (15, 16)]"
p2626
I-101
sS"340['attack', (17, 5)]"
p2627
I-1
sS"50['move', (11, 0)]"
p2628
I-2
sS"288['attack', (14, 9)]"
p2629
I-1
sS"115['attack', (10, 4)]"
p2630
I-1
sS"347['attack', (7, 16)]"
p2631
I-1
sS"73['attack', (2, 11)]"
p2632
I-1
sS"296['attack', (7, 15)]"
p2633
I-1
sS"60['attack', (11, 0)]"
p2634
I-2
sS"132['attack', (7, 16)]"
p2635
I-1
sS"97['attack', (2, 10)]"
p2636
I-1
sS"150['attack', (14, 8)]"
p2637
I-1
sS"13['attack', (4, 10)]"
p2638
I-1
sS"202['attack', (7, 0)]"
p2639
I-1
sS"26['attack', (14, 14)]"
p2640
I-1
sS"43['move', (0, 10)]"
p2641
I-1
sS"139['move', (9, 2)]"
p2642
I100
sS"36['attack', (14, 12)]"
p2643
I-1
sS"512['attack', (5, 13)]"
p2644
I-1
sS"129['attack', (3, 4)]"
p2645
I-1
sS"199['attack', (6, 11)]"
p2646
I-1
sS"26['attack', (0, 10)]"
p2647
I-2
sS"283['attack', (12, 15)]"
p2648
I-1
sS"56['move', (18, 8)]"
p2649
I-1
sS"0['move', (1, 6)]"
p2650
I-1
sS"91['move', (16, 15)]"
p2651
I-2
sS"70['attack', (18, 9)]"
p2652
I-1
sS"18['attack', (3, 14)]"
p2653
I-1
sS"272['attack', (14, 15)]"
p2654
I-1
sS"282['move', (4, 16)]"
p2655
I-1
sS"388['attack', (10, 16)]"
p2656
I-1
sS"322['move', (1, 13)]"
p2657
I-1
sS"137['attack', (16, 12)]"
p2658
I-1
sS"262['attack', (6, 14)]"
p2659
I-1
sS"32['attack', (11, 7)]"
p2660
I-1
sS"168['attack', (17, 13)]"
p2661
I-2
sS"240['attack', (7, 16)]"
p2662
I-1
sS"35['attack', (7, 3)]"
p2663
I-1
sS"34['move', (7, 0)]"
p2664
I-1
sS"294['attack', (4, 16)]"
p2665
I-1
sS"202['move', (4, 2)]"
p2666
I-1
sS"32['attack', (2, 4)]"
p2667
I-1
sS"292['attack', (12, 4)]"
p2668
I-1
sS"69['attack', (2, 8)]"
p2669
I-1
sS"82['attack', (2, 4)]"
p2670
I-1
sS"183['attack', (5, 3)]"
p2671
I-1
sS"53['move', (0, 9)]"
p2672
I-1
sS"136['attack', (7, 3)]"
p2673
I-1
sS"1048940['attack', (12, 4)]"
p2674
I-1
sS"295['attack', (7, 12)]"
p2675
I-1
sS"18['attack', (11, 18)]"
p2676
I-1
sS"32['attack', (5, 7)]"
p2677
I-1
sS"285['attack', (4, 2)]"
p2678
I-1
sS"76['attack', (10, 2)]"
p2679
I-1
sS"274['attack', (6, 17)]"
p2680
I-1
sS"89['attack', (8, 3)]"
p2681
I-1
sS"386['attack', (3, 8)]"
p2682
I-1
sS"521['move', (3, 15)]"
p2683
I-1
sS"158['attack', (6, 10)]"
p2684
I-1
sS"96['attack', (10, 3)]"
p2685
I-1
sS"234['move', (2, 4)]"
p2686
I-1
sS"88['attack', (15, 14)]"
p2687
I-1
sS"161['attack', (4, 9)]"
p2688
I-1
sS"344['attack', (12, 14)]"
p2689
I-1
sS"280['attack', (3, 9)]"
p2690
I-1
sS"131['attack', (2, 11)]"
p2691
I-2
sS"18['move', (5, 15)]"
p2692
I-100
sS"392['move', (5, 14)]"
p2693
I100
sS"162['move', (12, 17)]"
p2694
I-1
sS"304['attack', (6, 10)]"
p2695
I-1
sS"68['attack', (1, 7)]"
p2696
I-1
sS"72['attack', (9, 4)]"
p2697
I-1
sS"1048844['attack', (7, 4)]"
p2698
I-1
sS"132['attack', (6, 13)]"
p2699
I-1
sS"137['move', (2, 3)]"
p2700
I-1
sS"0['attack', (10, 14)]"
p2701
I-1
sS"325['attack', (3, 6)]"
p2702
I-1
sS"211['move', (14, 2)]"
p2703
I-1
sS"64['attack', (7, 13)]"
p2704
I-1
sS"111['attack', (8, 12)]"
p2705
I-1
sS"83['attack', (14, 4)]"
p2706
I-1
sS"147['attack', (5, 5)]"
p2707
I-1
sS"6['attack', (3, 4)]"
p2708
I-1
sS"166['attack', (2, 6)]"
p2709
I-1
sS"222['attack', (2, 4)]"
p2710
I-1
sS"366['attack', (4, 15)]"
p2711
I-1
sS"187['attack', (9, 3)]"
p2712
I-1
sS"188['attack', (8, 2)]"
p2713
I-1
sS"237['attack', (11, 3)]"
p2714
I-1
sS"128['attack', (8, 18)]"
p2715
I-1
sS"46['attack', (6, 15)]"
p2716
I-1
sS"18['attack', (15, 14)]"
p2717
I-1
sS"178['attack', (11, 12)]"
p2718
I-1
sS"38['attack', (13, 6)]"
p2719
I-1
sS"100['move', (1, 12)]"
p2720
I-2
sS"185['move', (1, 13)]"
p2721
I-1
sS"137['attack', (14, 8)]"
p2722
I-1
sS"206['move', (4, 16)]"
p2723
I-101
sS"112['move', (6, 17)]"
p2724
I-1
sS"105['attack', (4, 3)]"
p2725
I-1
sS"28['attack', (16, 4)]"
p2726
I-1
sS"209['attack', (14, 14)]"
p2727
I-1
sS"1['attack', (14, 6)]"
p2728
I-1
sS"175['attack', (11, 12)]"
p2729
I-1
sS"52['attack', (7, 14)]"
p2730
I-2
sS"76['attack', (12, 4)]"
p2731
I-1
sS"250['attack', (11, 15)]"
p2732
I-1
sS"2['attack', (2, 12)]"
p2733
I-2
sS"304['attack', (10, 3)]"
p2734
I-1
sS"89['attack', (13, 15)]"
p2735
I-1
sS"164['attack', (6, 16)]"
p2736
I-2
sS"169['attack', (9, 0)]"
p2737
I-1
sS"5['attack', (7, 4)]"
p2738
I-1
sS"1048804['attack', (11, 12)]"
p2739
I-1
sS"164['attack', (7, 16)]"
p2740
I-2
sS"17['attack', (16, 6)]"
p2741
I-1
sS"132['attack', (3, 4)]"
p2742
I-1
sS"129['move', (10, 0)]"
p2743
I-1
sS"89['attack', (2, 8)]"
p2744
I-1
sS"104['attack', (3, 11)]"
p2745
I-2
sS"151['attack', (9, 3)]"
p2746
I-1
sS"364['attack', (15, 12)]"
p2747
I-1
sS"253['attack', (7, 4)]"
p2748
I-1
sS"20['attack', (3, 15)]"
p2749
I-1
sS"163['attack', (5, 3)]"
p2750
I-1
sS"37['attack', (17, 8)]"
p2751
I-1
sS"1048649['move', (1, 10)]"
p2752
I-1
sS"196['move', (4, 2)]"
p2753
I-2
sS"160['attack', (7, 2)]"
p2754
I-1
sS"42['attack', (16, 9)]"
p2755
I-1
sS"164['attack', (12, 10)]"
p2756
I-1
sS"48['attack', (16, 15)]"
p2757
I-1
sS"8['attack', (5, 5)]"
p2758
I-2
sS"165['attack', (6, 14)]"
p2759
I-1
sS"160['attack', (16, 14)]"
p2760
I-1
sS"76['move', (2, 14)]"
p2761
I-1
sS"267['attack', (15, 16)]"
p2762
I-1
sS"124['attack', (16, 7)]"
p2763
I-1
sS"135['attack', (17, 8)]"
p2764
I-1
sS"183['attack', (11, 2)]"
p2765
I-1
sS"182['attack', (6, 9)]"
p2766
I-1
sS"321['attack', (10, 1)]"
p2767
I-1
sS"8['attack', (6, 15)]"
p2768
I-1
sS"259['move', (15, 2)]"
p2769
I-1
sS"320['attack', (4, 15)]"
p2770
I-1
sS"378['attack', (2, 9)]"
p2771
I-1
sS"244['attack', (12, 4)]"
p2772
I-1
sS"0['move', (11, 18)]"
p2773
I-1
sS"129['attack', (16, 12)]"
p2774
I-3
sS"278['attack', (6, 13)]"
p2775
I-101
sS"136['attack', (4, 7)]"
p2776
I-1
sS"203['attack', (4, 4)]"
p2777
I-1
sS"290['move', (12, 1)]"
p2778
I-1
sS"133['attack', (14, 15)]"
p2779
I-1
sS"456['attack', (9, 13)]"
p2780
I-1
sS"142['attack', (16, 13)]"
p2781
I-1
sS"384['attack', (7, 12)]"
p2782
I-1
sS"129['attack', (15, 14)]"
p2783
I-1
sS"74['attack', (5, 3)]"
p2784
I-1
sS"24['move', (17, 6)]"
p2785
I-1
sS"36['attack', (3, 4)]"
p2786
I-2
sS"154['attack', (16, 10)]"
p2787
I-1
sS"70['attack', (15, 4)]"
p2788
I-1
sS"48['attack', (9, 14)]"
p2789
I-2
sS"136['attack', (17, 9)]"
p2790
I-1
sS"40['move', (10, 18)]"
p2791
I-1
sS"185['attack', (15, 12)]"
p2792
I-1
sS"36['move', (18, 9)]"
p2793
I-1
sS"1049060['attack', (4, 10)]"
p2794
I-2
sS"128['attack', (18, 9)]"
p2795
I-2
sS"161['move', (1, 13)]"
p2796
I-1
sS"338['attack', (8, 3)]"
p2797
I-1
sS"130['attack', (2, 5)]"
p2798
I-1
sS"34['attack', (11, 3)]"
p2799
I-1
sS"104['attack', (15, 6)]"
p2800
I-1
sS"4['attack', (17, 11)]"
p2801
I-1
sS"9['attack', (1, 8)]"
p2802
I-1
sS"46['attack', (12, 12)]"
p2803
I-1
sS"119['attack', (4, 4)]"
p2804
I-1
sS"122['attack', (14, 7)]"
p2805
I-1
sS"42['attack', (6, 13)]"
p2806
I-1
sS"53['move', (18, 11)]"
p2807
I-1
sS"136['attack', (8, 15)]"
p2808
I-1
sS"1048623['attack', (14, 13)]"
p2809
I-1
sS"240['attack', (5, 3)]"
p2810
I-1
sS"136['attack', (11, 5)]"
p2811
I-1
sS"102['attack', (13, 15)]"
p2812
I-1
sS"175['attack', (2, 8)]"
p2813
I-1
sS"24['attack', (12, 3)]"
p2814
I-1
sS"28['attack', (2, 8)]"
p2815
I-1
sS"19['attack', (12, 2)]"
p2816
I-1
sS"1048649['attack', (2, 11)]"
p2817
I-1
sS"298['move', (4, 16)]"
p2818
I-1
sS"107['attack', (3, 5)]"
p2819
I-1
sS"176['attack', (13, 10)]"
p2820
I-1
sS"266['attack', (15, 5)]"
p2821
I-1
sS"15['attack', (10, 8)]"
p2822
I-1
sS"234['attack', (3, 12)]"
p2823
I-1
sS"299['attack', (2, 7)]"
p2824
I-1
sS"311['attack', (15, 10)]"
p2825
I-1
sS"180['attack', (5, 3)]"
p2826
I-1
sS"1048845['attack', (15, 12)]"
p2827
I-1
sS"81['attack', (3, 13)]"
p2828
I-1
sS"129['attack', (0, 11)]"
p2829
I-1
sS"217['attack', (4, 4)]"
p2830
I-1
sS"147['attack', (15, 9)]"
p2831
I-1
sS"294['attack', (12, 16)]"
p2832
I-1
sS"196['attack', (13, 11)]"
p2833
I-1
sS"22['attack', (17, 10)]"
p2834
I-1
sS"80['attack', (6, 13)]"
p2835
I-1
sS"234['move', (0, 8)]"
p2836
I-1
sS"93['attack', (3, 5)]"
p2837
I-1
sS"32['attack', (4, 4)]"
p2838
I-1
sS"166['attack', (7, 2)]"
p2839
I-1
sS"39['move', (1, 5)]"
p2840
I-2
sS"115['move', (0, 9)]"
p2841
I-1
sS"33['attack', (5, 8)]"
p2842
I-1
sS"349['move', (17, 6)]"
p2843
I-1
sS"48['attack', (13, 2)]"
p2844
I-1
sS"221['attack', (10, 6)]"
p2845
I-1
sS"9['attack', (12, 11)]"
p2846
I-1
sS"1['attack', (2, 6)]"
p2847
I-1
sS"148['move', (18, 8)]"
p2848
I-1
sS"197['move', (16, 14)]"
p2849
I-2
sS"255['attack', (12, 8)]"
p2850
I-1
sS"461['attack', (6, 16)]"
p2851
I-1
sS"194['move', (13, 15)]"
p2852
I100
sS"280['attack', (15, 6)]"
p2853
I-1
sS"183['attack', (6, 15)]"
p2854
I-1
sS"5['move', (16, 6)]"
p2855
I-1
sS"213['move', (8, 2)]"
p2856
I-100
sS"342['attack', (17, 12)]"
p2857
I-1
sS"93['move', (18, 7)]"
p2858
I-1
sS"233['attack', (1, 11)]"
p2859
I-1
sS"187['move', (9, 2)]"
p2860
I-1
sS"320['attack', (10, 14)]"
p2861
I-1
sS"172['attack', (9, 17)]"
p2862
I-1
sS"98['attack', (6, 3)]"
p2863
I-1
sS"144['move', (5, 4)]"
p2864
I-100
sS"276['move', (5, 1)]"
p2865
I-1
sS"89['attack', (16, 13)]"
p2866
I-1
sS"87['move', (15, 2)]"
p2867
I-1
sS"212['attack', (4, 6)]"
p2868
I-1
sS"36['attack', (3, 11)]"
p2869
I-2
sS"205['attack', (16, 11)]"
p2870
I-1
sS"1048655['attack', (4, 11)]"
p2871
I-1
sS"179['attack', (9, 15)]"
p2872
I-1
sS"1048946['attack', (14, 12)]"
p2873
I-1
sS"205['move', (16, 3)]"
p2874
I-1
sS"78['attack', (3, 11)]"
p2875
I-1
sS"149['attack', (13, 8)]"
p2876
I-1
sS"230['attack', (5, 15)]"
p2877
I-1
sS"100['move', (6, 1)]"
p2878
I-1
sS"260['move', (17, 13)]"
p2879
I-1
sS"146['move', (2, 14)]"
p2880
I-1
sS"1048860['attack', (12, 12)]"
p2881
I-1
sS"304['attack', (5, 15)]"
p2882
I-1
sS"22['attack', (5, 13)]"
p2883
I-1
sS"256['attack', (8, 15)]"
p2884
I-1
sS"303['attack', (14, 13)]"
p2885
I-1
sS"278['attack', (15, 7)]"
p2886
I-1
sS"152['attack', (17, 11)]"
p2887
I-1
sS"24['attack', (5, 7)]"
p2888
I-1
sS"214['attack', (6, 12)]"
p2889
I-1
sS"76['attack', (4, 8)]"
p2890
I-1
sS"194['move', (14, 2)]"
p2891
I-1
sS"49['attack', (5, 11)]"
p2892
I-1
sS"298['attack', (5, 11)]"
p2893
I-1
sS"40['attack', (10, 17)]"
p2894
I-101
sS"33['attack', (3, 3)]"
p2895
I-2
sS"417['attack', (2, 14)]"
p2896
I-1
sS"163['attack', (16, 12)]"
p2897
I-1
sS"32['attack', (12, 9)]"
p2898
I-1
sS"148['attack', (14, 5)]"
p2899
I-1
sS"406['attack', (2, 7)]"
p2900
I-1
sS"172['attack', (7, 9)]"
p2901
I98
sS"214['attack', (16, 9)]"
p2902
I-1
sS"284['move', (1, 12)]"
p2903
I-1
sS"34['attack', (15, 6)]"
p2904
I-2
sS"296['move', (4, 16)]"
p2905
I-1
sS"411['attack', (15, 4)]"
p2906
I-1
sS"157['move', (9, 1)]"
p2907
I-1
sS"265['attack', (15, 8)]"
p2908
I-1
sS"192['attack', (9, 2)]"
p2909
I-1
sS"135['attack', (4, 3)]"
p2910
I-1
sS"29['attack', (8, 14)]"
p2911
I-1
sS"173['attack', (5, 6)]"
p2912
I-1
sS"12['attack', (11, 6)]"
p2913
I-1
sS"55['attack', (1, 9)]"
p2914
I-1
sS"180['attack', (11, 4)]"
p2915
I-1
sS"180['attack', (1, 5)]"
p2916
I-2
sS"176['attack', (5, 1)]"
p2917
I-1
sS"100['attack', (6, 1)]"
p2918
I-1
sS"9['attack', (4, 10)]"
p2919
I-2
sS"190['attack', (9, 10)]"
p2920
I-2
sS"113['attack', (3, 10)]"
p2921
I-1
sS"186['attack', (7, 15)]"
p2922
I99
sS"215['attack', (6, 6)]"
p2923
I-2
sS"298['attack', (6, 6)]"
p2924
I-1
sS"202['attack', (5, 15)]"
p2925
I-2
sS"32['attack', (16, 15)]"
p2926
I-1
sS"234['move', (9, 18)]"
p2927
I-1
sS"202['attack', (16, 7)]"
p2928
I-1
sS"294['move', (4, 16)]"
p2929
I-1
sS"261['attack', (6, 6)]"
p2930
I-1
sS"0['attack', (0, 11)]"
p2931
I-1
sS"70['attack', (9, 3)]"
p2932
I-1
sS"292['attack', (13, 12)]"
p2933
I-1
sS"343['attack', (16, 11)]"
p2934
I-101
sS"99['attack', (12, 8)]"
p2935
I-1
sS"128['attack', (4, 2)]"
p2936
I-1
sS"82['attack', (15, 12)]"
p2937
I-1
sS"169['attack', (4, 2)]"
p2938
I-1
sS"133['attack', (1, 9)]"
p2939
I-1
sS"158['attack', (16, 6)]"
p2940
I-1
sS"55['attack', (10, 5)]"
p2941
I-1
sS"22['attack', (8, 14)]"
p2942
I-1
sS"133['attack', (14, 4)]"
p2943
I-1
sS"322['attack', (17, 6)]"
p2944
I-1
sS"262['move', (1, 12)]"
p2945
I-1
sS"107['move', (16, 15)]"
p2946
I-1
sS"74['move', (16, 3)]"
p2947
I-1
sS"170['attack', (15, 14)]"
p2948
I-1
sS"87['attack', (6, 11)]"
p2949
I-1
sS"133['attack', (12, 3)]"
p2950
I-1
sS"10['move', (16, 4)]"
p2951
I-1
sS"264['attack', (11, 16)]"
p2952
I-1
sS"144['attack', (18, 8)]"
p2953
I-1
sS"193['attack', (4, 15)]"
p2954
I-1
sS"81['attack', (13, 3)]"
p2955
I-1
sS"64['attack', (1, 7)]"
p2956
I-1
sS"86['attack', (6, 1)]"
p2957
I-2
sS"259['attack', (7, 0)]"
p2958
I-1
sS"191['attack', (5, 10)]"
p2959
I-1
sS"227['attack', (6, 4)]"
p2960
I-1
sS"351['attack', (5, 4)]"
p2961
I-1
sS"133['attack', (7, 14)]"
p2962
I-1
sS"161['attack', (4, 3)]"
p2963
I-1
sS"108['attack', (1, 12)]"
p2964
I-1
sS"176['attack', (4, 14)]"
p2965
I-1
sS"40['attack', (5, 14)]"
p2966
I-1
sS"144['attack', (15, 11)]"
p2967
I-1
sS"432['attack', (11, 2)]"
p2968
I-1
sS"1048682['attack', (11, 5)]"
p2969
I-1
sS"22['attack', (14, 13)]"
p2970
I-2
sS"98['attack', (8, 4)]"
p2971
I-1
sS"51['attack', (2, 5)]"
p2972
I-1
sS"76['attack', (2, 13)]"
p2973
I-1
sS"7['attack', (14, 4)]"
p2974
I-1
sS"84['move', (2, 6)]"
p2975
I-1
sS"161['attack', (11, 2)]"
p2976
I-1
sS"173['attack', (7, 2)]"
p2977
I-2
sS"67['attack', (3, 8)]"
p2978
I-1
sS"149['attack', (7, 7)]"
p2979
I-1
sS"137['attack', (3, 10)]"
p2980
I-1
sS"13['attack', (15, 11)]"
p2981
I-1
sS"323['attack', (4, 15)]"
p2982
I-1
sS"37['attack', (2, 13)]"
p2983
I-1
sS"87['attack', (2, 12)]"
p2984
I-1
sS"141['move', (6, 1)]"
p2985
I-1
sS"166['attack', (14, 6)]"
p2986
I-1
sS"170['attack', (4, 14)]"
p2987
I-2
sS"128['attack', (13, 3)]"
p2988
I-1
sS"81['attack', (5, 3)]"
p2989
I-1
sS"132['move', (18, 9)]"
p2990
I-1
sS"104['move', (17, 6)]"
p2991
I-2
sS"325['attack', (15, 12)]"
p2992
I-2
sS"210['attack', (14, 14)]"
p2993
I-1
sS"53['move', (8, 0)]"
p2994
I-1
sS"302['attack', (2, 3)]"
p2995
I-1
sS"275['move', (18, 7)]"
p2996
I-1
sS"154['attack', (5, 16)]"
p2997
I-1
sS"71['attack', (2, 8)]"
p2998
I-1
sS"124['attack', (5, 3)]"
p2999
I-1
sS"137['attack', (11, 16)]"
p3000
I-1
sS"153['attack', (9, 16)]"
p3001
I-1
sS"224['move', (16, 3)]"
p3002
I-1
sS"43['attack', (18, 7)]"
p3003
I-1
sS"100['attack', (6, 14)]"
p3004
I-1
sS"386['attack', (4, 9)]"
p3005
I-1
sS"48['attack', (10, 0)]"
p3006
I-2
sS"115['attack', (1, 11)]"
p3007
I-1
sS"122['attack', (15, 6)]"
p3008
I-1
sS"171['attack', (16, 12)]"
p3009
I-1
sS"87['attack', (13, 13)]"
p3010
I-2
sS"181['attack', (14, 9)]"
p3011
I-1
sS"64['attack', (3, 5)]"
p3012
I-1
sS"0['move', (0, 8)]"
p3013
I-1
sS"138['attack', (1, 6)]"
p3014
I-1
sS"71['attack', (10, 4)]"
p3015
I-1
sS"90['attack', (9, 0)]"
p3016
I-2
sS"46['move', (17, 12)]"
p3017
I-1
sS"1['attack', (12, 15)]"
p3018
I-1
sS"32['attack', (10, 2)]"
p3019
I-2
sS"101['attack', (15, 15)]"
p3020
I-1
sS"63['attack', (4, 4)]"
p3021
I-1
sS"209['attack', (10, 6)]"
p3022
I-1
sS"157['move', (8, 0)]"
p3023
I-1
sS"79['attack', (11, 7)]"
p3024
I-1
sS"173['attack', (5, 15)]"
p3025
I-1
sS"32['attack', (8, 14)]"
p3026
I-1
sS"143['attack', (7, 12)]"
p3027
I-1
sS"119['attack', (14, 7)]"
p3028
I-1
sS"1048649['attack', (4, 11)]"
p3029
I-1
sS"65['attack', (0, 11)]"
p3030
I-1
sS"356['attack', (15, 4)]"
p3031
I-1
sS"9['attack', (4, 9)]"
p3032
I-1
sS"332['attack', (4, 7)]"
p3033
I-1
sS"208['attack', (9, 0)]"
p3034
I-2
sS"102['attack', (3, 12)]"
p3035
I-2
sS"33['attack', (16, 10)]"
p3036
I-1
sS"148['attack', (14, 7)]"
p3037
I-1
sS"192['move', (0, 7)]"
p3038
I-1
sS"33['move', (4, 16)]"
p3039
I-1
sS"228['attack', (13, 15)]"
p3040
I-101
sS"36['attack', (7, 16)]"
p3041
I-2
sS"370['attack', (7, 4)]"
p3042
I-1
sS"153['move', (4, 16)]"
p3043
I-1
sS"521['attack', (2, 10)]"
p3044
I-1
sS"249['attack', (4, 2)]"
p3045
I-1
sS"152['attack', (16, 4)]"
p3046
I-1
sS"28['move', (18, 7)]"
p3047
I-1
sS"49['attack', (12, 3)]"
p3048
I-1
sS"17['attack', (11, 2)]"
p3049
I-1
sS"421['attack', (6, 6)]"
p3050
I-1
sS"346['attack', (15, 13)]"
p3051
I-1
sS"157['guard']"
p3052
I-101
sS"149['attack', (6, 5)]"
p3053
I-1
sS"193['attack', (17, 10)]"
p3054
I-2
sS"133['attack', (2, 14)]"
p3055
I-1
sS"41['attack', (1, 8)]"
p3056
I-1
sS"75['attack', (11, 4)]"
p3057
I-1
sS"168['attack', (2, 14)]"
p3058
I-101
sS"34['attack', (15, 11)]"
p3059
I-1
sS"340['attack', (15, 5)]"
p3060
I-1
sS"141['attack', (5, 3)]"
p3061
I-1
sS"69['attack', (5, 8)]"
p3062
I-1
sS"186['attack', (13, 6)]"
p3063
I-1
sS"60['attack', (1, 7)]"
p3064
I-1
sS"202['attack', (13, 3)]"
p3065
I-2
sS"22['attack', (7, 2)]"
p3066
I-1
sS"67['move', (0, 10)]"
p3067
I-1
sS"80['attack', (3, 13)]"
p3068
I-2
sS"305['attack', (8, 0)]"
p3069
I-1
sS"112['attack', (4, 8)]"
p3070
I-1
sS"218['attack', (16, 7)]"
p3071
I-1
sS"329['attack', (6, 7)]"
p3072
I-1
sS"65['attack', (5, 16)]"
p3073
I-2
sS"113['attack', (3, 8)]"
p3074
I-1
sS"4['attack', (4, 6)]"
p3075
I-1
sS"144['attack', (10, 2)]"
p3076
I-1
sS"1048726['attack', (9, 3)]"
p3077
I-1
sS"292['attack', (8, 13)]"
p3078
I-1
sS"297['attack', (3, 13)]"
p3079
I-1
sS"210['move', (14, 16)]"
p3080
I-1
sS"368['attack', (13, 15)]"
p3081
I-1
sS"214['attack', (5, 16)]"
p3082
I-2
sS"68['attack', (4, 4)]"
p3083
I-1
sS"183['attack', (3, 5)]"
p3084
I-1
sS"15['attack', (0, 10)]"
p3085
I-2
sS"76['move', (6, 17)]"
p3086
I-1
sS"104['attack', (11, 3)]"
p3087
I-1
sS"81['attack', (6, 2)]"
p3088
I-1
sS"32['attack', (10, 17)]"
p3089
I-1
sS"69['attack', (0, 10)]"
p3090
I-1
sS"276['attack', (17, 12)]"
p3091
I-2
sS"61['attack', (7, 14)]"
p3092
I-1
sS"176['attack', (17, 10)]"
p3093
I-1
sS"83['attack', (14, 14)]"
p3094
I-1
sS"1['move', (17, 11)]"
p3095
I-1
sS"76['attack', (16, 10)]"
p3096
I-1
sS"2['attack', (1, 12)]"
p3097
I-1
sS"96['attack', (17, 7)]"
p3098
I-1
sS"53['attack', (17, 5)]"
p3099
I-1
sS"68['attack', (1, 13)]"
p3100
I-1
sS"149['attack', (1, 9)]"
p3101
I-1
sS"224['attack', (14, 5)]"
p3102
I-1
sS"180['attack', (10, 5)]"
p3103
I-1
sS"0['attack', (7, 15)]"
p3104
I-1
sS"10['attack', (4, 14)]"
p3105
I-3
sS"20['attack', (3, 4)]"
p3106
I-1
sS"211['attack', (11, 17)]"
p3107
I-1
sS"6['move', (0, 8)]"
p3108
I-1
sS"278['attack', (5, 3)]"
p3109
I-1
sS"161['attack', (16, 12)]"
p3110
I-1
sS"217['guard']"
p3111
I-1
sS"286['attack', (7, 2)]"
p3112
I-1
sS"74['attack', (4, 14)]"
p3113
I-1
sS"273['attack', (12, 1)]"
p3114
I-1
sS"14['move', (11, 18)]"
p3115
I-2
sS"1048617['attack', (4, 6)]"
p3116
I-1
sS"267['attack', (7, 2)]"
p3117
I-1
sS"317['attack', (2, 14)]"
p3118
I-1
sS"202['attack', (13, 6)]"
p3119
I-1
sS"168['attack', (14, 14)]"
p3120
I-1
sS"220['attack', (8, 6)]"
p3121
I-1
sS"193['attack', (13, 2)]"
p3122
I-1
sS"36['attack', (8, 0)]"
p3123
I-1
sS"41['attack', (13, 12)]"
p3124
I-1
sS"249['attack', (3, 6)]"
p3125
I-1
sS"33['move', (10, 0)]"
p3126
I-1
sS"0['attack', (7, 5)]"
p3127
I-1
sS"141['attack', (7, 16)]"
p3128
I-1
sS"32['attack', (2, 10)]"
p3129
I-1
sS"355['attack', (17, 11)]"
p3130
I-1
sS"22['attack', (1, 12)]"
p3131
I-1
sS"217['attack', (17, 10)]"
p3132
I-1
sS"84['attack', (16, 3)]"
p3133
I-1
sS"70['move', (12, 1)]"
p3134
I-1
sS"83['attack', (8, 12)]"
p3135
I-1
sS"237['attack', (9, 8)]"
p3136
I-1
sS"90['attack', (1, 5)]"
p3137
I-1
sS"106['attack', (15, 4)]"
p3138
I-1
sS"170['attack', (7, 14)]"
p3139
I-1
sS"193['attack', (13, 14)]"
p3140
I-1
sS"29['attack', (16, 9)]"
p3141
I-1
sS"131['move', (12, 1)]"
p3142
I-1
sS"174['move', (7, 18)]"
p3143
I-2
sS"37['attack', (7, 3)]"
p3144
I-2
sS"38['attack', (6, 17)]"
p3145
I-1
sS"139['attack', (5, 15)]"
p3146
I-1
sS"202['attack', (16, 3)]"
p3147
I-1
sS"130['attack', (6, 16)]"
p3148
I-1
sS"146['attack', (2, 12)]"
p3149
I-1
sS"96['attack', (3, 8)]"
p3150
I-1
sS"448['attack', (7, 4)]"
p3151
I-1
sS"78['attack', (11, 17)]"
p3152
I-1
sS"1048586['attack', (10, 11)]"
p3153
I-1
sS"186['attack', (15, 12)]"
p3154
I-1
sS"276['move', (6, 17)]"
p3155
I-1
sS"214['move', (16, 14)]"
p3156
I-1
sS"22['move', (1, 12)]"
p3157
I-1
sS"26['attack', (3, 11)]"
p3158
I-1
sS"216['attack', (8, 0)]"
p3159
I-1
sS"165['attack', (4, 11)]"
p3160
I-1
sS"132['attack', (14, 5)]"
p3161
I-1
sS"457['attack', (14, 4)]"
p3162
I-2
sS"110['attack', (10, 17)]"
p3163
I-1
sS"103['attack', (1, 10)]"
p3164
I-1
sS"5['attack', (14, 4)]"
p3165
I-2
sS"6['attack', (14, 13)]"
p3166
I-2
sS"280['attack', (3, 11)]"
p3167
I-1
sS"5['attack', (13, 3)]"
p3168
I-1
sS"432['attack', (11, 13)]"
p3169
I-1
sS"21['attack', (14, 4)]"
p3170
I-1
sS"151['attack', (7, 2)]"
p3171
I-1
sS"18['attack', (17, 12)]"
p3172
I-1
sS"230['attack', (7, 11)]"
p3173
I-1
sS"15['attack', (4, 15)]"
p3174
I-1
sS"8['attack', (16, 8)]"
p3175
I-1
sS"74['guard']"
p3176
I-1
sS"201['attack', (14, 4)]"
p3177
I-1
sS"148['attack', (1, 11)]"
p3178
I-2
sS"156['move', (13, 17)]"
p3179
I-1
sS"5['attack', (3, 10)]"
p3180
I-1
sS"145['attack', (16, 4)]"
p3181
I-1
sS"193['attack', (6, 2)]"
p3182
I-1
sS"263['attack', (14, 10)]"
p3183
I-1
sS"88['attack', (16, 11)]"
p3184
I-1
sS"42['attack', (6, 9)]"
p3185
I-1
sS"218['attack', (6, 1)]"
p3186
I-1
sS"175['attack', (15, 9)]"
p3187
I-1
sS"270['attack', (4, 5)]"
p3188
I-1
sS"145['attack', (14, 13)]"
p3189
I-1
sS"89['move', (14, 16)]"
p3190
I-1
sS"20['attack', (1, 11)]"
p3191
I-2
sS"270['attack', (7, 2)]"
p3192
I-1
sS"25['move', (16, 14)]"
p3193
I-1
sS"134['attack', (2, 10)]"
p3194
I-1
sS"142['attack', (8, 3)]"
p3195
I-1
sS"329['attack', (5, 9)]"
p3196
I-1
sS"99['attack', (6, 2)]"
p3197
I-1
sS"157['attack', (7, 2)]"
p3198
I-1
sS"4['move', (17, 12)]"
p3199
I-1
sS"158['attack', (9, 9)]"
p3200
I-1
sS"34['move', (17, 9)]"
p3201
I-1
sS"322['attack', (5, 12)]"
p3202
I-1
sS"26['move', (9, 0)]"
p3203
I-1
sS"365['attack', (13, 15)]"
p3204
I-1
sS"37['attack', (17, 7)]"
p3205
I-1
sS"345['attack', (18, 7)]"
p3206
I-1
sS"98['attack', (16, 7)]"
p3207
I-1
sS"0['attack', (16, 8)]"
p3208
I-1
sS"132['attack', (6, 15)]"
p3209
I-1
sS"162['attack', (15, 8)]"
p3210
I-1
sS"164['attack', (2, 14)]"
p3211
I-2
sS"237['attack', (14, 11)]"
p3212
I-1
sS"56['move', (3, 16)]"
p3213
I-1
sS"76['attack', (4, 4)]"
p3214
I-1
sS"224['move', (1, 12)]"
p3215
I-2
sS"28['move', (0, 9)]"
p3216
I-1
sS"86['attack', (13, 12)]"
p3217
I-1
sS"242['attack', (3, 15)]"
p3218
I-1
sS"18['move', (2, 14)]"
p3219
I-1
sS"46['attack', (14, 12)]"
p3220
I-1
sS"163['move', (1, 12)]"
p3221
I-2
sS"1['attack', (4, 13)]"
p3222
I-1
sS"77['attack', (13, 13)]"
p3223
I-1
sS"187['attack', (5, 17)]"
p3224
I-1
sS"303['attack', (15, 11)]"
p3225
I-1
sS"175['attack', (1, 10)]"
p3226
I-1
sS"99['attack', (6, 5)]"
p3227
I-2
sS"488['attack', (10, 13)]"
p3228
I-1
sS"95['attack', (2, 9)]"
p3229
I-1
sS"1048972['attack', (14, 12)]"
p3230
I-1
sS"216['attack', (12, 13)]"
p3231
I-1
sS"97['move', (3, 3)]"
p3232
I-1
sS"192['attack', (17, 9)]"
p3233
I-1
sS"209['attack', (8, 2)]"
p3234
I-1
sS"194['attack', (4, 16)]"
p3235
I-1
sS"214['attack', (2, 14)]"
p3236
I-1
sS"135['attack', (16, 10)]"
p3237
I-1
sS"301['attack', (2, 12)]"
p3238
I-1
sS"389['attack', (3, 6)]"
p3239
I-1
sS"244['move', (14, 16)]"
p3240
I-2
sS"435['attack', (12, 10)]"
p3241
I-1
sS"167['attack', (5, 15)]"
p3242
I-2
sS"146['attack', (16, 9)]"
p3243
I-1
sS"66['attack', (8, 6)]"
p3244
I-1
sS"204['attack', (3, 16)]"
p3245
I-1
sS"21['guard']"
p3246
I-1
sS"97['attack', (4, 15)]"
p3247
I-2
sS"8['attack', (13, 7)]"
p3248
I-1
sS"328['attack', (3, 2)]"
p3249
I-1
sS"122['attack', (5, 11)]"
p3250
I-1
sS"57['attack', (17, 7)]"
p3251
I-2
sS"322['attack', (5, 8)]"
p3252
I-1
sS"208['attack', (16, 9)]"
p3253
I-1
sS"274['attack', (9, 1)]"
p3254
I-1
sS"154['attack', (6, 14)]"
p3255
I-1
sS"1048613['attack', (8, 4)]"
p3256
I-1
sS"104['move', (1, 12)]"
p3257
I-1
sS"60['attack', (3, 12)]"
p3258
I-1
sS"216['attack', (16, 8)]"
p3259
I-2
sS"192['move', (8, 18)]"
p3260
I-1
sS"19['move', (12, 17)]"
p3261
I-1
sS"329['attack', (8, 8)]"
p3262
I-1
sS"83['attack', (14, 9)]"
p3263
I-1
sS"64['attack', (3, 6)]"
p3264
I-1
sS"199['attack', (5, 16)]"
p3265
I-1
sS"105['attack', (6, 16)]"
p3266
I-1
sS"218['move', (6, 17)]"
p3267
I-1
sS"43['attack', (3, 11)]"
p3268
I-1
sS"112['attack', (14, 14)]"
p3269
I-2
sS"68['attack', (7, 14)]"
p3270
I-1
sS"370['attack', (16, 14)]"
p3271
I-1
sS"137['attack', (10, 1)]"
p3272
I-1
sS"450['attack', (5, 6)]"
p3273
I-1
sS"72['attack', (18, 9)]"
p3274
I-1
sS"34['move', (2, 14)]"
p3275
I-1
sS"146['attack', (15, 11)]"
p3276
I-1
sS"200['attack', (6, 15)]"
p3277
I-1
sS"240['attack', (7, 3)]"
p3278
I-1
sS"196['attack', (10, 13)]"
p3279
I-1
sS"160['attack', (14, 15)]"
p3280
I-1
sS"20['attack', (15, 3)]"
p3281
I-1
sS"212['attack', (11, 16)]"
p3282
I-3
sS"217['attack', (15, 16)]"
p3283
I-1
sS"163['attack', (3, 10)]"
p3284
I-1
sS"66['attack', (3, 11)]"
p3285
I-1
sS"340['attack', (6, 15)]"
p3286
I-1
sS"84['attack', (8, 9)]"
p3287
I-1
sS"136['attack', (17, 12)]"
p3288
I-1
sS"391['attack', (12, 7)]"
p3289
I-1
sS"401['attack', (6, 11)]"
p3290
I-1
sS"50['attack', (11, 0)]"
p3291
I-2
sS"39['attack', (3, 3)]"
p3292
I-2
sS"107['attack', (11, 5)]"
p3293
I-1
sS"79['move', (6, 17)]"
p3294
I-1
sS"104['attack', (6, 15)]"
p3295
I-1
sS"169['attack', (8, 6)]"
p3296
I-1
sS"92['attack', (8, 11)]"
p3297
I-1
sS"145['move', (2, 3)]"
p3298
I-2
sS"6['attack', (2, 4)]"
p3299
I-1
sS"47['attack', (9, 14)]"
p3300
I-1
sS"112['attack', (15, 15)]"
p3301
I-1
sS"311['attack', (2, 14)]"
p3302
I-1
sS"153['attack', (16, 13)]"
p3303
I-1
sS"166['attack', (11, 5)]"
p3304
I-2
sS"85['attack', (16, 6)]"
p3305
I-1
sS"2['attack', (11, 16)]"
p3306
I-1
sS"225['attack', (1, 10)]"
p3307
I-1
sS"128['attack', (9, 17)]"
p3308
I-1
sS"94['attack', (17, 9)]"
p3309
I-1
sS"142['attack', (16, 8)]"
p3310
I-1
sS"391['attack', (5, 13)]"
p3311
I-1
sS"132['attack', (5, 1)]"
p3312
I-1
sS"242['attack', (16, 8)]"
p3313
I-1
sS"144['attack', (3, 15)]"
p3314
I-1
sS"165['attack', (14, 14)]"
p3315
I-1
sS"88['attack', (3, 5)]"
p3316
I-2
sS"129['attack', (12, 1)]"
p3317
I-1
sS"244['attack', (5, 3)]"
p3318
I-1
sS"147['attack', (6, 16)]"
p3319
I-1
sS"191['attack', (15, 14)]"
p3320
I-1
sS"89['attack', (18, 7)]"
p3321
I-1
sS"51['guard']"
p3322
I-1
sS"61['attack', (3, 11)]"
p3323
I-1
sS"234['attack', (6, 16)]"
p3324
I-1
sS"92['attack', (8, 17)]"
p3325
I-1
sS"33['attack', (4, 15)]"
p3326
I-2
sS"280['attack', (15, 4)]"
p3327
I-1
sS"170['attack', (13, 12)]"
p3328
I-1
sS"88['attack', (6, 2)]"
p3329
I-1
sS"290['attack', (9, 4)]"
p3330
I-1
sS"278['attack', (10, 3)]"
p3331
I-1
sS"226['attack', (4, 13)]"
p3332
I-1
sS"247['attack', (16, 4)]"
p3333
I-1
sS"216['attack', (11, 16)]"
p3334
I-1
sS"81['attack', (5, 4)]"
p3335
I-1
sS"281['attack', (4, 3)]"
p3336
I-1
sS"66['attack', (3, 12)]"
p3337
I-1
sS"276['attack', (7, 3)]"
p3338
I-1
sS"218['guard']"
p3339
I-1
sS"279['attack', (2, 13)]"
p3340
I-2
sS"139['attack', (5, 6)]"
p3341
I-1
sS"132['attack', (17, 8)]"
p3342
I-1
sS"128['attack', (2, 5)]"
p3343
I-1
sS"209['attack', (2, 8)]"
p3344
I-1
sS"130['attack', (2, 11)]"
p3345
I-1
sS"21['attack', (0, 8)]"
p3346
I-1
sS"115['attack', (4, 10)]"
p3347
I-1
sS"129['attack', (5, 10)]"
p3348
I-1
sS"14['attack', (11, 18)]"
p3349
I-1
sS"158['attack', (3, 13)]"
p3350
I-1
sS"139['attack', (17, 6)]"
p3351
I-1
sS"25['attack', (11, 2)]"
p3352
I-2
sS"1048732['attack', (11, 1)]"
p3353
I-101
sS"92['attack', (17, 9)]"
p3354
I-1
sS"213['attack', (13, 3)]"
p3355
I-1
sS"290['attack', (9, 12)]"
p3356
I-1
sS"168['attack', (12, 14)]"
p3357
I-1
sS"1048633['attack', (3, 7)]"
p3358
I-1
sS"287['move', (2, 4)]"
p3359
I-1
sS"70['attack', (2, 13)]"
p3360
I-1
sS"84['attack', (2, 10)]"
p3361
I-1
sS"12['attack', (9, 18)]"
p3362
I-1
sS"162['attack', (9, 1)]"
p3363
I-1
sS"189['attack', (9, 15)]"
p3364
I-1
sS"38['attack', (11, 5)]"
p3365
I-1
sS"1048593['attack', (16, 11)]"
p3366
I-1
sS"81['attack', (13, 15)]"
p3367
I-1
sS"239['attack', (12, 6)]"
p3368
I-1
sS"73['attack', (15, 5)]"
p3369
I-1
sS"106['attack', (2, 9)]"
p3370
I-1
sS"232['attack', (2, 12)]"
p3371
I-1
sS"25['move', (2, 6)]"
p3372
I-1
sS"125['move', (5, 4)]"
p3373
I-100
sS"55['attack', (5, 14)]"
p3374
I-1
sS"47['attack', (18, 7)]"
p3375
I-1
sS"129['attack', (4, 9)]"
p3376
I-1
sS"260['attack', (4, 7)]"
p3377
I-1
sS"199['move', (0, 9)]"
p3378
I-1
sS"1048790['attack', (2, 7)]"
p3379
I-1
sS"275['attack', (11, 16)]"
p3380
I-1
sS"27['attack', (3, 12)]"
p3381
I-2
sS"203['attack', (17, 6)]"
p3382
I-1
sS"139['attack', (14, 5)]"
p3383
I-1
sS"25['attack', (2, 8)]"
p3384
I-1
sS"55['attack', (3, 15)]"
p3385
I-1
sS"137['attack', (9, 0)]"
p3386
I-2
sS"67['attack', (7, 0)]"
p3387
I-1
sS"0['attack', (9, 2)]"
p3388
I-1
sS"61['attack', (6, 11)]"
p3389
I-1
sS"267['attack', (3, 13)]"
p3390
I-1
sS"66['attack', (9, 1)]"
p3391
I-1
sS"76['attack', (1, 8)]"
p3392
I-3
sS"40['attack', (4, 14)]"
p3393
I-2
sS"163['attack', (9, 2)]"
p3394
I-1
sS"66['attack', (3, 5)]"
p3395
I-1
sS"202['attack', (10, 5)]"
p3396
I-1
sS"44['attack', (2, 15)]"
p3397
I-1
sS"2['attack', (11, 0)]"
p3398
I-1
sS"159['attack', (15, 11)]"
p3399
I-1
sS"8['guard']"
p3400
I-1
sS"196['attack', (8, 1)]"
p3401
I-1
sS"1048586['attack', (8, 1)]"
p3402
I-1
sS"36['attack', (16, 8)]"
p3403
I-1
sS"32['attack', (13, 3)]"
p3404
I-1
sS"72['attack', (1, 9)]"
p3405
I-1
sS"176['attack', (11, 5)]"
p3406
I-1
sS"122['attack', (7, 12)]"
p3407
I-1
sS"119['attack', (3, 9)]"
p3408
I-1
sS"136['move', (17, 5)]"
p3409
I-1
sS"5['attack', (5, 4)]"
p3410
I-1
sS"180['attack', (15, 13)]"
p3411
I-1
sS"1048659['attack', (9, 1)]"
p3412
I-1
sS"1048629['move', (7, 16)]"
p3413
I100
sS"64['attack', (6, 13)]"
p3414
I-1
sS"184['attack', (15, 9)]"
p3415
I-1
sS"397['attack', (6, 14)]"
p3416
I-1
sS"102['attack', (16, 7)]"
p3417
I-2
sS"327['attack', (6, 15)]"
p3418
I-1
sS"264['attack', (6, 3)]"
p3419
I-1
sS"263['attack', (4, 13)]"
p3420
I-1
sS"75['attack', (2, 10)]"
p3421
I-1
sS"102['attack', (2, 11)]"
p3422
I-1
sS"67['move', (3, 16)]"
p3423
I-1
sS"98['attack', (13, 10)]"
p3424
I-1
sS"40['attack', (2, 10)]"
p3425
I-1
sS"38['attack', (17, 12)]"
p3426
I-1
sS"293['attack', (7, 12)]"
p3427
I-1
sS"180['attack', (2, 9)]"
p3428
I-1
sS"24['move', (16, 4)]"
p3429
I-1
sS"195['attack', (4, 16)]"
p3430
I-1
sS"235['attack', (6, 2)]"
p3431
I-1
sS"22['attack', (10, 14)]"
p3432
I-1
sS"252['attack', (11, 11)]"
p3433
I-1
sS"20['attack', (4, 12)]"
p3434
I-1
sS"80['attack', (9, 16)]"
p3435
I-1
sS"65['guard']"
p3436
I-1
sS"50['move', (3, 14)]"
p3437
I-1
sS"51['attack', (9, 3)]"
p3438
I-1
sS"250['attack', (10, 2)]"
p3439
I-1
sS"14['attack', (15, 6)]"
p3440
I-1
sS"181['attack', (12, 3)]"
p3441
I-1
sS"50['attack', (4, 4)]"
p3442
I-1
sS"204['attack', (6, 16)]"
p3443
I-1
sS"394['attack', (5, 15)]"
p3444
I-1
sS"18['attack', (8, 17)]"
p3445
I-1
sS"5['move', (16, 4)]"
p3446
I-1
sS"216['move', (16, 14)]"
p3447
I-1
sS"46['move', (14, 16)]"
p3448
I-1
sS"66['move', (17, 6)]"
p3449
I-1
sS"233['attack', (12, 14)]"
p3450
I-1
sS"78['attack', (17, 11)]"
p3451
I-1
sS"543['attack', (13, 6)]"
p3452
I-1
sS"125['attack', (16, 3)]"
p3453
I-2
sS"145['attack', (10, 1)]"
p3454
I-1
sS"97['attack', (10, 5)]"
p3455
I-1
sS"4['attack', (2, 12)]"
p3456
I-1
sS"87['attack', (13, 10)]"
p3457
I-1
sS"36['move', (4, 2)]"
p3458
I-1
sS"186['attack', (9, 4)]"
p3459
I-1
sS"171['attack', (9, 15)]"
p3460
I-1
sS"4['attack', (14, 6)]"
p3461
I-1
sS"101['attack', (2, 6)]"
p3462
I-1
sS"73['attack', (13, 14)]"
p3463
I-1
sS"90['attack', (13, 2)]"
p3464
I-2
sS"290['attack', (2, 14)]"
p3465
I-1
sS"230['attack', (3, 5)]"
p3466
I-1
sS"200['attack', (17, 5)]"
p3467
I-1
sS"44['attack', (16, 10)]"
p3468
I-1
sS"24['attack', (8, 0)]"
p3469
I-1
sS"128['attack', (7, 17)]"
p3470
I-1
sS"246['attack', (2, 13)]"
p3471
I-1
sS"164['attack', (7, 18)]"
p3472
I-1
sS"43['attack', (9, 16)]"
p3473
I-1
sS"70['attack', (3, 13)]"
p3474
I-1
sS"1048665['attack', (8, 15)]"
p3475
I-1
sS"201['attack', (4, 6)]"
p3476
I-1
sS"71['attack', (1, 6)]"
p3477
I-1
sS"140['attack', (12, 8)]"
p3478
I-1
sS"275['attack', (10, 15)]"
p3479
I-1
sS"133['attack', (1, 10)]"
p3480
I-1
sS"4['attack', (2, 3)]"
p3481
I-1
sS"186['attack', (7, 14)]"
p3482
I-1
sS"86['attack', (14, 2)]"
p3483
I-1
sS"162['attack', (15, 5)]"
p3484
I-1
sS"98['attack', (4, 10)]"
p3485
I-1
sS"220['attack', (15, 10)]"
p3486
I-1
sS"171['attack', (4, 4)]"
p3487
I-1
sS"515['attack', (6, 12)]"
p3488
I-1
sS"100['attack', (10, 17)]"
p3489
I-1
sS"12['move', (18, 9)]"
p3490
I-1
sS"98['attack', (3, 16)]"
p3491
I-1
sS"36['attack', (15, 14)]"
p3492
I-1
sS"87['attack', (4, 3)]"
p3493
I-1
sS"12['attack', (9, 11)]"
p3494
I-1
sS"194['attack', (2, 8)]"
p3495
I-1
sS"132['attack', (7, 17)]"
p3496
I-1
sS"278['attack', (3, 8)]"
p3497
I-1
sS"339['attack', (6, 13)]"
p3498
I-1
sS"45['attack', (15, 5)]"
p3499
I-2
sS"104['move', (4, 16)]"
p3500
I-2
sS"372['attack', (2, 12)]"
p3501
I-1
sS"152['move', (2, 4)]"
p3502
I-1
sS"117['attack', (4, 14)]"
p3503
I-1
sS"290['attack', (4, 14)]"
p3504
I-1
sS"250['attack', (2, 4)]"
p3505
I-1
sS"64['attack', (9, 4)]"
p3506
I-1
sS"203['move', (4, 4)]"
p3507
I-1
sS"22['attack', (4, 14)]"
p3508
I-2
sS"233['attack', (3, 15)]"
p3509
I-1
sS"48['attack', (8, 14)]"
p3510
I-1
sS"182['attack', (4, 15)]"
p3511
I-1
sS"265['attack', (12, 12)]"
p3512
I-1
sS"194['attack', (15, 14)]"
p3513
I-1
sS"36['attack', (15, 7)]"
p3514
I-1
sS"48['attack', (15, 15)]"
p3515
I-1
sS"32['attack', (3, 7)]"
p3516
I-1
sS"214['attack', (2, 4)]"
p3517
I-1
sS"89['attack', (1, 13)]"
p3518
I-1
sS"324['attack', (3, 8)]"
p3519
I-1
sS"7['attack', (2, 15)]"
p3520
I-1
sS"58['attack', (4, 9)]"
p3521
I-1
sS"225['attack', (15, 16)]"
p3522
I-1
sS"3['attack', (10, 1)]"
p3523
I-1
sS"404['attack', (16, 13)]"
p3524
I-1
sS"198['move', (3, 3)]"
p3525
I-100
sS"68['attack', (2, 13)]"
p3526
I-1
sS"194['attack', (3, 7)]"
p3527
I-1
sS"120['attack', (3, 15)]"
p3528
I-1
sS"2['guard']"
p3529
I-1
sS"196['attack', (10, 2)]"
p3530
I-1
sS"102['attack', (6, 16)]"
p3531
I-2
sS"175['attack', (4, 15)]"
p3532
I-1
sS"44['attack', (9, 12)]"
p3533
I-1
sS"254['attack', (14, 8)]"
p3534
I-1
sS"166['attack', (15, 15)]"
p3535
I-1
sS"2['move', (0, 11)]"
p3536
I-2
sS"456['attack', (7, 13)]"
p3537
I-1
sS"81['attack', (10, 1)]"
p3538
I-1
sS"52['attack', (1, 10)]"
p3539
I-2
sS"268['attack', (6, 11)]"
p3540
I-1
sS"85['attack', (15, 7)]"
p3541
I-1
sS"176['attack', (14, 9)]"
p3542
I-1
sS"205['attack', (13, 15)]"
p3543
I-1
sS"88['attack', (13, 9)]"
p3544
I-2
sS"70['move', (15, 14)]"
p3545
I-1
sS"2['attack', (3, 14)]"
p3546
I-1
sS"2['attack', (6, 4)]"
p3547
I-1
sS"76['attack', (15, 2)]"
p3548
I-2
sS"0['attack', (8, 18)]"
p3549
I-2
sS"228['attack', (11, 7)]"
p3550
I-1
sS"66['move', (4, 16)]"
p3551
I-2
sS"229['guard']"
p3552
I-100
sS"164['move', (2, 14)]"
p3553
I-1
sS"46['attack', (15, 5)]"
p3554
I-1
sS"56['attack', (14, 8)]"
p3555
I-1
sS"107['attack', (1, 8)]"
p3556
I-1
sS"132['attack', (5, 6)]"
p3557
I-1
sS"170['attack', (14, 14)]"
p3558
I-1
sS"9['attack', (18, 10)]"
p3559
I-1
sS"272['attack', (18, 7)]"
p3560
I-2
sS"299['attack', (6, 9)]"
p3561
I-1
sS"219['move', (14, 3)]"
p3562
I-1
sS"37['attack', (12, 2)]"
p3563
I-1
sS"346['attack', (2, 11)]"
p3564
I-1
sS"56['attack', (9, 11)]"
p3565
I-1
sS"28['move', (1, 12)]"
p3566
I-1
sS"300['attack', (3, 15)]"
p3567
I-1
sS"67['attack', (3, 13)]"
p3568
I-1
sS"16['attack', (13, 4)]"
p3569
I-1
sS"457['attack', (4, 10)]"
p3570
I-1
sS"221['attack', (16, 7)]"
p3571
I-2
sS"153['attack', (6, 10)]"
p3572
I-1
sS"183['attack', (2, 8)]"
p3573
I-1
sS"493['attack', (5, 16)]"
p3574
I-1
sS"168['attack', (6, 17)]"
p3575
I-1
sS"298['move', (3, 16)]"
p3576
I-2
sS"314['attack', (16, 4)]"
p3577
I-1
sS"36['attack', (17, 10)]"
p3578
I-1
sS"195['move', (4, 2)]"
p3579
I-1
sS"28['attack', (9, 2)]"
p3580
I-1
sS"34['attack', (11, 4)]"
p3581
I-1
sS"161['attack', (1, 13)]"
p3582
I-1
sS"176['attack', (5, 16)]"
p3583
I-1
sS"172['attack', (10, 6)]"
p3584
I-1
sS"21['attack', (1, 8)]"
p3585
I-1
sS"133['attack', (3, 8)]"
p3586
I-1
sS"117['move', (13, 2)]"
p3587
I-1
sS"199['attack', (9, 4)]"
p3588
I-1
sS"117['attack', (13, 16)]"
p3589
I-1
sS"174['move', (12, 17)]"
p3590
I-1
sS"283['move', (15, 2)]"
p3591
I-1
sS"210['attack', (6, 15)]"
p3592
I-1
sS"27['move', (4, 16)]"
p3593
I-1
sS"289['move', (1, 13)]"
p3594
I-1
sS"170['attack', (6, 5)]"
p3595
I-1
sS"178['attack', (3, 11)]"
p3596
I-1
sS"30['attack', (9, 16)]"
p3597
I-1
sS"92['attack', (13, 3)]"
p3598
I-1
sS"66['attack', (8, 16)]"
p3599
I-1
sS"36['move', (2, 4)]"
p3600
I-2
sS"65['attack', (16, 9)]"
p3601
I-1
sS"94['attack', (17, 8)]"
p3602
I-1
sS"100['attack', (1, 12)]"
p3603
I-1
sS"104['move', (9, 17)]"
p3604
I-1
sS"192['attack', (10, 17)]"
p3605
I-1
sS"41['attack', (17, 6)]"
p3606
I-1
sS"40['attack', (6, 14)]"
p3607
I-2
sS"212['attack', (4, 12)]"
p3608
I-1
sS"232['attack', (12, 3)]"
p3609
I-1
sS"32['attack', (7, 0)]"
p3610
I-1
sS"111['attack', (2, 11)]"
p3611
I-1
sS"1048903['attack', (13, 13)]"
p3612
I-1
sS"66['attack', (5, 6)]"
p3613
I-1
sS"43['attack', (4, 4)]"
p3614
I-1
sS"31['attack', (15, 6)]"
p3615
I-2
sS"0['attack', (6, 4)]"
p3616
I-1
sS"1048838['attack', (11, 4)]"
p3617
I-1
sS"83['attack', (12, 16)]"
p3618
I-1
sS"288['attack', (9, 1)]"
p3619
I-1
sS"130['move', (1, 12)]"
p3620
I-1
sS"91['attack', (13, 7)]"
p3621
I-1
sS"68['move', (1, 12)]"
p3622
I-3
sS"49['attack', (1, 13)]"
p3623
I-1
sS"128['move', (11, 18)]"
p3624
I-1
sS"83['move', (0, 7)]"
p3625
I-1
sS"291['attack', (14, 5)]"
p3626
I-1
sS"66['move', (1, 5)]"
p3627
I-1
sS"200['attack', (7, 10)]"
p3628
I-1
sS"102['attack', (7, 18)]"
p3629
I-1
sS"8['attack', (7, 16)]"
p3630
I-1
sS"220['attack', (17, 10)]"
p3631
I-1
sS"421['attack', (5, 6)]"
p3632
I-1
sS"245['attack', (5, 10)]"
p3633
I-1
sS"228['attack', (4, 2)]"
p3634
I-1
sS"50['attack', (11, 10)]"
p3635
I-1
sS"16['attack', (15, 3)]"
p3636
I-1
sS"161['attack', (8, 2)]"
p3637
I-2
sS"191['attack', (14, 4)]"
p3638
I-2
sS"259['attack', (16, 13)]"
p3639
I-1
sS"1048839['attack', (16, 3)]"
p3640
I-1
sS"77['attack', (5, 8)]"
p3641
I-1
sS"81['attack', (15, 5)]"
p3642
I-1
sS"18['attack', (13, 10)]"
p3643
I-1
sS"190['attack', (14, 14)]"
p3644
I-2
sS"80['attack', (8, 18)]"
p3645
I-1
sS"36['attack', (7, 14)]"
p3646
I-1
sS"97['attack', (5, 14)]"
p3647
I-1
sS"281['attack', (3, 15)]"
p3648
I-2
sS"1048612['attack', (2, 6)]"
p3649
I-1
sS"86['attack', (2, 8)]"
p3650
I-1
sS"165['attack', (9, 5)]"
p3651
I-1
sS"8['move', (7, 18)]"
p3652
I-1
sS"48['attack', (7, 14)]"
p3653
I-1
sS"130['attack', (3, 6)]"
p3654
I-1
sS"130['attack', (13, 16)]"
p3655
I-4
sS"196['attack', (9, 2)]"
p3656
I-1
sS"281['attack', (2, 7)]"
p3657
I-1
sS"286['move', (11, 9)]"
p3658
I-100
sS"4['attack', (17, 10)]"
p3659
I-2
sS"182['attack', (11, 4)]"
p3660
I-1
sS"76['attack', (2, 6)]"
p3661
I-1
sS"21['move', (14, 16)]"
p3662
I-1
sS"9['attack', (2, 10)]"
p3663
I-1
sS"185['attack', (9, 1)]"
p3664
I-1
sS"1048872['attack', (12, 3)]"
p3665
I-1
sS"25['attack', (5, 9)]"
p3666
I-1
sS"200['attack', (10, 15)]"
p3667
I-1
sS"288['attack', (4, 16)]"
p3668
I-1
sS"37['attack', (1, 9)]"
p3669
I-1
sS"1048726['attack', (7, 3)]"
p3670
I-1
sS"132['attack', (16, 6)]"
p3671
I-1
sS"161['attack', (3, 14)]"
p3672
I-2
sS"370['attack', (4, 10)]"
p3673
I-1
sS"36['attack', (12, 2)]"
p3674
I-1
sS"67['attack', (3, 11)]"
p3675
I-1
sS"177['attack', (7, 4)]"
p3676
I-1
sS"172['attack', (9, 12)]"
p3677
I-1
sS"247['attack', (14, 10)]"
p3678
I-1
sS"172['attack', (13, 4)]"
p3679
I-1
sS"64['attack', (7, 18)]"
p3680
I-1
sS"10['attack', (3, 13)]"
p3681
I-2
sS"63['move', (5, 16)]"
p3682
I-1
sS"46['attack', (1, 12)]"
p3683
I-1
sS"44['move', (7, 0)]"
p3684
I-1
sS"28['attack', (2, 9)]"
p3685
I-1
sS"327['attack', (2, 14)]"
p3686
I-1
sS"82['attack', (3, 5)]"
p3687
I-1
sS"376['attack', (7, 12)]"
p3688
I-1
sS"47['attack', (8, 16)]"
p3689
I-1
sS"100['attack', (4, 16)]"
p3690
I-1
sS"32['move', (11, 18)]"
p3691
I-2
sS"97['attack', (5, 16)]"
p3692
I-1
sS"147['attack', (15, 2)]"
p3693
I-1
sS"348['attack', (9, 9)]"
p3694
I-1
sS"266['attack', (11, 15)]"
p3695
I-1
sS"83['attack', (5, 16)]"
p3696
I-1
sS"360['attack', (3, 10)]"
p3697
I-1
sS"100['attack', (0, 7)]"
p3698
I-1
sS"0['attack', (5, 16)]"
p3699
I-1
sS"113['move', (12, 17)]"
p3700
I-1
sS"164['attack', (14, 6)]"
p3701
I-1
sS"117['attack', (3, 12)]"
p3702
I-1
sS"129['attack', (16, 10)]"
p3703
I-1
sS"215['attack', (10, 2)]"
p3704
I-1
sS"138['attack', (3, 6)]"
p3705
I-1
sS"226['attack', (4, 14)]"
p3706
I-2
sS"247['attack', (15, 2)]"
p3707
I-1
sS"198['attack', (15, 12)]"
p3708
I-1
sS"18['attack', (11, 0)]"
p3709
I-1
sS"376['attack', (3, 13)]"
p3710
I-1
sS"9['attack', (9, 6)]"
p3711
I-2
sS"185['move', (2, 8)]"
p3712
I-1
sS"54['attack', (12, 5)]"
p3713
I-1
sS"46['attack', (12, 15)]"
p3714
I-1
sS"341['attack', (5, 15)]"
p3715
I-1
sS"395['attack', (5, 15)]"
p3716
I-1
sS"86['attack', (5, 3)]"
p3717
I-1
sS"326['attack', (10, 17)]"
p3718
I-1
sS"14['attack', (17, 10)]"
p3719
I-1
sS"18['attack', (3, 13)]"
p3720
I-1
sS"202['attack', (6, 17)]"
p3721
I-1
sS"178['attack', (13, 9)]"
p3722
I-1
sS"59['attack', (2, 10)]"
p3723
I-1
sS"54['attack', (8, 2)]"
p3724
I-1
sS"56['attack', (5, 12)]"
p3725
I-1
sS"17['attack', (3, 2)]"
p3726
I-1
sS"34['attack', (2, 11)]"
p3727
I-3
sS"38['move', (0, 11)]"
p3728
I-1
sS"72['attack', (6, 2)]"
p3729
I-1
sS"222['attack', (16, 6)]"
p3730
I-1
sS"283['move', (2, 3)]"
p3731
I-1
sS"74['attack', (9, 2)]"
p3732
I-1
sS"548['attack', (13, 8)]"
p3733
I-1
sS"278['attack', (15, 5)]"
p3734
I-1
sS"145['move', (6, 1)]"
p3735
I-1
sS"161['attack', (4, 15)]"
p3736
I-2
sS"43['attack', (9, 3)]"
p3737
I-1
sS"235['attack', (6, 15)]"
p3738
I-1
sS"343['guard']"
p3739
I-1
sS"54['move', (4, 15)]"
p3740
I-1
sS"328['attack', (2, 4)]"
p3741
I-1
sS"141['attack', (16, 8)]"
p3742
I-1
sS"188['attack', (6, 17)]"
p3743
I-1
sS"98['attack', (4, 15)]"
p3744
I-1
sS"36['attack', (3, 10)]"
p3745
I-1
sS"67['move', (9, 0)]"
p3746
I-1
sS"48['attack', (6, 16)]"
p3747
I-1
sS"168['attack', (3, 11)]"
p3748
I-1
sS"10['move', (12, 1)]"
p3749
I-2
sS"287['attack', (3, 4)]"
p3750
I-1
sS"11['move', (16, 14)]"
p3751
I-1
sS"38['attack', (8, 11)]"
p3752
I-1
sS"146['attack', (5, 17)]"
p3753
I-1
sS"112['attack', (3, 13)]"
p3754
I-1
sS"38['attack', (3, 5)]"
p3755
I-1
sS"100['attack', (13, 15)]"
p3756
I-1
sS"78['attack', (12, 5)]"
p3757
I-1
sS"172['attack', (11, 5)]"
p3758
I-1
sS"194['move', (14, 3)]"
p3759
I-1
sS"106['attack', (8, 4)]"
p3760
I-1
sS"153['attack', (3, 8)]"
p3761
I-1
sS"96['attack', (9, 4)]"
p3762
I-1
sS"133['attack', (17, 10)]"
p3763
I-1
sS"7['attack', (11, 3)]"
p3764
I-1
sS"208['attack', (6, 16)]"
p3765
I-1
sS"15['attack', (14, 10)]"
p3766
I-1
sS"132['attack', (4, 4)]"
p3767
I-1
sS"197['attack', (1, 5)]"
p3768
I-1
sS"65['attack', (12, 8)]"
p3769
I-1
sS"27['attack', (13, 6)]"
p3770
I98
sS"404['move', (2, 5)]"
p3771
I100
sS"69['attack', (8, 3)]"
p3772
I-1
sS"469['attack', (5, 6)]"
p3773
I-1
sS"58['attack', (14, 13)]"
p3774
I-2
sS"24['attack', (17, 5)]"
p3775
I-1
sS"88['attack', (7, 2)]"
p3776
I-1
sS"266['move', (14, 2)]"
p3777
I-1
sS"214['move', (2, 4)]"
p3778
I-1
sS"296['attack', (12, 5)]"
p3779
I-1
sS"78['attack', (13, 14)]"
p3780
I-1
sS"265['attack', (16, 10)]"
p3781
I-1
sS"69['attack', (1, 10)]"
p3782
I-1
sS"454['attack', (7, 13)]"
p3783
I-1
sS"2['attack', (3, 11)]"
p3784
I-2
sS"1048754['attack', (11, 9)]"
p3785
I-1
sS"2['move', (15, 16)]"
p3786
I-1
sS"186['attack', (15, 6)]"
p3787
I-1
sS"131['attack', (16, 12)]"
p3788
I-1
sS"316['attack', (14, 12)]"
p3789
I-1
sS"138['attack', (2, 12)]"
p3790
I-1
sS"32['attack', (6, 6)]"
p3791
I-1
sS"5['attack', (15, 5)]"
p3792
I-1
sS"1048791['attack', (4, 7)]"
p3793
I-1
sS"9['attack', (13, 2)]"
p3794
I-1
sS"29['attack', (8, 15)]"
p3795
I-1
sS"410['attack', (16, 6)]"
p3796
I-1
sS"181['attack', (13, 7)]"
p3797
I-1
sS"28['attack', (2, 14)]"
p3798
I-1
sS"297['attack', (4, 12)]"
p3799
I-1
sS"503['attack', (15, 15)]"
p3800
I-2
sS"68['attack', (6, 4)]"
p3801
I-1
sS"114['attack', (12, 14)]"
p3802
I-1
sS"96['attack', (3, 15)]"
p3803
I-1
sS"68['attack', (9, 3)]"
p3804
I-1
sS"84['attack', (17, 8)]"
p3805
I-2
sS"4['attack', (12, 17)]"
p3806
I-3
sS"320['move', (9, 18)]"
p3807
I-1
sS"85['attack', (16, 7)]"
p3808
I-1
sS"227['move', (11, 0)]"
p3809
I-1
sS"150['attack', (5, 14)]"
p3810
I-1
sS"150['attack', (3, 5)]"
p3811
I-1
sS"83['attack', (6, 3)]"
p3812
I-1
sS"200['attack', (11, 18)]"
p3813
I-1
sS"56['attack', (7, 16)]"
p3814
I-1
sS"2['attack', (11, 1)]"
p3815
I-1
sS"85['attack', (2, 11)]"
p3816
I-1
sS"483['attack', (14, 5)]"
p3817
I-1
sS"272['attack', (8, 13)]"
p3818
I-1
sS"70['attack', (13, 16)]"
p3819
I-1
sS"90['attack', (5, 4)]"
p3820
I-1
sS"210['attack', (5, 4)]"
p3821
I-1
sS"152['attack', (11, 16)]"
p3822
I-1
sS"111['attack', (12, 2)]"
p3823
I-1
sS"50['attack', (2, 11)]"
p3824
I-1
sS"55['attack', (5, 8)]"
p3825
I-1
sS"67['attack', (0, 10)]"
p3826
I-1
sS"237['attack', (5, 16)]"
p3827
I-1
sS"156['attack', (12, 16)]"
p3828
I-1
sS"10['move', (17, 12)]"
p3829
I-1
sS"192['attack', (10, 3)]"
p3830
I-1
sS"41['attack', (9, 3)]"
p3831
I-1
sS"41['attack', (2, 11)]"
p3832
I-1
sS"33['move', (8, 0)]"
p3833
I-1
sS"326['attack', (4, 7)]"
p3834
I-1
sS"37['attack', (6, 11)]"
p3835
I-1
sS"98['move', (2, 14)]"
p3836
I-1
sS"296['attack', (4, 3)]"
p3837
I-1
sS"111['attack', (18, 7)]"
p3838
I-1
sS"288['attack', (5, 12)]"
p3839
I-1
sS"230['attack', (7, 15)]"
p3840
I-1
sS"213['attack', (14, 5)]"
p3841
I-1
sS"106['move', (16, 4)]"
p3842
I-1
sS"131['attack', (16, 3)]"
p3843
I-1
sS"349['move', (3, 16)]"
p3844
I-1
sS"317['move', (0, 8)]"
p3845
I-1
sS"160['attack', (12, 4)]"
p3846
I-1
sS"83['attack', (1, 6)]"
p3847
I-2
sS"128['attack', (15, 11)]"
p3848
I-1
sS"24['guard']"
p3849
I-1
sS"202['attack', (11, 16)]"
p3850
I-1
sS"1['attack', (8, 9)]"
p3851
I-1
sS"287['move', (3, 2)]"
p3852
I-1
sS"154['attack', (4, 10)]"
p3853
I-1
sS"248['attack', (7, 16)]"
p3854
I-1
sS"50['attack', (1, 13)]"
p3855
I-1
sS"86['move', (7, 18)]"
p3856
I-2
sS"198['attack', (9, 18)]"
p3857
I-1
sS"233['attack', (15, 13)]"
p3858
I-1
sS"67['attack', (11, 2)]"
p3859
I-1
sS"28['attack', (12, 17)]"
p3860
I-1
sS"177['attack', (16, 9)]"
p3861
I-100
sS"174['attack', (5, 5)]"
p3862
I-1
sS"238['attack', (10, 3)]"
p3863
I-1
sS"53['attack', (15, 3)]"
p3864
I-1
sS"109['attack', (3, 9)]"
p3865
I-1
sS"30['attack', (8, 12)]"
p3866
I-1
sS"306['attack', (3, 13)]"
p3867
I-1
sS"73['move', (3, 16)]"
p3868
I-1
sS"93['attack', (2, 9)]"
p3869
I-1
sS"325['attack', (5, 6)]"
p3870
I-1
sS"192['attack', (16, 8)]"
p3871
I-1
sS"140['attack', (11, 11)]"
p3872
I-1
sS"29['attack', (17, 6)]"
p3873
I-1
sS"292['attack', (17, 6)]"
p3874
I-1
sS"206['move', (1, 13)]"
p3875
I-1
sS"299['attack', (12, 5)]"
p3876
I-1
sS"184['attack', (12, 14)]"
p3877
I-1
sS"6['move', (0, 11)]"
p3878
I-1
sS"260['attack', (4, 13)]"
p3879
I-1
sS"124['attack', (14, 6)]"
p3880
I-1
sS"166['attack', (5, 14)]"
p3881
I-1
sS"128['attack', (11, 2)]"
p3882
I-1
sS"177['attack', (9, 2)]"
p3883
I-1
sS"168['attack', (10, 14)]"
p3884
I-1
sS"153['attack', (1, 8)]"
p3885
I-1
sS"260['attack', (13, 2)]"
p3886
I99
sS"217['attack', (6, 13)]"
p3887
I-1
sS"331['attack', (3, 16)]"
p3888
I-1
sS"105['attack', (8, 15)]"
p3889
I-1
sS"37['attack', (11, 2)]"
p3890
I-1
sS"52['attack', (6, 7)]"
p3891
I-1
sS"1048726['attack', (1, 10)]"
p3892
I-101
sS"165['attack', (17, 9)]"
p3893
I-1
sS"100['attack', (12, 4)]"
p3894
I-1
sS"166['attack', (1, 9)]"
p3895
I-1
sS"52['attack', (17, 9)]"
p3896
I-1
sS"114['attack', (14, 4)]"
p3897
I-1
sS"133['attack', (7, 2)]"
p3898
I-1
sS"148['attack', (6, 15)]"
p3899
I-1
sS"326['attack', (5, 15)]"
p3900
I-1
sS"1049089['attack', (16, 11)]"
p3901
I-1
sS"79['move', (1, 6)]"
p3902
I-2
sS"45['attack', (16, 4)]"
p3903
I-2
sS"41['attack', (2, 4)]"
p3904
I-1
sS"64['attack', (5, 7)]"
p3905
I-1
sS"164['attack', (7, 14)]"
p3906
I-1
sS"164['attack', (11, 18)]"
p3907
I-1
sS"179['attack', (8, 4)]"
p3908
I-1
sS"144['attack', (2, 14)]"
p3909
I-1
sS"290['attack', (3, 12)]"
p3910
I-1
sS"198['move', (4, 16)]"
p3911
I-1
sS"298['attack', (7, 3)]"
p3912
I-1
sS"12['attack', (17, 10)]"
p3913
I-1
sS"68['attack', (16, 9)]"
p3914
I-1
sS"191['attack', (2, 11)]"
p3915
I-1
sS"130['attack', (6, 8)]"
p3916
I-1
sS"139['attack', (10, 5)]"
p3917
I-1
sS"1048854['attack', (8, 4)]"
p3918
I-1
sS"1048709['attack', (8, 1)]"
p3919
I-1
sS"168['attack', (5, 9)]"
p3920
I-1
sS"1['attack', (6, 2)]"
p3921
I-1
sS"138['attack', (10, 3)]"
p3922
I-1
sS"310['attack', (2, 14)]"
p3923
I-1
sS"215['attack', (1, 9)]"
p3924
I-1
sS"222['attack', (16, 5)]"
p3925
I-1
sS"136['attack', (3, 9)]"
p3926
I-1
sS"258['attack', (5, 11)]"
p3927
I-1
sS"283['attack', (11, 16)]"
p3928
I-1
sS"29['attack', (10, 14)]"
p3929
I-1
sS"215['attack', (5, 15)]"
p3930
I-1
sS"90['attack', (13, 10)]"
p3931
I-1
sS"106['attack', (6, 5)]"
p3932
I-1
sS"144['attack', (12, 2)]"
p3933
I-1
sS"143['move', (2, 9)]"
p3934
I-100
sS"206['attack', (14, 10)]"
p3935
I-1
sS"84['attack', (3, 5)]"
p3936
I-2
sS"40['attack', (16, 4)]"
p3937
I-1
sS"37['attack', (8, 14)]"
p3938
I-1
sS"286['attack', (12, 4)]"
p3939
I-1
sS"136['attack', (6, 3)]"
p3940
I-2
sS"262['attack', (15, 5)]"
p3941
I-1
sS"545['attack', (5, 14)]"
p3942
I-1
sS"86['attack', (1, 9)]"
p3943
I-1
sS"408['attack', (2, 12)]"
p3944
I-1
sS"185['attack', (15, 10)]"
p3945
I-1
sS"99['attack', (6, 15)]"
p3946
I-1
sS"10['move', (4, 16)]"
p3947
I-1
sS"1048646['attack', (3, 5)]"
p3948
I-1
sS"32['move', (12, 17)]"
p3949
I-2
sS"150['attack', (6, 12)]"
p3950
I-1
sS"195['attack', (13, 14)]"
p3951
I-1
sS"87['attack', (8, 4)]"
p3952
I-101
sS"296['move', (16, 14)]"
p3953
I-2
sS"371['attack', (3, 13)]"
p3954
I-1
sS"163['attack', (4, 8)]"
p3955
I-1
sS"94['attack', (3, 10)]"
p3956
I-1
sS"45['attack', (2, 12)]"
p3957
I-1
sS"72['move', (14, 2)]"
p3958
I-1
sS"158['attack', (14, 6)]"
p3959
I-2
sS"175['attack', (5, 6)]"
p3960
I-1
sS"129['move', (11, 0)]"
p3961
I-2
sS"154['attack', (4, 13)]"
p3962
I-1
sS"168['attack', (3, 14)]"
p3963
I-1
sS"172['attack', (14, 13)]"
p3964
I-1
sS"85['attack', (1, 9)]"
p3965
I-1
sS"267['attack', (5, 15)]"
p3966
I-1
sS"149['attack', (2, 8)]"
p3967
I-1
sS"98['attack', (15, 6)]"
p3968
I-1
sS"203['attack', (13, 8)]"
p3969
I-1
sS"274['attack', (9, 17)]"
p3970
I-2
sS"278['attack', (5, 16)]"
p3971
I-1
sS"75['attack', (1, 9)]"
p3972
I-1
sS"128['move', (4, 16)]"
p3973
I-1
sS"257['move', (1, 13)]"
p3974
I-1
sS"26['attack', (6, 10)]"
p3975
I-1
sS"380['attack', (3, 8)]"
p3976
I-1
sS"48['attack', (10, 3)]"
p3977
I-1
sS"264['attack', (12, 13)]"
p3978
I-1
sS"138['attack', (15, 12)]"
p3979
I-1
sS"30['attack', (15, 11)]"
p3980
I-1
sS"468['attack', (3, 4)]"
p3981
I-1
sS"149['attack', (3, 10)]"
p3982
I-1
sS"370['attack', (9, 16)]"
p3983
I-1
sS"34['attack', (8, 1)]"
p3984
I-1
sS"10['attack', (14, 16)]"
p3985
I-1
sS"260['attack', (14, 13)]"
p3986
I-1
sS"214['attack', (6, 5)]"
p3987
I-1
sS"291['attack', (14, 12)]"
p3988
I-1
sS"136['attack', (15, 11)]"
p3989
I-1
sS"163['attack', (8, 1)]"
p3990
I-1
sS"152['attack', (5, 14)]"
p3991
I-1
sS"1048839['attack', (9, 3)]"
p3992
I-1
sS"41['attack', (9, 1)]"
p3993
I-1
sS"48['attack', (15, 7)]"
p3994
I-1
sS"5['attack', (17, 8)]"
p3995
I-1
sS"440['attack', (5, 13)]"
p3996
I-1
sS"151['attack', (3, 12)]"
p3997
I-1
sS"71['attack', (4, 6)]"
p3998
I-1
sS"142['attack', (8, 5)]"
p3999
I-1
sS"47['attack', (10, 15)]"
p4000
I-1
sS"275['attack', (7, 11)]"
p4001
I-1
sS"48['attack', (4, 8)]"
p4002
I-1
sS"156['move', (12, 17)]"
p4003
I-2
sS"164['attack', (5, 12)]"
p4004
I-1
sS"95['attack', (14, 10)]"
p4005
I-1
sS"98['attack', (0, 11)]"
p4006
I-1
sS"84['move', (5, 1)]"
p4007
I-1
sS"97['attack', (14, 14)]"
p4008
I-1
sS"69['attack', (13, 16)]"
p4009
I-2
sS"158['attack', (3, 8)]"
p4010
I-1
sS"170['attack', (9, 15)]"
p4011
I-1
sS"25['attack', (16, 9)]"
p4012
I-1
sS"226['move', (15, 2)]"
p4013
I-2
sS"160['move', (18, 7)]"
p4014
I-1
sS"146['attack', (15, 6)]"
p4015
I-1
sS"180['move', (10, 9)]"
p4016
I100
sS"5['attack', (16, 6)]"
p4017
I-1
sS"347['move', (17, 13)]"
p4018
I-1
sS"467['attack', (15, 13)]"
p4019
I-1
sS"40['attack', (8, 4)]"
p4020
I-1
sS"1['attack', (5, 14)]"
p4021
I-1
sS"36['attack', (4, 9)]"
p4022
I-2
sS"133['attack', (2, 15)]"
p4023
I-1
sS"84['guard']"
p4024
I-1
sS"138['attack', (11, 16)]"
p4025
I-2
sS"34['attack', (3, 11)]"
p4026
I-1
sS"156['attack', (5, 10)]"
p4027
I-1
sS"4['attack', (6, 3)]"
p4028
I-1
sS"26['move', (8, 0)]"
p4029
I-1
sS"1048584['move', (6, 1)]"
p4030
I-1
sS"10['move', (18, 11)]"
p4031
I-1
sS"88['attack', (17, 7)]"
p4032
I-1
sS"346['attack', (6, 15)]"
p4033
I-1
sS"43['attack', (11, 6)]"
p4034
I-1
sS"0['move', (5, 17)]"
p4035
I-1
sS"7['attack', (15, 12)]"
p4036
I-1
sS"50['move', (12, 1)]"
p4037
I-2
sS"171['attack', (16, 6)]"
p4038
I-1
sS"168['attack', (1, 12)]"
p4039
I-1
sS"332['attack', (15, 5)]"
p4040
I-1
sS"118['move', (2, 14)]"
p4041
I-2
sS"197['attack', (2, 4)]"
p4042
I-1
sS"1048745['guard']"
p4043
I-100
sS"48['attack', (6, 15)]"
p4044
I-1
sS"68['attack', (11, 18)]"
p4045
I-2
sS"105['attack', (5, 11)]"
p4046
I-1
sS"22['attack', (14, 14)]"
p4047
I-1
sS"5['move', (18, 7)]"
p4048
I-1
sS"98['attack', (3, 8)]"
p4049
I-1
sS"71['attack', (2, 10)]"
p4050
I-1
sS"146['move', (10, 0)]"
p4051
I-1
sS"177['attack', (13, 3)]"
p4052
I-1
sS"70['attack', (11, 1)]"
p4053
I-1
sS"77['attack', (13, 7)]"
p4054
I-1
sS"38['attack', (10, 3)]"
p4055
I-1
sS"462['attack', (3, 14)]"
p4056
I99
sS"38['attack', (13, 16)]"
p4057
I-1
sS"155['attack', (14, 9)]"
p4058
I-1
sS"244['move', (16, 15)]"
p4059
I-1
sS"500['attack', (3, 15)]"
p4060
I-1
sS"85['attack', (10, 4)]"
p4061
I-1
sS"57['attack', (16, 4)]"
p4062
I-1
sS"40['attack', (2, 14)]"
p4063
I-2
sS"116['attack', (7, 15)]"
p4064
I-1
sS"208['attack', (10, 3)]"
p4065
I-1
sS"46['attack', (12, 7)]"
p4066
I-1
sS"165['attack', (12, 6)]"
p4067
I-1
sS"85['attack', (15, 12)]"
p4068
I-1
sS"162['attack', (5, 14)]"
p4069
I-1
sS"274['move', (9, 15)]"
p4070
I-100
sS"6['attack', (4, 13)]"
p4071
I-1
sS"8['attack', (1, 7)]"
p4072
I-1
sS"1048722['attack', (14, 13)]"
p4073
I-1
sS"213['attack', (8, 2)]"
p4074
I-1
sS"59['move', (14, 2)]"
p4075
I-1
sS"219['attack', (13, 7)]"
p4076
I-1
sS"1048661['attack', (4, 12)]"
p4077
I-1
sS"486['attack', (12, 15)]"
p4078
I-1
sS"198['attack', (1, 10)]"
p4079
I-1
sS"1048964['attack', (13, 11)]"
p4080
I-1
sS"210['attack', (8, 10)]"
p4081
I-1
sS"96['move', (0, 10)]"
p4082
I-3
sS"354['attack', (8, 13)]"
p4083
I-1
sS"67['attack', (5, 3)]"
p4084
I-1
sS"3['attack', (3, 5)]"
p4085
I-2
sS"217['attack', (10, 0)]"
p4086
I-1
sS"258['move', (12, 5)]"
p4087
I-100
sS"98['attack', (16, 13)]"
p4088
I-1
sS"169['attack', (12, 3)]"
p4089
I-1
sS"230['move', (2, 4)]"
p4090
I-1
sS"21['move', (0, 10)]"
p4091
I-1
sS"23['attack', (13, 9)]"
p4092
I-1
sS"84['attack', (9, 0)]"
p4093
I-1
sS"133['attack', (3, 12)]"
p4094
I-1
sS"135['attack', (5, 5)]"
p4095
I-1
sS"214['attack', (13, 8)]"
p4096
I-1
sS"213['attack', (6, 12)]"
p4097
I-1
sS"71['attack', (17, 8)]"
p4098
I-1
sS"166['attack', (14, 13)]"
p4099
I-1
sS"119['attack', (15, 3)]"
p4100
I-1
sS"153['attack', (15, 10)]"
p4101
I-1
sS"308['attack', (15, 9)]"
p4102
I-1
sS"64['move', (18, 8)]"
p4103
I-1
sS"130['attack', (11, 18)]"
p4104
I-2
sS"295['attack', (1, 7)]"
p4105
I-1
sS"2['attack', (12, 15)]"
p4106
I-1
sS"48['attack', (15, 14)]"
p4107
I-1
sS"223['attack', (5, 12)]"
p4108
I-1
sS"47['attack', (13, 16)]"
p4109
I-1
sS"96['move', (2, 4)]"
p4110
I-1
sS"405['move', (8, 12)]"
p4111
I-100
sS"345['attack', (8, 15)]"
p4112
I-1
sS"77['attack', (6, 2)]"
p4113
I-1
sS"187['attack', (7, 7)]"
p4114
I-1
sS"130['attack', (4, 14)]"
p4115
I-1
sS"71['attack', (13, 15)]"
p4116
I-1
sS"146['attack', (8, 2)]"
p4117
I-1
sS"0['attack', (15, 12)]"
p4118
I-1
sS"193['move', (18, 7)]"
p4119
I-2
sS"22['attack', (5, 17)]"
p4120
I-1
sS"32['move', (18, 8)]"
p4121
I-1
sS"185['attack', (6, 16)]"
p4122
I-1
sS"140['attack', (12, 4)]"
p4123
I-1
sS"147['move', (4, 16)]"
p4124
I-1
sS"206['attack', (15, 14)]"
p4125
I-1
sS"164['attack', (14, 8)]"
p4126
I-1
sS"165['attack', (8, 1)]"
p4127
I-1
sS"152['move', (5, 15)]"
p4128
I-1
sS"41['attack', (7, 2)]"
p4129
I-1
sS"74['attack', (7, 1)]"
p4130
I-1
sS"467['attack', (5, 17)]"
p4131
I-1
sS"26['attack', (6, 15)]"
p4132
I-1
sS"120['attack', (4, 11)]"
p4133
I-1
sS"25['attack', (16, 8)]"
p4134
I-1
sS"53['attack', (15, 6)]"
p4135
I-1
sS"48['attack', (11, 2)]"
p4136
I-1
sS"163['attack', (16, 10)]"
p4137
I-1
sS"171['attack', (10, 2)]"
p4138
I-1
sS"6['attack', (7, 16)]"
p4139
I-1
sS"80['attack', (3, 14)]"
p4140
I-1
sS"297['attack', (11, 6)]"
p4141
I-1
sS"284['move', (17, 5)]"
p4142
I-1
sS"60['move', (5, 17)]"
p4143
I-1
sS"166['attack', (12, 3)]"
p4144
I-1
sS"24['attack', (12, 1)]"
p4145
I-2
sS"290['attack', (8, 8)]"
p4146
I-1
sS"145['move', (17, 6)]"
p4147
I-1
sS"174['attack', (5, 6)]"
p4148
I-1
sS"400['attack', (4, 14)]"
p4149
I-1
sS"1048734['attack', (8, 16)]"
p4150
I-1
sS"665['attack', (4, 7)]"
p4151
I-1
sS"146['attack', (5, 3)]"
p4152
I-1
sS"224['attack', (2, 11)]"
p4153
I-1
sS"67['attack', (11, 1)]"
p4154
I-2
sS"238['attack', (7, 10)]"
p4155
I-1
sS"57['attack', (13, 3)]"
p4156
I-1
sS"38['attack', (3, 7)]"
p4157
I-1
sS"268['attack', (5, 6)]"
p4158
I-1
sS"0['move', (2, 15)]"
p4159
I-1
sS"160['attack', (3, 3)]"
p4160
I-1
sS"291['attack', (15, 14)]"
p4161
I-1
sS"68['move', (2, 4)]"
p4162
I-2
sS"5['attack', (16, 4)]"
p4163
I-1
sS"251['attack', (6, 14)]"
p4164
I-1
sS"36['attack', (2, 12)]"
p4165
I-2
sS"127['attack', (12, 4)]"
p4166
I-1
sS"547['attack', (2, 15)]"
p4167
I-1
sS"283['attack', (11, 12)]"
p4168
I-1
sS"250['attack', (7, 13)]"
p4169
I-1
sS"240['attack', (4, 2)]"
p4170
I-1
sS"146['attack', (14, 5)]"
p4171
I-1
sS"21['move', (13, 17)]"
p4172
I-1
sS"568['attack', (3, 16)]"
p4173
I-1
sS"268['attack', (17, 5)]"
p4174
I-1
sS"186['attack', (15, 11)]"
p4175
I-1
sS"1048621['attack', (13, 12)]"
p4176
I-1
sS"105['attack', (15, 12)]"
p4177
I-1
sS"168['attack', (3, 8)]"
p4178
I-1
sS"5['attack', (1, 12)]"
p4179
I-1
sS"420['attack', (5, 14)]"
p4180
I-1
sS"226['attack', (2, 12)]"
p4181
I-1
sS"280['attack', (14, 5)]"
p4182
I-1
sS"134['attack', (8, 13)]"
p4183
I-1
sS"136['attack', (12, 13)]"
p4184
I-1
sS"157['attack', (15, 7)]"
p4185
I-1
sS"142['guard']"
p4186
I-1
sS"48['attack', (16, 10)]"
p4187
I-1
sS"171['attack', (2, 11)]"
p4188
I-1
sS"33['attack', (8, 3)]"
p4189
I-1
sS"213['attack', (11, 4)]"
p4190
I-1
sS"178['attack', (9, 17)]"
p4191
I-1
sS"258['attack', (9, 4)]"
p4192
I-1
sS"175['attack', (17, 11)]"
p4193
I-1
sS"147['move', (6, 17)]"
p4194
I-1
sS"304['attack', (2, 13)]"
p4195
I-1
sS"91['move', (2, 4)]"
p4196
I-1
sS"133['attack', (2, 10)]"
p4197
I-2
sS"239['attack', (15, 7)]"
p4198
I-1
sS"305['attack', (11, 10)]"
p4199
I-1
sS"1048706['attack', (6, 3)]"
p4200
I-1
sS"57['attack', (9, 0)]"
p4201
I-1
sS"172['attack', (10, 17)]"
p4202
I-1
sS"67['attack', (4, 8)]"
p4203
I-1
sS"147['attack', (15, 10)]"
p4204
I-1
sS"221['attack', (4, 13)]"
p4205
I-1
sS"200['move', (10, 16)]"
p4206
I-1
sS"305['attack', (12, 9)]"
p4207
I-1
sS"223['attack', (10, 4)]"
p4208
I-1
sS"148['attack', (14, 6)]"
p4209
I-1
sS"68['move', (0, 9)]"
p4210
I-1
sS"42['attack', (4, 9)]"
p4211
I-1
sS"200['move', (15, 13)]"
p4212
I99
sS"192['attack', (15, 13)]"
p4213
I-1
sS"167['move', (16, 15)]"
p4214
I-1
sS"192['attack', (12, 4)]"
p4215
I-1
sS"228['attack', (6, 13)]"
p4216
I-1
sS"427['attack', (14, 12)]"
p4217
I-1
sS"404['attack', (12, 4)]"
p4218
I-1
sS"124['attack', (3, 5)]"
p4219
I-1
sS"300['attack', (6, 5)]"
p4220
I-1
sS"10['attack', (8, 17)]"
p4221
I-1
sS"116['attack', (4, 9)]"
p4222
I-1
sS"287['attack', (3, 12)]"
p4223
I-1
sS"521['attack', (16, 14)]"
p4224
I-1
sS"191['attack', (13, 4)]"
p4225
I-1
sS"40['attack', (11, 17)]"
p4226
I-1
sS"161['move', (4, 16)]"
p4227
I-1
sS"390['attack', (6, 17)]"
p4228
I-1
sS"1048720['attack', (3, 9)]"
p4229
I-1
s.