(dp0
S"336592960['move', (1, 11)]"
p1
F-26.73
sS"79691780['attack', (11, 2)]"
p2
I-10
sS"218103824['suicide']"
p3
F5.321348841291143e+64
sS"142606368['move', (9, 4)]"
p4
I-10
sS"549453832['attack', (13, 16)]"
p5
I-20
sS"542113824['move', (6, 16)]"
p6
F-11.1
sS"579862656['move', (8, 17)]"
p7
F-165.64436815697252
sS"353370120['attack', (18, 10)]"
p8
I-10
sS"516947968['attack', (12, 15)]"
p9
I-20
sS"349175808['attack', (13, 11)]"
p10
I-10
sS"546308240['guard']"
p11
F899.2067266454611
sS"115343360['attack', (15, 3)]"
p12
I-110
sS"286261249['move', (18, 8)]"
p13
I-20
sS"78643200['attack', (11, 3)]"
p14
I-30
sS"452984833['guard']"
p15
F1.380942935970756e+68
sS"545259524['attack', (8, 15)]"
p16
I-10
sS"146800640['attack', (12, 5)]"
p17
I-10
sS"148897824['move', (15, 4)]"
p18
I-10
sS"547356672['attack', (11, 16)]"
p19
I-20
sS"141557760['move', (7, 3)]"
p20
F2.941974732198223e+36
sS"1393557504['guard']"
p21
F-33.0
sS"112197634['attack', (11, 4)]"
p22
I-10
sS"519045121['attack', (14, 15)]"
p23
I-40
sS"72351748['guard']"
p24
F4.997576883748619e+39
sS"1393557568['guard']"
p25
F-161.76491454858555
sS"169869378['move', (1, 5)]"
p26
I-10
sS"203423762['attack', (1, 6)]"
p27
I-10
sS"579862560['attack', (9, 18)]"
p28
I-30
sS"171966464['attack', (5, 5)]"
p29
I-20
sS"336592928['attack', (0, 10)]"
p30
I-10
sS"516947968['attack', (13, 14)]"
p31
I-30
sS"374341632['attack', (4, 11)]"
p32
I-10
sS"542113792['move', (4, 16)]"
p33
I-160
sS"269484036['move', (0, 8)]"
p34
I-10
sS"511705104['suicide']"
p35
F-909.9213160910936
sS"483393536['suicide']"
p36
I-50
sS"550502400['attack', (14, 16)]"
p37
I-100
sS"138412160['attack', (4, 3)]"
p38
I-10
sS"543162376['guard']"
p39
F4.80112622347169e+68
sS"519045121['guard']"
p40
F2.0056104509536773e+57
sS"546308160['move', (9, 17)]"
p41
I-20
sS"419430465['move', (16, 13)]"
p42
F-11.0
sS"248512512['attack', (14, 7)]"
p43
I-10
sS"206569472['attack', (5, 7)]"
p44
I-10
sS"544210948['move', (7, 17)]"
p45
I-10
sS"144703488['attack', (9, 4)]"
p46
I-10
sS"41943044['attack', (9, 1)]"
p47
I-20
sS"236978176['guard']"
p48
F-37.186043143930995
sS"338690048['attack', (4, 10)]"
p49
I-20
sS"382730240['move', (14, 11)]"
p50
I990
sS"353370112['attack', (16, 10)]"
p51
I-100
sS"146800642['attack', (12, 5)]"
p52
I-10
sS"269484032['attack', (2, 8)]"
p53
I-110
sS"239075328['attack', (5, 7)]"
p54
I-20
sS"519045128['suicide']"
p55
F-2541.825610244478
sS"439353472['attack', (3, 14)]"
p56
I-10
sS"218103936['attack', (16, 7)]"
p57
I-10
sS"418381824['attack', (14, 12)]"
p58
I-50
sS"44040256['attack', (11, 1)]"
p59
I-10
sS"419430416['attack', (16, 13)]"
p60
I-10
sS"452984848['attack', (15, 13)]"
p61
I-10
sS"170917888['attack', (3, 6)]"
p62
I-100
sS"447741952['attack', (11, 14)]"
p63
I-10
sS"204472448['attack', (3, 5)]"
p64
I-10
sS"203423745['suicide']"
p65
I-30
sS"386924545['move', (17, 12)]"
p66
I-10
sS"579862528['move', (9, 18)]"
p67
I-100
sS"104857600['guard']"
p68
F-29282.686778958698
sS"337641480['attack', (2, 11)]"
p69
I-10
sS"213909504['attack', (12, 7)]"
p70
I-10
sS"543162384['guard']"
p71
I-10
sS"514850816['suicide']"
p72
F-56.1051
sS"385876000['suicide']"
p73
F-116.30330889965681
sS"508559360['attack', (5, 16)]"
p74
I-110
sS"73400448['move', (5, 2)]"
p75
F-27.641
sS"307232768['attack', (5, 8)]"
p76
I-10
sS"176160768['suicide']"
p77
F-9479.549616661705
sS"41943174['move', (8, 0)]"
p78
I-10
sS"385875970['suicide']"
p79
F-34.31
sS"512753728['attack', (9, 14)]"
p80
I-10
sS"303038464['attack', (1, 10)]"
p81
I-180
sS"547356800['attack', (11, 16)]"
p82
I-10
sS"113246336['move', (12, 2)]"
p83
F412152249.76205325
sS"148897792['attack', (14, 3)]"
p84
I-20
sS"353370256['guard']"
p85
F842699768940.6879
sS"140509184['move', (7, 4)]"
p86
F2067961879827505.5
sS"103809088['suicide']"
p87
F-125.87572438172707
sS"182452224['attack', (15, 5)]"
p88
I-70
sS"544210960['attack', (7, 15)]"
p89
I-10
sS"40894464['attack', (7, 0)]"
p90
I-140
sS"579862529['attack', (8, 17)]"
p91
I-10
sS"440401984['move', (4, 12)]"
p92
I-10
sS"236978176['attack', (2, 6)]"
p93
I-40
sS"40894528['guard']"
p94
F1.1053988137066322e+52
sS"579862560['suicide']"
p95
F-51.0
sS"441450496['suicide']"
p96
F-51.565641
sS"370147329['attack', (2, 11)]"
p97
I-40
sS"506462224['attack', (2, 15)]"
p98
I-20
sS"113246209['attack', (11, 3)]"
p99
I-20
sS"318767104['attack', (16, 8)]"
p100
I-50
sS"543162370['suicide']"
p101
F-65.02871997872879
sS"350224384['attack', (13, 10)]"
p102
I-10
sS"303038464['guard']"
p103
F-50782.40635024928
sS"442499072['attack', (5, 13)]"
p104
I-40
sS"42991744['guard']"
p105
F3.082907533776162e+72
sS"303038466['attack', (0, 9)]"
p106
I-10
sS"75497473['move', (8, 1)]"
p107
F-47.7502549691
sS"519045128['move', (14, 15)]"
p108
F-26.0
sS"353370177['suicide']"
p109
F5.569021065236454e+53
sS"72351744['attack', (5, 1)]"
p110
I-50
sS"484442112['attack', (14, 13)]"
p111
I-110
sS"44040194['suicide']"
p112
F-260.46892109219004
sS"169869378['move', (2, 4)]"
p113
I-10
sS"579862536['move', (9, 18)]"
p114
I-20
sS"514850816['attack', (11, 16)]"
p115
I-20
sS"542113792['attack', (5, 15)]"
p116
I-160
sS"452984832['move', (16, 12)]"
p117
F-455.96823113060776
sS"40894560['guard']"
p118
F-15.0
sS"74448928['attack', (7, 3)]"
p119
I-30
sS"303038528['move', (1, 10)]"
p120
F-44.969681
sS"543162400['move', (5, 16)]"
p121
F-85.73458888772022
sS"73400448['attack', (6, 3)]"
p122
I-20
sS"80740480['move', (12, 2)]"
p123
F-5544.694113970154
sS"579862544['guard']"
p124
F581345172.8217127
sS"319815808['attack', (17, 8)]"
p125
I-20
sS"115343360['attack', (14, 4)]"
p126
I-100
sS"79691776['attack', (13, 2)]"
p127
I-120
sS"578813968['attack', (8, 16)]"
p128
I-10
sS"512753665['attack', (8, 15)]"
p129
I-10
sS"146800640['attack', (12, 3)]"
p130
I-10
sS"485490688['attack', (14, 14)]"
p131
I-100
sS"317718532['suicide']"
p132
F1393.5409769623773
sS"472907840['move', (2, 14)]"
p133
I-60
sS"213909504['attack', (13, 6)]"
p134
I-10
sS"304087040['attack', (2, 10)]"
p135
I-50
sS"549453824['guard']"
p136
F2.0313808604570872e+74
sS"405798912['attack', (2, 12)]"
p137
I-30
sS"111149056['attack', (10, 4)]"
p138
I-40
sS"303038468['move', (0, 9)]"
p139
I-30
sS"386924560['move', (17, 10)]"
p140
F-11.0
sS"286261252['attack', (16, 8)]"
p141
I-20
sS"580911232['attack', (9, 17)]"
p142
I-10
sS"251658242['suicide']"
p143
F140781381.129887
sS"41943136['attack', (8, 2)]"
p144
I-10
sS"44040320['move', (11, 1)]"
p145
F1.3606204348137246e+74
sS"114294784['suicide']"
p146
F6.766894144232366e+52
sS"108003330['attack', (7, 4)]"
p147
I-10
sS"250609664['suicide']"
p148
F-51.97461
sS"146800640['guard']"
p149
F51140091.09773747
sS"77594640['move', (10, 1)]"
p150
I-10
sS"250609664['attack', (15, 8)]"
p151
I-30
sS"79691780['suicide']"
p152
F-85.5646417126654
sS"44040200['suicide']"
p153
F-149.58278420288198
sS"76546049['move', (9, 1)]"
p154
F-23.0
sS"519045248['move', (15, 16)]"
p155
I-40
sS"550502528['move', (13, 17)]"
p156
I-10
sS"137363476['attack', (4, 4)]"
p157
I-10
sS"580911105['attack', (10, 18)]"
p158
I-10
sS"210763776['attack', (10, 6)]"
p159
I-10
sS"386924544['move', (17, 10)]"
p160
F2.1175321743686928e+70
sS"283115520['attack', (15, 8)]"
p161
I-20
sS"577765376['suicide']"
p162
F-598.255187456019
sS"580911114['suicide']"
p163
F7.535848222022541e+49
sS"577765376['move', (7, 18)]"
p164
I-160
sS"41943048['attack', (8, 0)]"
p165
I-20
sS"303038466['attack', (1, 10)]"
p166
I-10
sS"40894464['suicide']"
p167
F-152.314726770611
sS"419430401['attack', (16, 13)]"
p168
I-10
sS"578813968['attack', (7, 17)]"
p169
I-10
sS"269484096['guard']"
p170
F5.951197390825916e+59
sS"44040352['move', (9, 1)]"
p171
F-34.2797171
sS"506462209['move', (3, 14)]"
p172
F-21.0
sS"203423760['guard']"
p173
F5.653891834222086e+71
sS"477102080['suicide']"
p174
I-50
sS"580911232['move', (9, 17)]"
p175
F-15.0
sS"40894468['move', (6, 1)]"
p176
I-10
sS"579862560['move', (10, 17)]"
p177
F-72.96201428263007
sS"452984960['move', (16, 14)]"
p178
I-20
sS"580911136['guard']"
p179
F-452.400552794871
sS"184549440['move', (17, 5)]"
p180
I-10
sS"386924545['guard']"
p181
F1.2846233276574436e+60
sS"353370124['guard']"
p182
F-31.49005701
sS"146800640['attack', (11, 4)]"
p183
I-10
sS"1393557504['move', (18, 9)]"
p184
I-20
sS"517996544['attack', (15, 15)]"
p185
I-110
sS"73400448['move', (6, 1)]"
p186
I-10
sS"440401920['attack', (3, 13)]"
p187
I-40
sS"76546048['attack', (10, 2)]"
p188
I-60
sS"580911106['guard']"
p189
F-179.23065720000002
sS"404750336['attack', (2, 13)]"
p190
I-20
sS"72351744['move', (6, 2)]"
p191
F-3602.25351514165
sS"336592960['guard']"
p192
F-94.03
sS"75497504['attack', (9, 2)]"
p193
I-20
sS"441450496['attack', (5, 12)]"
p194
I-50
sS"438304768['attack', (3, 13)]"
p195
I-30
sS"111149058['suicide']"
p196
I-30
sS"79691808['move', (12, 1)]"
p197
I-30
sS"516947972['attack', (13, 14)]"
p198
I-10
sS"475004932['attack', (6, 14)]"
p199
I-20
sS"184549376['attack', (16, 6)]"
p200
I-110
sS"303038484['suicide']"
p201
F3.984070429930442e+20
sS"184549440['guard']"
p202
F1.2158806757400619e+48
sS"42991624['guard']"
p203
F1.5739597810743608e+68
sS"513802304['suicide']"
p204
F-128.78377659515223
sS"579862530['attack', (8, 17)]"
p205
I-30
sS"138412160['attack', (4, 5)]"
p206
I-40
sS"105906208['move', (6, 3)]"
p207
I-10
sS"76546048['move', (9, 1)]"
p208
F5.264748434787404e+69
sS"475004928['attack', (5, 13)]"
p209
I-50
sS"271581184['attack', (3, 9)]"
p210
I-40
sS"271581184['suicide']"
p211
I-50
sS"109051968['suicide']"
p212
I-50
sS"542113794['attack', (5, 15)]"
p213
I-20
sS"184549376['move', (17, 5)]"
p214
I-110
sS"404750336['attack', (2, 11)]"
p215
I-20
sS"577765376['move', (8, 17)]"
p216
F-154.28651960875953
sS"578813954['attack', (8, 16)]"
p217
I-20
sS"508559360['suicide']"
p218
F9.904679470895028e+68
sS"485490820['attack', (15, 13)]"
p219
I-10
sS"507510785['attack', (5, 15)]"
p220
I-10
sS"473956352['suicide']"
p221
F4.088420657726204e+66
sS"404750340['move', (2, 13)]"
p222
F-33.0
sS"177209344['suicide']"
p223
F-53.0
sS"41943048['guard']"
p224
F-109.3442561
sS"103809024['attack', (3, 4)]"
p225
I-50
sS"42991624['attack', (9, 0)]"
p226
I-10
sS"472907792['guard']"
p227
F4.8003088167824956e+20
sS"137363456['attack', (2, 4)]"
p228
I-20
sS"303038480['move', (0, 9)]"
p229
I-20
sS"404750336['guard']"
p230
F3.461695518200168e+77
sS"73400328['suicide']"
p231
F-98.01821776519533
sS"578813952['attack', (9, 17)]"
p232
I-110
sS"141557760['suicide']"
p233
I-100
sS"269484036['move', (1, 9)]"
p234
F-33.1
sS"319815744['suicide']"
p235
F1.7523741295303767e+69
sS"475004944['attack', (6, 14)]"
p236
I-10
sS"579862544['move', (9, 18)]"
p237
I-20
sS"303038466['move', (0, 9)]"
p238
I-10
sS"549453856['guard']"
p239
F2.258840973396715e+52
sS"351272960['attack', (16, 10)]"
p240
I-20
sS"42991656['guard']"
p241
F8.456579669942579e+22
sS"352321568['attack', (16, 9)]"
p242
I-10
sS"76546176['attack', (9, 3)]"
p243
I-10
sS"217055264['move', (16, 6)]"
p244
I-10
sS"352321537['attack', (17, 10)]"
p245
I-20
sS"252706880['move', (17, 6)]"
p246
I-10
sS"149946496['guard']"
p247
F-32.6
sS"103809024['move', (3, 2)]"
p248
I-60
sS"142606352['suicide']"
p249
F-692.8589965940315
sS"116392064['guard']"
p250
F1.2248658358598289e+69
sS"184549504['guard']"
p251
F-21.0
sS"581959680['guard']"
p252
F1.233276265940127e+74
sS"110100544['attack', (9, 2)]"
p253
I-10
sS"439353408['suicide']"
p254
F3772547.796561487
sS"218103808['suicide']"
p255
F-101.0
sS"44040200['attack', (10, 2)]"
p256
I-30
sS"113246209['attack', (13, 3)]"
p257
I-10
sS"79691812['move', (12, 3)]"
p258
F-49.13689448813646
sS"515899396['attack', (13, 15)]"
p259
I-10
sS"78643265['attack', (12, 2)]"
p260
I-10
sS"142606336['attack', (8, 3)]"
p261
I-10
sS"506462210['guard']"
p262
F1.5599426055100468e+71
sS"542113824['attack', (5, 15)]"
p263
I-20
sS"218103812['attack', (17, 6)]"
p264
I-10
sS"109051905['suicide']"
p265
F-32.431
sS"105906177['attack', (5, 4)]"
p266
I-30
sS"235929600['guard']"
p267
F-112353.67776927279
sS"204472448['attack', (2, 6)]"
p268
I-10
sS"303038529['move', (1, 8)]"
p269
F-16.1051
sS"353370112['move', (18, 10)]"
p270
I-100
sS"79691812['attack', (11, 2)]"
p271
I-10
sS"205520912['suicide']"
p272
F-51.0
sS"80740360['move', (12, 2)]"
p273
F-811.0944857537274
sS"472907808['guard']"
p274
F-791.4605639348237
sS"80740352['move', (14, 2)]"
p275
I-180
sS"103809024['attack', (3, 2)]"
p276
I-60
sS"512753728['guard']"
p277
F911.9897147173416
sS"484442112['attack', (13, 14)]"
p278
I-110
sS"440401920['suicide']"
p279
I-50
sS"418381826['attack', (15, 13)]"
p280
I-10
sS"404750400['attack', (3, 12)]"
p281
I-20
sS"110100480['suicide']"
p282
F-51.1
sS"580911106['move', (10, 18)]"
p283
I-30
sS"44040224['move', (11, 1)]"
p284
F-338.2511826374898
sS"235929604['attack', (2, 7)]"
p285
I-20
sS"542113794['guard']"
p286
F-85.6563897521
sS"542113794['suicide']"
p287
F2.1025398786062286e+48
sS"286261312['attack', (17, 7)]"
p288
I-20
sS"218103808['guard']"
p289
F3.222367610073052e+72
sS"579862538['suicide']"
p290
F298989166913792.75
sS"113246209['attack', (12, 4)]"
p291
I-20
sS"319815685['move', (18, 9)]"
p292
I-10
sS"269484052['guard']"
p293
I-10
sS"79691808['suicide']"
p294
F2.6823655688118807e+73
sS"438304768['move', (1, 13)]"
p295
I-20
sS"450887680['attack', (15, 13)]"
p296
I-30
sS"286261248['suicide']"
p297
I-100
sS"482344960['attack', (13, 14)]"
p298
I-60
sS"252706820['attack', (17, 6)]"
p299
I-10
sS"140509184['attack', (5, 4)]"
p300
I-20
sS"384827392['attack', (15, 10)]"
p301
I-30
sS"353370132['guard']"
p302
F-12.1
sS"546308100['attack', (8, 16)]"
p303
I-10
sS"580911136['move', (11, 17)]"
p304
F-53.29972821
sS"544211040['suicide']"
p305
F9198079.820472693
sS"73400324['attack', (7, 2)]"
p306
I-10
sS"472907776['move', (3, 15)]"
p307
F-175.01002648854887
sS"579862530['move', (9, 18)]"
p308
I-20
sS"72351776['move', (6, 2)]"
p309
F-21.0
sS"319815745['move', (17, 8)]"
p310
F-31.0
sS"419430465['guard']"
p311
I-20
sS"351272976['attack', (15, 11)]"
p312
I-10
sS"286261264['suicide']"
p313
F3.366934862938588e+68
sS"45088896['attack', (10, 1)]"
p314
I-20
sS"40894496['attack', (7, 2)]"
p315
I-20
sS"103809024['suicide']"
p316
F-4640.520694848012
sS"40894466['suicide']"
p317
F-3176.5799948934473
sS"149946369['attack', (15, 5)]"
p318
I-100
sS"149946369['move', (15, 3)]"
p319
F-199.4030856523179
sS"210763776['attack', (9, 7)]"
p320
I-10
sS"105906240['attack', (6, 3)]"
p321
I-10
sS"1180696576['suicide']"
p322
F-228.75339085493135
sS"440401928['suicide']"
p323
I-30
sS"252706880['attack', (18, 7)]"
p324
I-20
sS"112197633['attack', (10, 3)]"
p325
I-10
sS"73400322['attack', (6, 3)]"
p326
I-10
sS"75497480['attack', (9, 2)]"
p327
I-20
sS"439353376['attack', (4, 13)]"
p328
I-10
sS"353370128['guard']"
p329
F5.824605865430512e+67
sS"113246240['suicide']"
p330
F-75.80126902553661
sS"149946368['move', (14, 4)]"
p331
F-27.79201
sS"472907792['attack', (4, 14)]"
p332
I-20
sS"105906208['attack', (5, 4)]"
p333
I-10
sS"544210948['suicide']"
p334
F2.264955378776004e+64
sS"479199232['attack', (10, 14)]"
p335
I-40
sS"78643200['attack', (12, 2)]"
p336
I-40
sS"443547648['attack', (8, 13)]"
p337
I-20
sS"340787200['suicide']"
p338
F-80.8982533725629
sS"451936289['attack', (14, 13)]"
p339
I-10
sS"183500800['suicide']"
p340
F1.1531515172844581e+73
sS"544210944['attack', (6, 16)]"
p341
I-60
sS"507510792['move', (4, 16)]"
p342
I-40
sS"181403650['suicide']"
p343
I-30
sS"506462208['move', (2, 15)]"
p344
I-130
sS"577765377['attack', (7, 16)]"
p345
F-36.64385727535529
sS"438304816['attack', (1, 13)]"
p346
I-10
sS"283115520['attack', (14, 9)]"
p347
I-10
sS"476053504['attack', (6, 15)]"
p348
I-20
sS"485490752['attack', (15, 15)]"
p349
I-40
sS"147849216['suicide']"
p350
F1.1692466253435859e+42
sS"80740480['attack', (13, 1)]"
p351
I-40
sS"169869314['attack', (2, 4)]"
p352
I-10
sS"44040224['attack', (11, 1)]"
p353
I-20
sS"75497472['move', (8, 1)]"
p354
F-129.43890768488347
sS"235929604['move', (1, 6)]"
p355
I-30
sS"318767168['attack', (15, 9)]"
p356
I-10
sS"75497481['move', (8, 1)]"
p357
I-10
sS"286261249['guard']"
p358
F-129.07864537512
sS"407896064['attack', (5, 11)]"
p359
I-10
sS"353370113['move', (18, 10)]"
p360
I-30
sS"44040202['move', (11, 1)]"
p361
F-34.2
sS"217055232['attack', (15, 7)]"
p362
I-30
sS"138412160['attack', (3, 4)]"
p363
I-10
sS"141557760['attack', (7, 3)]"
p364
I-60
sS"184549504['move', (16, 4)]"
p365
I-10
sS"44040192['move', (11, 1)]"
p366
F-2249.230105137841
sS"80740480['attack', (13, 3)]"
p367
I-30
sS"42991620['guard']"
p368
F2.6979427779767303e+68
sS"72351744['move', (5, 1)]"
p369
I-60
sS"79691808['attack', (12, 1)]"
p370
I-30
sS"519045248['move', (14, 15)]"
p371
F-75.79284451313346
sS"45088772['attack', (12, 1)]"
p372
I-20
sS"75497504['suicide']"
p373
I-50
sS"109051905['attack', (7, 3)]"
p374
I-10
sS"580911105['guard']"
p375
I-10
sS"478150656['attack', (7, 14)]"
p376
I-20
sS"544211008['move', (6, 16)]"
p377
F-1628.375058209987
sS"269484097['suicide']"
p378
F4.044775289169426e+56
sS"419430404['move', (16, 13)]"
p379
F-97.46106195985894
sS"184549388['move', (17, 5)]"
p380
I-10
sS"319815680['move', (17, 10)]"
p381
F-67.82756188669262
sS"550502400['attack', (13, 15)]"
p382
I-100
sS"578814080['guard']"
p383
F9.935958971690812e+50
sS"76546064['move', (9, 1)]"
p384
F-15.0
sS"404750336['suicide']"
p385
I-50
sS"79691780['guard']"
p386
F-13.0
sS"517996576['move', (14, 16)]"
p387
I-40
sS"580911104['attack', (10, 16)]"
p388
I-50
sS"75497488['attack', (7, 2)]"
p389
I-20
sS"316669952['suicide']"
p390
I-50
sS"79691812['guard']"
p391
F-21.0
sS"183500864['attack', (15, 4)]"
p392
I-10
sS"42991616['attack', (9, 2)]"
p393
I-60
sS"303038465['attack', (0, 9)]"
p394
I-20
sS"204472320['attack', (3, 7)]"
p395
I-20
sS"104857600['attack', (4, 2)]"
p396
I-110
sS"286261249['attack', (16, 8)]"
p397
I-20
sS"116391936['move', (15, 2)]"
p398
I-70
sS"339738624['attack', (4, 11)]"
p399
I-10
sS"218103808['attack', (17, 6)]"
p400
I-100
sS"440401952['guard']"
p401
I990
sS"41943104['move', (8, 0)]"
p402
I-10
sS"547356672['suicide']"
p403
I-50
sS"183500800['attack', (16, 5)]"
p404
I-90
sS"1182793744['attack', (8, 4)]"
p405
I-10
sS"242221056['attack', (6, 7)]"
p406
I-30
sS"545259552['attack', (8, 17)]"
p407
I-10
sS"303038529['attack', (2, 9)]"
p408
I-20
sS"42991776['guard']"
p409
F4.859151673435788e+68
sS"404750402['attack', (2, 13)]"
p410
I-10
sS"137363476['guard']"
p411
I-10
sS"240123904['attack', (5, 6)]"
p412
I-10
sS"542113824['move', (5, 17)]"
p413
I-20
sS"144703488['attack', (10, 5)]"
p414
I-20
sS"550502416['attack', (14, 16)]"
p415
I-10
sS"139460608['suicide']"
p416
F-51.0
sS"514850816['attack', (10, 15)]"
p417
I-10
sS"384827392['suicide']"
p418
I-50
sS"579862560['attack', (9, 16)]"
p419
I-30
sS"250609666['attack', (14, 7)]"
p420
I-30
sS"419430400['attack', (15, 12)]"
p421
I-220
sS"75497473['suicide']"
p422
F-67.502549691
sS"550502528['guard']"
p423
I-10
sS"473956354['move', (5, 14)]"
p424
I-10
sS"472907796['guard']"
p425
F-512.261112466605
sS"577765376['attack', (7, 18)]"
p426
I-160
sS"203423744['guard']"
p427
F1.104217700428668e+73
sS"286261312['move', (18, 8)]"
p428
I-30
sS"319815808['move', (18, 9)]"
p429
I-20
sS"104857664['attack', (4, 2)]"
p430
I-10
sS"386924560['suicide']"
p431
F21.25953988791474
sS"385875970['attack', (15, 11)]"
p432
I-10
sS"579862560['guard']"
p433
F-676.8403728198239
sS"318767105['attack', (16, 10)]"
p434
I-10
sS"111149056['attack', (10, 2)]"
p435
I-40
sS"184549380['guard']"
p436
F2.494286954778632e+65
sS"105906176['attack', (5, 4)]"
p437
I-30
sS"203423744['attack', (2, 7)]"
p438
I-130
sS"169869316['attack', (1, 5)]"
p439
I-20
sS"40894496['move', (7, 0)]"
p440
I-20
sS"218103812['guard']"
p441
F-21.0
sS"203423766['attack', (1, 6)]"
p442
I-10
sS"549453832['attack', (12, 15)]"
p443
I-20
sS"353370176['suicide']"
p444
F-55.641
sS"138412033['suicide']"
p445
F1.7430777520145587e+20
sS"169869318['move', (1, 5)]"
p446
I-10
sS"319815744['guard']"
p447
F-138.6763
sS"452984976['move', (17, 13)]"
p448
I-10
sS"103809088['move', (3, 4)]"
p449
F-63.7476253302
sS"44040232['attack', (11, 1)]"
p450
I-30
sS"319815680['suicide']"
p451
F-113.52920983864561
sS"1427111937['move', (18, 10)]"
p452
I-20
sS"353370136['move', (18, 10)]"
p453
I-10
sS"169869318['guard']"
p454
F3.6285484732498428e+19
sS"319815688['move', (18, 9)]"
p455
I-20
sS"475004928['suicide']"
p456
F-122.30022591284204
sS"41943076['move', (9, 1)]"
p457
F9.353955904426142e+47
sS"337641472['attack', (3, 10)]"
p458
I-50
sS"74448896['suicide']"
p459
F-115.6641
sS"419430408['attack', (17, 12)]"
p460
I-10
sS"106954752['move', (6, 2)]"
p461
F-80.0113623838816
sS"545259584['suicide']"
p462
I-50
sS"578813984['attack', (9, 17)]"
p463
I-30
sS"581959688['attack', (12, 17)]"
p464
I-10
sS"44040194['move', (10, 0)]"
p465
I-80
sS"45088896['suicide']"
p466
I-50
sS"217055248['move', (15, 5)]"
p467
I-10
sS"218103936['guard']"
p468
F-57.3894077691
sS"169869312['suicide']"
p469
F1.5688971749775216e+71
sS"79691778['attack', (11, 2)]"
p470
I-10
sS"203423776['guard']"
p471
F-46.410000000000004
sS"319815684['guard']"
p472
F2.1759990794881062e+74
sS"41943044['attack', (8, 0)]"
p473
I-10
sS"404750338['guard']"
p474
F258210459.3318225
sS"549453825['attack', (13, 16)]"
p475
I-10
sS"445644800['suicide']"
p476
F1488894.6026145294
sS"44040320['guard']"
p477
F-59.6
sS"286261264['attack', (17, 7)]"
p478
I-20
sS"137363457['attack', (3, 5)]"
p479
I-60
sS"336592912['attack', (1, 9)]"
p480
I-10
sS"441450498['guard']"
p481
F-1025.794110881
sS"416284672['attack', (12, 12)]"
p482
I-10
sS"116391944['move', (14, 3)]"
p483
F-34.0021832285927
sS"79691812['attack', (12, 1)]"
p484
I-10
sS"137363474['guard']"
p485
F-15.5701271
sS"477102080['attack', (6, 14)]"
p486
I-20
sS"251658240['attack', (17, 7)]"
p487
I-60
sS"75497472['suicide']"
p488
F-64.0978881
sS"581959681['guard']"
p489
F-41.82549691
sS"507510785['move', (5, 15)]"
p490
F981.9870991501625
sS"77594624['move', (10, 1)]"
p491
F1.1463338910730157e+40
sS"581959680['move', (10, 17)]"
p492
F-141.9016167912
sS"419430408['attack', (16, 11)]"
p493
I-10
sS"549453824['suicide']"
p494
F-256.9373782643886
sS"80740352['guard']"
p495
F5.662138997088175e+72
sS"542113792['attack', (6, 16)]"
p496
I-160
sS"549453826['guard']"
p497
F-295.30077674000006
sS"45088768['move', (12, 1)]"
p498
I-120
sS"404750340['guard']"
p499
F-69.41
sS"252706816['attack', (17, 8)]"
p500
I-160
sS"116391936['guard']"
p501
F5.65961586599518e+73
sS"303038464['attack', (0, 9)]"
p502
I-180
sS"386924552['attack', (17, 10)]"
p503
I-10
sS"370147328['guard']"
p504
F-13815.031495113959
sS"72351744['guard']"
p505
F3.2099837706407993e+72
sS"72351744['attack', (5, 3)]"
p506
I-50
sS"419430465['attack', (16, 13)]"
p507
I-10
sS"578813954['guard']"
p508
F2.6212625831079706e+50
sS"545259584['attack', (8, 17)]"
p509
I-10
sS"44040224['suicide']"
p510
I-50
sS"73400360['move', (7, 2)]"
p511
I-10
sS"171966464['suicide']"
p512
F-644.2043520845946
sS"452984832['move', (16, 14)]"
p513
I-260
sS"513802240['attack', (10, 16)]"
p514
I-40
sS"419430401['attack', (17, 12)]"
p515
I-10
sS"44040224['attack', (10, 2)]"
p516
I-20
sS"114294784['attack', (14, 3)]"
p517
I-70
sS"303038468['attack', (2, 9)]"
p518
I-20
sS"508559360['attack', (4, 15)]"
p519
I-110
sS"184549440['suicide']"
p520
F-51.1
sS"143654912['attack', (10, 4)]"
p521
I-10
sS"45088768['move', (10, 1)]"
p522
F-116.90041798610366
sS"73400450['suicide']"
p523
I-30
sS"42991680['attack', (10, 1)]"
p524
I-10
sS"319815680['attack', (18, 9)]"
p525
I-40
sS"578813968['move', (8, 18)]"
p526
I-10
sS"218103808['attack', (16, 5)]"
p527
I-100
sS"203423766['guard']"
p528
I-10
sS"41943052['guard']"
p529
F-21475.60312360202
sS"577765377['move', (7, 18)]"
p530
I-20
sS"1291845632['guard']"
p531
F-9265.70952819243
sS"137363456['attack', (4, 4)]"
p532
I-20
sS"80740352['move', (12, 2)]"
p533
F-281.2113064374687
sS"1344274432['guard']"
p534
F3.0083893893707566e+53
sS"148897796['move', (14, 3)]"
p535
F-40.5385672223488
sS"106954760['move', (7, 3)]"
p536
I-10
sS"451936256['move', (16, 13)]"
p537
I-20
sS"41943072['suicide']"
p538
F7.468839548413798e+71
sS"286261252['guard']"
p539
F6.117647206939832e+66
sS"577765392['guard']"
p540
F-5820.646852781522
sS"77594752['attack', (11, 2)]"
p541
I-10
sS"42991648['guard']"
p542
F1.975323657687184e+73
sS"472907776['guard']"
p543
F5.154508658064178e+71
sS"204472321['attack', (2, 6)]"
p544
I-10
sS"77594752['attack', (10, 1)]"
p545
I-10
sS"1358954528['suicide']"
p546
F4.7109337705167836e+35
sS"419430404['attack', (16, 11)]"
p547
I-60
sS"319815744['attack', (17, 8)]"
p548
I-30
sS"438304800['attack', (2, 12)]"
p549
I-10
sS"419430464['suicide']"
p550
F9.717304911282875e+68
sS"240123904['attack', (6, 7)]"
p551
I-20
sS"41943052['suicide']"
p552
F8.787884178966096e+68
sS"580911104['attack', (10, 18)]"
p553
I-50
sS"251658248['move', (15, 7)]"
p554
I-10
sS"170917889['move', (3, 4)]"
p555
I-10
sS"74448897['move', (7, 1)]"
p556
F-24.29562298932068
sS"519045121['suicide']"
p557
F-31.4274
sS"183500832['attack', (14, 5)]"
p558
I-10
sS"73400448['attack', (7, 2)]"
p559
I-20
sS"235929600['move', (1, 8)]"
p560
F4.383549846108916e+75
sS"1460666368['guard']"
p561
F4.346650515958491e+70
sS"149946373['move', (16, 4)]"
p562
I-10
sS"336592912['attack', (0, 10)]"
p563
I-10
sS"137363461['guard']"
p564
F-33.1
sS"40894496['move', (6, 1)]"
p565
I-20
sS"41943104['suicide']"
p566
F5.672769732289068e+66
sS"546308096['move', (9, 17)]"
p567
F-203.1889535374352
sS"45088768['attack', (11, 2)]"
p568
I-120
sS"75497476['attack', (7, 2)]"
p569
I-10
sS"41943044['guard']"
p570
F9.323683252146597e+69
sS"103809026['attack', (3, 4)]"
p571
I-40
sS"41943104['attack', (8, 2)]"
p572
I-10
sS"406847488['attack', (5, 12)]"
p573
I-20
sS"103809060['guard']"
p574
F-50.9138171
sS"286261264['move', (18, 8)]"
p575
I-20
sS"507510784['suicide']"
p576
F-1333.810646644063
sS"250609664['guard']"
p577
F5543775810.019432
sS"146800672['attack', (12, 3)]"
p578
I-10
sS"106954752['move', (7, 3)]"
p579
F3.17675069270183e+65
sS"580911114['move', (10, 18)]"
p580
I-10
sS"519045248['move', (16, 15)]"
p581
I-40
sS"75497472['attack', (8, 1)]"
p582
I-70
sS"514850880['attack', (10, 15)]"
p583
I-10
sS"143654912['attack', (9, 3)]"
p584
I-20
sS"42991680['move', (9, 0)]"
p585
I-10
sS"41943080['guard']"
p586
F-43.0
sS"75497600['attack', (8, 3)]"
p587
I-30
sS"579862657['guard']"
p588
F-186.11437635603335
sS"517996560['move', (15, 15)]"
p589
F-13.0
sS"175112192['attack', (6, 5)]"
p590
I-20
sS"337641472['suicide']"
p591
F-745.9540303729242
sS"319815696['move', (18, 9)]"
p592
I-20
sS"138412032['attack', (4, 5)]"
p593
I-70
sS"336592896['attack', (1, 11)]"
p594
I-40
sS"41943048['attack', (9, 1)]"
p595
I-20
sS"1623195648['guard']"
p596
F-61.051
sS"485490752['suicide']"
p597
I-50
sS"72351744['suicide']"
p598
F-55.0
sS"72351776['move', (5, 1)]"
p599
I-20
sS"184549376['guard']"
p600
F-33502.566900772945
sS"353370113['move', (17, 9)]"
p601
F9.15650432669628e+68
sS"406847488['suicide']"
p602
F9.335989229907746e+40
sS"183500800['move', (15, 4)]"
p603
F-667.3929313395582
sS"548405312['suicide']"
p604
I-50
sS"353370128['move', (17, 9)]"
p605
F-78.2505824851576
sS"519045136['attack', (16, 15)]"
p606
I-20
sS"235929600['attack', (2, 7)]"
p607
I-160
sS"517996576['suicide']"
p608
F-3675.990316366493
sS"1248854016['suicide']"
p609
I-50
sS"547356672['move', (9, 16)]"
p610
F2.6421806348824404e+81
sS"250609680['suicide']"
p611
F-536.0789968449762
sS"472907796['move', (2, 14)]"
p612
I-10
sS"543162496['attack', (7, 16)]"
p613
I-30
sS"508559360['move', (5, 16)]"
p614
I-1010
sS"353370256['move', (18, 10)]"
p615
I-20
sS"142606368['attack', (8, 5)]"
p616
I-10
sS"484442176['attack', (13, 14)]"
p617
I-10
sS"286261252['suicide']"
p618
F-34.641
sS"110100480['move', (9, 4)]"
p619
F188303515.94036418
sS"419430464['guard']"
p620
F-58.510000000000005
sS"448790528['attack', (13, 13)]"
p621
I-20
sS"170917952['attack', (4, 5)]"
p622
I-10
sS"108003457['suicide']"
p623
F-521.6650542436685
sS"103809026['guard']"
p624
F2.0427814405416097e+64
sS"579862538['move', (8, 17)]"
p625
I-10
sS"544211008['attack', (6, 16)]"
p626
I-10
sS"242221064['attack', (7, 6)]"
p627
I-10
sS"114294788['suicide']"
p628
F-31.1
sS"115343362['guard']"
p629
F-243.48704522000003
sS"44040200['move', (9, 1)]"
p630
F-43.207171
sS"203423760['attack', (3, 6)]"
p631
I-10
sS"305135616['attack', (2, 9)]"
p632
I-20
sS"1623195648['move', (12, 17)]"
p633
I-20
sS"76546176['attack', (8, 2)]"
p634
I-10
sS"549453826['move', (13, 16)]"
p635
F-52.84303940000001
sS"371195904['attack', (2, 12)]"
p636
I-20
sS"319815744['attack', (17, 10)]"
p637
I-20
sS"473956388['move', (4, 15)]"
p638
I-10
sS"80740352['attack', (14, 2)]"
p639
I-170
sS"286261260['suicide']"
p640
I-10
sS"44040352['suicide']"
p641
F2.4700562188333524e+31
sS"72351748['suicide']"
p642
I-30
sS"242221056['attack', (8, 7)]"
p643
I-10
sS"336592900['attack', (1, 9)]"
p644
I-40
sS"169869348['move', (3, 5)]"
p645
F-16.1051
sS"542113794['attack', (5, 17)]"
p646
I-20
sS"110100496['attack', (9, 4)]"
p647
I-10
sS"577765376['move', (6, 17)]"
p648
I-160
sS"103809028['move', (2, 3)]"
p649
I-10
sS"451936256['move', (15, 14)]"
p650
F6504982097.282311
sS"547356672['attack', (10, 17)]"
p651
I-20
sS"353370116['guard']"
p652
F7.191080425244892e+54
sS"450887680['attack', (14, 12)]"
p653
I-40
sS"175112192['move', (8, 5)]"
p654
F-9120.679001135773
sS"417333248['attack', (15, 12)]"
p655
I-30
sS"484442128['move', (14, 13)]"
p656
I-10
sS"447741952['attack', (10, 13)]"
p657
I-10
sS"371195904['attack', (2, 10)]"
p658
I-20
sS"235929664['move', (0, 7)]"
p659
I-10
sS"549453824['attack', (12, 15)]"
p660
I-150
sS"452984833['attack', (15, 13)]"
p661
I-10
sS"269484048['guard']"
p662
F2.1050147107889354e+70
sS"148897792['move', (13, 4)]"
p663
F2.3383511078717895e+41
sS"472907780['guard']"
p664
F-293.36894488136465
sS"286261380['suicide']"
p665
F-34.52
sS"517996544['suicide']"
p666
I-100
sS"319815696['move', (17, 8)]"
p667
F1.7363037202181625e+47
sS"451936288['attack', (15, 12)]"
p668
I-20
sS"252706816['attack', (17, 6)]"
p669
I-160
sS"76546064['suicide']"
p670
F-170.37967611843453
sS"76546112['suicide']"
p671
F938949.5822247072
sS"41943072['guard']"
p672
F-220.19688075706114
sS"137363520['attack', (3, 3)]"
p673
I-20
sS"180355072['suicide']"
p674
F-51.6
sS"181403648['guard']"
p675
F3900901.285269599
sS"184549384['guard']"
p676
F-48.2
sS"116391936['attack', (15, 4)]"
p677
I-70
sS"269484032['move', (1, 9)]"
p678
F-539.8189432558332
sS"205521024['move', (3, 6)]"
p679
I-10
sS"319815808['guard']"
p680
F15297329825511.965
sS"353370241['move', (17, 9)]"
p681
F-27.176000000000002
sS"203423760['move', (1, 6)]"
p682
I-10
sS"319815681['suicide']"
p683
F-93.40592947174332
sS"548405252['attack', (11, 15)]"
p684
I-20
sS"577765394['move', (6, 17)]"
p685
I-10
sS"546308160['attack', (9, 15)]"
p686
I-20
sS"510656512['guard']"
p687
F179768405.54806608
sS"451936288['attack', (16, 13)]"
p688
I-10
sS"74448928['attack', (7, 1)]"
p689
I-30
sS"506462209['move', (2, 15)]"
p690
I-20
sS"73400320['move', (6, 1)]"
p691
I-60
sS"452984960['suicide']"
p692
F-51.331
sS"286261376['guard']"
p693
I-10
sS"182452224['guard']"
p694
F-3183.7387745402752
sS"40894464['attack', (8, 1)]"
p695
I-130
sS"303038468['guard']"
p696
F2637367458753429.0
sS"1360003080['attack', (17, 7)]"
p697
I-10
sS"216006656['attack', (14, 5)]"
p698
I-50
sS"516948032['suicide']"
p699
I-50
sS"353370121['attack', (17, 11)]"
p700
I-30
sS"544210952['attack', (8, 16)]"
p701
I-10
sS"519045121['attack', (16, 15)]"
p702
I-40
sS"41943048['suicide']"
p703
I-30
sS"408944640['attack', (5, 12)]"
p704
I-10
sS"386924544['suicide']"
p705
F-72.129473931
sS"140509184['attack', (6, 3)]"
p706
I-20
sS"446693376['attack', (10, 14)]"
p707
I-20
sS"116391936['attack', (15, 2)]"
p708
I-80
sS"444596224['attack', (7, 13)]"
p709
I-10
sS"550502400['guard']"
p710
F-10252.807420790592
sS"41943040['move', (9, 1)]"
p711
F-93.90874366210002
sS"240123904['attack', (4, 7)]"
p712
I-10
sS"269484037['guard']"
p713
F-11.0
sS"419430401['guard']"
p714
F-123.4541239828958
sS"44040202['attack', (10, 0)]"
p715
I-30
sS"440401920['attack', (4, 12)]"
p716
I-30
sS"440402048['attack', (4, 12)]"
p717
I-10
sS"579862531['suicide']"
p718
F3.4780186285325135e+59
sS"218103872['guard']"
p719
F-31.8794077691
sS"170917896['suicide']"
p720
F7.528949883948604e+60
sS"169869312['attack', (2, 4)]"
p721
I-160
sS"506462208['attack', (3, 14)]"
p722
I-120
sS"214958080['attack', (14, 6)]"
p723
I-10
sS"352321568['attack', (16, 11)]"
p724
I-20
sS"73400448['guard']"
p725
F-72.94548228942878
sS"105906184['attack', (5, 2)]"
p726
I-10
sS"74448912['attack', (7, 1)]"
p727
I-20
sS"473956352['attack', (4, 13)]"
p728
I-80
sS"517996576['attack', (14, 16)]"
p729
I-40
sS"370147328['attack', (0, 11)]"
p730
I-50
sS"580911112['attack', (10, 16)]"
p731
I-20
sS"545259522['suicide']"
p732
F8.49712850934317e+48
sS"115343360['attack', (14, 2)]"
p733
I-110
sS"516947970['attack', (12, 15)]"
p734
I-10
sS"371195904['move', (3, 11)]"
p735
F-15.0
sS"44040352['attack', (10, 0)]"
p736
I-20
sS"79691776['attack', (12, 1)]"
p737
I-130
sS"103809026['move', (2, 3)]"
p738
I-40
sS"519045136['move', (15, 14)]"
p739
F-13.31
sS"41943136['move', (8, 0)]"
p740
I-20
sS"452984848['suicide']"
p741
F-57.983000000000004
sS"78643201['attack', (11, 3)]"
p742
I-30
sS"473956424['attack', (4, 15)]"
p743
I-10
sS"108003328['move', (7, 2)]"
p744
F-87.32672232000002
sS"545259522['move', (9, 16)]"
p745
I-20
sS"581959808['guard']"
p746
F4.8368157509125823e+70
sS"581959680['attack', (12, 17)]"
p747
I-150
sS"235929604['attack', (1, 6)]"
p748
I-20
sS"550502401['move', (13, 17)]"
p749
I-10
sS"44040202['guard']"
p750
F-68.62
sS"78643201['suicide']"
p751
F-52.42506247822007
sS"183500864['attack', (15, 6)]"
p752
I-20
sS"506462226['move', (2, 15)]"
p753
I-10
sS"286261248['guard']"
p754
F1159.8655962928271
sS"235929600['attack', (1, 6)]"
p755
I-160
sS"548405249['move', (11, 15)]"
p756
F-33.1
sS"103809060['attack', (3, 2)]"
p757
I-10
sS"319815681['move', (18, 9)]"
p758
I-30
sS"353370177['guard']"
p759
F-94.88100000000001
sS"184549376['attack', (15, 5)]"
p760
I-110
sS"404750354['guard']"
p761
I-10
sS"80740360['attack', (13, 1)]"
p762
I-40
sS"578813984['move', (9, 17)]"
p763
F-21.0
sS"41943046['guard']"
p764
F-11.0
sS"449839168['attack', (12, 13)]"
p765
I-10
sS"42991648['move', (9, 0)]"
p766
I-30
sS"44040194['guard']"
p767
F-414.1643156579909
sS"170917952['suicide']"
p768
F-66.4592152
sS"515899392['attack', (13, 15)]"
p769
I-20
sS"203423744['move', (1, 6)]"
p770
I-140
sS"507510784['move', (4, 16)]"
p771
I-160
sS"236978178['attack', (1, 7)]"
p772
I-10
sS"286261249['suicide']"
p773
F7.131541588152489e+62
sS"44040232['guard']"
p774
F2.7493545721696877e+34
sS"236978176['attack', (2, 8)]"
p775
I-40
sS"577765378['suicide']"
p776
I-30
sS"386924672['guard']"
p777
F98.45329898467999
sS"116392064['attack', (14, 3)]"
p778
I-10
sS"286261380['attack', (17, 7)]"
p779
I-10
sS"80740480['attack', (14, 2)]"
p780
I-30
sS"251658368['suicide']"
p781
F-53.0
sS"147849216['attack', (13, 3)]"
p782
I-50
sS"353370120['attack', (17, 11)]"
p783
I-20
sS"441450500['attack', (4, 13)]"
p784
I-20
sS"542113824['suicide']"
p785
F9.996545522740644e+65
sS"485490688['attack', (15, 15)]"
p786
I-90
sS"1325400074['attack', (16, 6)]"
p787
I-10
sS"550502400['attack', (13, 17)]"
p788
I-100
sS"41943050['suicide']"
p789
F2.396447476585137e+31
sS"507510912['guard']"
p790
F-43.1
sS"174063616['suicide']"
p791
F7.504884831578223e+17
sS"80740352['attack', (13, 1)]"
p792
I-180
sS"113246336['suicide']"
p793
F909494076.9557467
sS"385875984['suicide']"
p794
F-87.39435783071727
sS"149946368['attack', (15, 3)]"
p795
I-40
sS"439353352['suicide']"
p796
I-30
sS"269484036['guard']"
p797
F8.939500372691527e+63
sS"319815696['attack', (17, 10)]"
p798
I-20
sS"517996546['attack', (14, 16)]"
p799
I-30
sS"115343362['attack', (14, 4)]"
p800
I-40
sS"353370176['move', (17, 11)]"
p801
F-95.44572590151922
sS"438304768['attack', (2, 12)]"
p802
I-30
sS"507510792['attack', (5, 15)]"
p803
I-30
sS"169869316['suicide']"
p804
I-30
sS"304087040['attack', (2, 8)]"
p805
I-50
sS"353370112['attack', (17, 11)]"
p806
I-100
sS"507510913['guard']"
p807
I-10
sS"1182793744['attack', (8, 2)]"
p808
I-10
sS"472907777['attack', (2, 14)]"
p809
I-10
sS"336592900['move', (0, 10)]"
p810
I-40
sS"80740360['attack', (14, 2)]"
p811
I-30
sS"108003336['suicide']"
p812
F-36.771051
sS"114294788['attack', (13, 2)]"
p813
I-10
sS"104857608['guard']"
p814
F2.3392450506187855e+63
sS"216006656['attack', (14, 7)]"
p815
I-50
sS"353370116['attack', (17, 9)]"
p816
I-60
sS"145752065['attack', (12, 4)]"
p817
I-10
sS"108003332['move', (7, 2)]"
p818
F42972.23457297319
sS"236978176['attack', (1, 7)]"
p819
I-30
sS"472907840['move', (3, 15)]"
p820
F-90.4567123801551
sS"112197664['attack', (11, 4)]"
p821
I-20
sS"543162369['guard']"
p822
F1093492.530992012
sS"508559360['attack', (5, 14)]"
p823
I-110
sS"76546048['attack', (9, 1)]"
p824
I-60
sS"507510786['attack', (4, 16)]"
p825
I-20
sS"516948000['attack', (13, 16)]"
p826
I-20
sS"72351744['attack', (6, 2)]"
p827
I-60
sS"41943072['attack', (8, 2)]"
p828
I-40
sS"1393557504['attack', (17, 8)]"
p829
I-10
sS"138412032['attack', (3, 4)]"
p830
I-60
sS"545259522['attack', (8, 17)]"
p831
I-20
sS"76546056['move', (9, 1)]"
p832
F957528.0879733397
sS"149946368['attack', (14, 4)]"
p833
I-30
sS"269484032['attack', (1, 7)]"
p834
I-110
sS"317718528['attack', (15, 8)]"
p835
I-20
sS"116392008['suicide']"
p836
F-352.2017123439988
sS"416284672['attack', (13, 13)]"
p837
I-20
sS"79691778['attack', (12, 1)]"
p838
I-10
sS"45088768['suicide']"
p839
F-123.279354911
sS"1360003080['guard']"
p840
F-13.0
sS"510656512['suicide']"
p841
I-50
sS"114294912['attack', (12, 3)]"
p842
I-10
sS"370147328['suicide']"
p843
F2.6787749629749907e+73
sS"577765376['attack', (8, 17)]"
p844
I-160
sS"303038464['attack', (1, 8)]"
p845
I-180
sS"484442144['suicide']"
p846
F-53.0
sS"336592896['guard']"
p847
F2.9835696568310486e+73
sS"42991776['move', (9, 0)]"
p848
I-10
sS"45088896['attack', (12, 1)]"
p849
I-30
sS"149946368['move', (15, 3)]"
p850
F-32.79201
sS"73400384['attack', (5, 2)]"
p851
I-10
sS"80740356['suicide']"
p852
F-31.6
sS"41943044['move', (8, 0)]"
p853
I-10
sS"519045136['move', (15, 16)]"
p854
I-10
sS"581959696['guard']"
p855
F-21.0
sS"577765376['guard']"
p856
F1.4708250697193908e+71
sS"80740480['guard']"
p857
F4.991880356849416e+67
sS"170917888['attack', (3, 4)]"
p858
I-100
sS"41943040['move', (8, 0)]"
p859
I-100
sS"548405248['suicide']"
p860
F2.5325910175114383e+20
sS"147849216['attack', (14, 4)]"
p861
I-50
sS"507510912['attack', (4, 16)]"
p862
I-10
sS"1360003080['suicide']"
p863
F-33.96592152
sS"103809088['attack', (3, 2)]"
p864
I-30
sS"371195968['suicide']"
p865
F-53.0
sS"41943046['attack', (8, 0)]"
p866
I-10
sS"578813952['attack', (8, 16)]"
p867
I-110
sS"512753664['attack', (10, 15)]"
p868
I-30
sS"142606336['attack', (8, 5)]"
p869
I-20
sS"543162369['attack', (6, 17)]"
p870
I-10
sS"579862656['move', (9, 18)]"
p871
I-60
sS"319815809['guard']"
p872
I-10
sS"252706816['attack', (16, 7)]"
p873
I-170
sS"303038480['attack', (0, 9)]"
p874
I-20
sS"438304800['attack', (2, 14)]"
p875
I-20
sS"41943044['move', (8, 2)]"
p876
F-11.11
sS"510656512['attack', (7, 16)]"
p877
I-30
sS"507510912['move', (3, 15)]"
p878
F-23.310000000000002
sS"236978184['suicide']"
p879
F-33.0
sS"80740484['guard']"
p880
F-7968.564552711779
sS"370147328['attack', (2, 11)]"
p881
I-60
sS"105906176['move', (5, 2)]"
p882
F3.3363073416788574e+68
sS"44040352['guard']"
p883
F-63.980768881
sS"580911136['attack', (9, 17)]"
p884
I-40
sS"169869316['move', (2, 4)]"
p885
I-40
sS"404750400['attack', (1, 12)]"
p886
I-10
sS"137363520['guard']"
p887
F2.2138418842044324e+55
sS"303038480['attack', (1, 10)]"
p888
I-20
sS"485490688['guard']"
p889
F-3388.8847628222793
sS"41943042['attack', (8, 2)]"
p890
I-40
sS"545259520['attack', (8, 17)]"
p891
I-70
sS"479199232['suicide']"
p892
F1547173.1823002745
sS"282066944['suicide']"
p893
F177.77664372256578
sS"353370112['guard']"
p894
F-2771.264908242397
sS"184549440['attack', (16, 4)]"
p895
I-10
sS"252706816['suicide']"
p896
F-164.5419747158977
sS"370147344['attack', (2, 11)]"
p897
I-10
sS"1114636288['attack', (7, 2)]"
p898
I-20
sS"169869344['move', (2, 6)]"
p899
F14175180366968.434
sS"106954752['attack', (6, 2)]"
p900
I-40
sS"451936288['suicide']"
p901
F-53.959485847
sS"543162368['attack', (5, 16)]"
p902
I-30
sS"45088772['guard']"
p903
F-153.60718737881552
sS"149946376['guard']"
p904
F3.353331424466469e+16
sS"581959688['move', (11, 18)]"
p905
I-20
sS"473956352['attack', (4, 15)]"
p906
I-70
sS"105906178['suicide']"
p907
F44.25329898467999
sS"549453952['guard']"
p908
F2.268608722743412e+72
sS"169869314['guard']"
p909
F-6556.017852409796
sS"517996546['guard']"
p910
F-128.22482
sS"40894496['guard']"
p911
F3.640162248197994e+65
sS"275775488['attack', (7, 9)]"
p912
I-10
sS"581959688['attack', (11, 18)]"
p913
I-30
sS"544210952['suicide']"
p914
F-321.74766300675265
sS"42991808['attack', (9, 0)]"
p915
I-10
sS"506462224['move', (3, 16)]"
p916
I-30
sS"269484033['attack', (0, 8)]"
p917
I-30
sS"579862536['attack', (9, 16)]"
p918
I-30
sS"110100480['attack', (8, 3)]"
p919
I-20
sS"106954752['attack', (6, 4)]"
p920
I-40
sS"238026768['attack', (2, 7)]"
p921
I-10
sS"386924544['attack', (17, 10)]"
p922
I-60
sS"137363488['move', (2, 4)]"
p923
I-10
sS"353370120['guard']"
p924
F-68.26826588031
sS"236978176['move', (2, 6)]"
p925
F-935.9256892285321
sS"45088776['guard']"
p926
F3.1562023191447354e+51
sS"144703488['suicide']"
p927
I-50
sS"44040192['move', (10, 0)]"
p928
I-120
sS"542113808['guard']"
p929
F-164.11320218433886
sS"578814082['suicide']"
p930
F1.824749814755412e+29
sS"104857664['guard']"
p931
F-43.4726770611
sS"581959696['move', (11, 18)]"
p932
I-10
sS"116391944['move', (15, 2)]"
p933
I-30
sS"484442116['move', (14, 15)]"
p934
I-20
sS"577765377['guard']"
p935
F1.563589283720115e+19
sS"336592900['move', (1, 11)]"
p936
F-47.225671
sS"319815684['move', (17, 10)]"
p937
I-20
sS"110100480['attack', (9, 4)]"
p938
I-30
sS"578813954['attack', (8, 18)]"
p939
I-20
sS"40894528['suicide']"
p940
I-50
sS"353370116['attack', (18, 10)]"
p941
I-60
sS"109051904['move', (8, 2)]"
p942
F1.9777270739892244e+61
sS"204472320['move', (3, 5)]"
p943
F-18.5473527603351
sS"516947972['suicide']"
p944
I-30
sS"286261328['suicide']"
p945
F6.63216166057423e+48
sS"440401952['attack', (4, 12)]"
p946
I-10
sS"484442144['attack', (14, 13)]"
p947
I-20
sS"579862568['guard']"
p948
F-60.96201428263008
sS"104857602['attack', (4, 2)]"
p949
I-10
sS"577765392['attack', (8, 17)]"
p950
I-20
sS"286261248['move', (18, 8)]"
p951
I-70
sS"108003456['move', (6, 3)]"
p952
I-10
sS"144703488['move', (9, 4)]"
p953
F-1011.0
sS"76546048['move', (8, 2)]"
p954
F-69.5500649201
sS"40894496['attack', (6, 1)]"
p955
I-10
sS"45088776['attack', (12, 1)]"
p956
I-10
sS"184549376['attack', (16, 4)]"
p957
I-110
sS"147849216['attack', (13, 5)]"
p958
I-50
sS"481296384['attack', (11, 13)]"
p959
I-10
sS"315621376['attack', (13, 10)]"
p960
I-20
sS"252706820['guard']"
p961
F5.756163791610135e+73
sS"475004936['attack', (5, 13)]"
p962
I-10
sS"448790528['attack', (12, 14)]"
p963
I-20
sS"41943042['suicide']"
p964
F2.6255712715702118e+53
sS"441450560['move', (5, 14)]"
p965
I-10
sS"184549388['guard']"
p966
F-21.0
sS"507510800['attack', (4, 16)]"
p967
I-20
sS"104857600['suicide']"
p968
F2.499107632420748e+70
sS"286261249['attack', (17, 9)]"
p969
I-20
sS"419430464['attack', (15, 12)]"
p970
I-10
sS"115343360['suicide']"
p971
F-102.1
sS"506462208['attack', (4, 15)]"
p972
I-120
sS"149946368['attack', (15, 5)]"
p973
I-40
sS"44040224['guard']"
p974
F-93.25970748607163
sS"578813954['move', (8, 18)]"
p975
I-20
sS"452984848['attack', (16, 12)]"
p976
I-20
sS"483393536['attack', (14, 14)]"
p977
I-50
sS"578813953['guard']"
p978
F-67.29822890605146
sS"42991744['attack', (8, 1)]"
p979
I-10
sS"517996576['guard']"
p980
F5.3383530498886275e+66
sS"580911136['attack', (11, 17)]"
p981
I-40
sS"415236096['suicide']"
p982
F-1041.080533495873
sS"114294784['move', (14, 3)]"
p983
F-189.9393270685805
sS"483393536['attack', (13, 15)]"
p984
I-40
sS"472907776['suicide']"
p985
F-460.9101397837039
sS"218103872['attack', (16, 7)]"
p986
I-10
sS"581959808['move', (11, 18)]"
p987
I-10
sS"519045248['attack', (14, 15)]"
p988
I-40
sS"184549384['attack', (16, 6)]"
p989
I-10
sS"251658369['attack', (16, 8)]"
p990
I-10
sS"184549376['attack', (17, 5)]"
p991
I-110
sS"579862529['attack', (9, 18)]"
p992
I-10
sS"517996544['guard']"
p993
F3.241423742774588e+71
sS"485490696['attack', (15, 13)]"
p994
I-10
sS"104857604['guard']"
p995
F-43.09875
sS"438304768['guard']"
p996
F-278.172904021
sS"1592786953['guard']"
p997
F1.5882456730351975e+57
sS"439353344['guard']"
p998
F1.5923586460743502e+48
sS"116391940['move', (16, 3)]"
p999
I-20
sS"111149060['attack', (10, 2)]"
p1000
I-10
sS"112197760['attack', (12, 3)]"
p1001
I-10
sS"577765377['attack', (6, 17)]"
p1002
I-30
sS"581959688['guard']"
p1003
F1.1408628469744827e+71
sS"516947968['move', (13, 14)]"
p1004
F-54.44457156876046
sS"80740352['suicide']"
p1005
F-244.96235644394335
sS"114294784['attack', (12, 3)]"
p1006
I-70
sS"519045121['move', (16, 15)]"
p1007
I-30
sS"74449024['attack', (8, 2)]"
p1008
I-10
sS"484442112['move', (15, 14)]"
p1009
F-124.324761589225
sS"472907781['suicide']"
p1010
F-11.2
sS"138412036['attack', (5, 4)]"
p1011
I-10
sS"580911232['guard']"
p1012
F1.2479565552423494e+67
sS"112197632['attack', (12, 3)]"
p1013
I-20
sS"449839104['attack', (13, 14)]"
p1014
I-10
sS"371195908['attack', (1, 11)]"
p1015
I-10
sS"440401928['move', (3, 13)]"
p1016
F-23.0
sS"141557760['attack', (8, 4)]"
p1017
I-60
sS"515899392['move', (11, 15)]"
p1018
I-10
sS"173015040['attack', (5, 4)]"
p1019
I-20
sS"319815680['attack', (16, 9)]"
p1020
I-40
sS"1114636288['suicide']"
p1021
F188772.17471266608
sS"73400392['guard']"
p1022
I-10
sS"41943048['move', (8, 0)]"
p1023
I-20
sS"548405248['attack', (10, 16)]"
p1024
I-50
sS"112197633['move', (11, 2)]"
p1025
I-10
sS"445644800['attack', (10, 13)]"
p1026
I-50
sS"103809024['move', (2, 3)]"
p1027
I-60
sS"578813968['guard']"
p1028
F3994111197398117.5
sS"546308104['attack', (9, 15)]"
p1029
I-10
sS"149946368['guard']"
p1030
F-339.618269234056
sS"579862674['attack', (8, 17)]"
p1031
I-10
sS"239075456['suicide']"
p1032
F-55.57863250885403
sS"439353352['move', (3, 14)]"
p1033
F1.3923256327652774e+42
sS"438304800['attack', (3, 13)]"
p1034
I-10
sS"75497504['attack', (8, 1)]"
p1035
I-20
sS"579862552['attack', (9, 16)]"
p1036
I-10
sS"42991648['attack', (9, 0)]"
p1037
I-20
sS"269484096['attack', (1, 7)]"
p1038
I-30
sS"235929602['guard']"
p1039
I-10
sS"438304784['attack', (3, 13)]"
p1040
I-20
sS"548405252['move', (11, 17)]"
p1041
I-20
sS"285212672['attack', (15, 8)]"
p1042
I-30
sS"353370176['attack', (17, 11)]"
p1043
I-10
sS"352321536['move', (17, 10)]"
p1044
F-162.91091939907793
sS"336592960['attack', (2, 10)]"
p1045
I-30
sS"173015040['attack', (4, 5)]"
p1046
I-20
sS"73400322['attack', (6, 1)]"
p1047
I-10
sS"519045120['move', (14, 15)]"
p1048
F-106.70153080588518
sS"481296384['suicide']"
p1049
F64416834400742.32
sS"72351776['guard']"
p1050
F1.3440135649374246e+67
sS"252706880['move', (18, 7)]"
p1051
I-20
sS"203423745['attack', (3, 6)]"
p1052
I-40
sS"137363457['move', (3, 3)]"
p1053
F-99.61157613215511
sS"235929664['attack', (1, 6)]"
p1054
I-10
sS"385875968['attack', (16, 12)]"
p1055
I-40
sS"353370116['move', (17, 11)]"
p1056
F-56.99522457941374
sS"418381826['attack', (14, 12)]"
p1057
I-10
sS"41943042['move', (9, 1)]"
p1058
F-35.641000000000005
sS"319815744['attack', (18, 9)]"
p1059
I-20
sS"236978176['suicide']"
p1060
F-73.4726770611
sS"76546064['attack', (9, 1)]"
p1061
I-20
sS"75497504['attack', (8, 3)]"
p1062
I-20
sS"113246208['suicide']"
p1063
I-50
sS"73400332['guard']"
p1064
F88.66126125498994
sS"319815684['attack', (17, 8)]"
p1065
I-20
sS"137363472['attack', (2, 4)]"
p1066
I-40
sS"473956356['attack', (3, 14)]"
p1067
I-10
sS"509607940['attack', (5, 15)]"
p1068
I-10
sS"73400352['guard']"
p1069
I-10
sS"44040232['move', (9, 1)]"
p1070
F-35.31
sS"545259520['attack', (8, 15)]"
p1071
I-80
sS"580911104['suicide']"
p1072
F2.5854431694857016e+69
sS"141557776['move', (7, 3)]"
p1073
I-10
sS"451936288['attack', (15, 14)]"
p1074
I-20
sS"404750338['move', (1, 12)]"
p1075
I-10
sS"218103808['move', (17, 6)]"
p1076
I-100
sS"319815745['move', (18, 9)]"
p1077
I-20
sS"514850816['attack', (12, 15)]"
p1078
I-20
sS"371195904['attack', (1, 11)]"
p1079
I-10
sS"137363460['guard']"
p1080
I-10
sS"371195904['suicide']"
p1081
I-50
sS"42991618['move', (10, 1)]"
p1082
F-32.186658907525654
sS"40894560['attack', (6, 1)]"
p1083
I-10
sS"477102084['attack', (7, 13)]"
p1084
I-10
sS"169869378['guard']"
p1085
F-46.410000000000004
sS"550502401['attack', (13, 17)]"
p1086
I-20
sS"507510785['move', (4, 16)]"
p1087
I-10
sS"581959808['attack', (11, 16)]"
p1088
I-20
sS"112197632['suicide']"
p1089
I-50
sS"543162370['guard']"
p1090
F7.607743416911235e+17
sS"217055232['attack', (15, 5)]"
p1091
I-20
sS"184549376['move', (16, 6)]"
p1092
F-222.68851073130978
sS"307232768['attack', (4, 9)]"
p1093
I-10
sS"484442240['attack', (15, 14)]"
p1094
I-10
sS"235929664['suicide']"
p1095
F9.852544564741297e+65
sS"452984832['attack', (15, 13)]"
p1096
I-260
sS"269484096['suicide']"
p1097
I-50
sS"286261256['attack', (17, 7)]"
p1098
I-20
sS"546308096['attack', (10, 16)]"
p1099
I-40
sS"517996546['move', (14, 16)]"
p1100
I-30
sS"547356676['attack', (11, 16)]"
p1101
I-10
sS"45088960['guard']"
p1102
I-10
sS"1182793728['attack', (8, 2)]"
p1103
I-20
sS"45088776['move', (11, 0)]"
p1104
I-30
sS"239075328['attack', (4, 8)]"
p1105
I-30
sS"438304768['suicide']"
p1106
F-334.57947691000004
sS"353370176['attack', (18, 10)]"
p1107
I-40
sS"579862528['move', (10, 17)]"
p1108
F-1016.83237
sS"235929600['attack', (0, 7)]"
p1109
I-160
sS"336592898['attack', (1, 9)]"
p1110
I-10
sS"578813952['attack', (7, 17)]"
p1111
I-110
sS"319815681['attack', (16, 9)]"
p1112
I-20
sS"319815744['attack', (16, 9)]"
p1113
I-30
sS"75497600['attack', (7, 2)]"
p1114
I-30
sS"41943174['attack', (8, 0)]"
p1115
I-10
sS"143654928['suicide']"
p1116
F-51.1
sS"543162384['attack', (7, 16)]"
p1117
I-10
sS"438304768['move', (2, 14)]"
p1118
I-30
sS"205520896['suicide']"
p1119
F-68.60767691000001
sS"472907776['move', (2, 14)]"
p1120
I-140
sS"182452224['attack', (13, 5)]"
p1121
I-70
sS"112197648['suicide']"
p1122
F-51.2662
sS"182452224['suicide']"
p1123
F-103.6
sS"547356680['attack', (10, 15)]"
p1124
I-10
sS"404750402['guard']"
p1125
F-33.1
sS"352321536['suicide']"
p1126
F-102.5
sS"137363456['attack', (3, 3)]"
p1127
I-30
sS"451936257['suicide']"
p1128
I-30
sS"235929602['move', (2, 7)]"
p1129
I-10
sS"41943200['guard']"
p1130
I-10
sS"511705088['suicide']"
p1131
I-50
sS"517996544['attack', (13, 15)]"
p1132
I-110
sS"405798976['attack', (4, 12)]"
p1133
I-10
sS"452984976['guard']"
p1134
F-73.03
sS"269484052['attack', (2, 8)]"
p1135
I-10
sS"418381824['attack', (15, 13)]"
p1136
I-50
sS"549453840['attack', (13, 16)]"
p1137
I-10
sS"1149239297['suicide']"
p1138
F1.1606127769752577e+60
sS"419430400['attack', (16, 13)]"
p1139
I-210
sS"1258291200['guard']"
p1140
F1.139025841154685e+71
sS"115343360['move', (14, 4)]"
p1141
F-1056.2637294386664
sS"75497472['move', (9, 2)]"
p1142
F-21.490083682000005
sS"370147328['attack', (1, 10)]"
p1143
I-60
sS"507510912['attack', (5, 15)]"
p1144
I-10
sS"336592960['move', (0, 10)]"
p1145
I-20
sS"111149056['suicide']"
p1146
F-1861.7200628087592
sS"472907780['suicide']"
p1147
F7.438183703748817e+62
sS"236978176['attack', (3, 7)]"
p1148
I-40
sS"519045136['move', (16, 15)]"
p1149
I-10
sS"519045128['move', (16, 15)]"
p1150
I-20
sS"138412032['move', (3, 4)]"
p1151
F-125.95447028499294
sS"548405252['attack', (12, 16)]"
p1152
I-10
sS"149946373['attack', (16, 4)]"
p1153
I-10
sS"1376780288['suicide']"
p1154
I-50
sS"42991744['attack', (9, 2)]"
p1155
I-10
sS"203423776['attack', (1, 6)]"
p1156
I-20
sS"252706880['attack', (17, 8)]"
p1157
I-20
sS"113246209['suicide']"
p1158
I-30
sS"218103808['attack', (15, 6)]"
p1159
I-100
sS"74448904['suicide']"
p1160
F-32.1
sS"218103824['attack', (16, 7)]"
p1161
I-20
sS"116391936['suicide']"
p1162
F-101.331
sS"506462208['attack', (3, 16)]"
p1163
I-120
sS"169869312['guard']"
p1164
F-187841.98317138886
sS"44040200['guard']"
p1165
F1.2927300460700079e+53
sS"1182793744['guard']"
p1166
F1.0779332140773846e+62
sS"352321538['attack', (16, 11)]"
p1167
I-10
sS"42991624['move', (9, 0)]"
p1168
I-10
sS"204472320['attack', (3, 5)]"
p1169
I-20
sS"336592897['attack', (1, 11)]"
p1170
I-20
sS"170917889['suicide']"
p1171
F2.8916177247951535e+21
sS"473956480['attack', (4, 15)]"
p1172
I-10
sS"251658242['move', (17, 7)]"
p1173
I-10
sS"472907840['guard']"
p1174
F-1045.1115143009943
sS"108003360['attack', (7, 4)]"
p1175
I-10
sS"103809056['attack', (3, 4)]"
p1176
I-10
sS"170917920['move', (2, 5)]"
p1177
I-10
sS"512753664['suicide']"
p1178
F-53.6461994476721
sS"73400328['guard']"
p1179
F-57.3
sS"104857728['move', (4, 2)]"
p1180
I-20
sS"148897792['suicide']"
p1181
F-51.1
sS"236978184['attack', (2, 6)]"
p1182
I-20
sS"550502408['suicide']"
p1183
I-30
sS"149946369['move', (16, 4)]"
p1184
I-90
sS"303038468['move', (1, 10)]"
p1185
F-98.91882413395582
sS"452984848['guard']"
p1186
F1.3842669683409539e+68
sS"581959680['attack', (10, 17)]"
p1187
I-140
sS"138412032['attack', (5, 4)]"
p1188
I-10
sS"80740480['move', (13, 1)]"
p1189
I-40
sS"169869376['suicide']"
p1190
F6.34739407553172e+73
sS"319815745['guard']"
p1191
F-53.1
sS"286261264['attack', (16, 8)]"
p1192
I-20
sS"485490692['attack', (15, 13)]"
p1193
I-10
sS"238026784['attack', (4, 7)]"
p1194
I-10
sS"579862576['guard']"
p1195
I-10
sS"251658240['attack', (16, 8)]"
p1196
I-70
sS"106954752['attack', (5, 3)]"
p1197
I-40
sS"338690048['attack', (2, 10)]"
p1198
I-20
sS"485490752['move', (16, 14)]"
p1199
I-40
sS"419430401['move', (17, 12)]"
p1200
I-10
sS"169869312['attack', (2, 6)]"
p1201
I-160
sS"44040352['move', (10, 0)]"
p1202
I-30
sS"577765424['guard']"
p1203
I-10
sS"404750337['move', (2, 13)]"
p1204
F676379021382.124
sS"42991648['attack', (9, 2)]"
p1205
I-20
sS"184549384['move', (15, 5)]"
p1206
F-11.0
sS"336592960['attack', (1, 9)]"
p1207
I-10
sS"579862544['suicide']"
p1208
F2.3051936386681292e+70
sS"203423744['attack', (2, 5)]"
p1209
I-140
sS"183500864['attack', (14, 5)]"
p1210
I-10
sS"79691808['guard']"
p1211
F-600.875127106368
sS"550502408['attack', (13, 15)]"
p1212
I-20
sS"517996544['attack', (14, 14)]"
p1213
I-110
sS"479199232['attack', (9, 13)]"
p1214
I-50
sS"484442144['attack', (15, 14)]"
p1215
I-10
sS"286261264['guard']"
p1216
F-63.1
sS"485490688['attack', (15, 13)]"
p1217
I-90
sS"238026752['suicide']"
p1218
I-50
sS"144703488['attack', (11, 4)]"
p1219
I-20
sS"143655040['attack', (9, 3)]"
p1220
I-10
sS"338690048['suicide']"
p1221
F-57.1051
sS"204472321['attack', (3, 7)]"
p1222
I-10
sS"577765376['attack', (7, 16)]"
p1223
I-160
sS"181403648['attack', (14, 5)]"
p1224
I-20
sS"319815685['guard']"
p1225
F1.4281312161871738e+60
sS"438304816['move', (1, 13)]"
p1226
I-10
sS"40894468['move', (7, 0)]"
p1227
I-10
sS"42991618['attack', (9, 0)]"
p1228
I-40
sS"42991620['attack', (9, 0)]"
p1229
I-10
sS"75497600['move', (7, 2)]"
p1230
I-30
sS"182452224['attack', (14, 4)]"
p1231
I-60
sS"543162370['attack', (5, 16)]"
p1232
I-10
sS"112197664['attack', (12, 3)]"
p1233
I-10
sS"304087040['attack', (1, 9)]"
p1234
I-50
sS"319815692['attack', (17, 8)]"
p1235
I-10
sS"251658248['attack', (16, 8)]"
p1236
I-10
sS"438304816['guard']"
p1237
F3.8394595733245883e+34
sS"543162368['attack', (6, 17)]"
p1238
I-40
sS"73400450['guard']"
p1239
F-13.0
sS"149946368['move', (15, 5)]"
p1240
F1.1744203794356765e+72
sS"544211040['attack', (6, 16)]"
p1241
I-10
sS"353370177['move', (17, 11)]"
p1242
F-158.7279692705599
sS"149946376['move', (16, 4)]"
p1243
I-20
sS"438304768['attack', (1, 13)]"
p1244
I-30
sS"113246208['attack', (11, 3)]"
p1245
I-10
sS"149946372['suicide']"
p1246
F7.422750134378951
sS"418381824['attack', (15, 11)]"
p1247
I-50
sS"286261248['attack', (18, 8)]"
p1248
I-70
sS"44040256['guard']"
p1249
F-32.0
sS"303038465['guard']"
p1250
F7.146602437448466e+65
sS"579862544['move', (8, 17)]"
p1251
F-22.930710000000005
sS"444596224['attack', (8, 12)]"
p1252
I-20
sS"370147328['move', (0, 11)]"
p1253
I-60
sS"336592928['move', (0, 10)]"
p1254
I-10
sS"545259552['guard']"
p1255
F980.178
sS"516947968['attack', (13, 16)]"
p1256
I-20
sS"77594624['suicide']"
p1257
F-109.911075662357
sS"353370124['attack', (18, 10)]"
p1258
I-10
sS"578813954['suicide']"
p1259
I-30
sS"450887744['attack', (14, 12)]"
p1260
I-10
sS"108003336['attack', (8, 3)]"
p1261
I-10
sS"108003456['attack', (7, 2)]"
p1262
I-20
sS"138412160['suicide']"
p1263
I-50
sS"482344960['guard']"
p1264
F-2933.1100466319895
sS"579862656['attack', (8, 17)]"
p1265
I-60
sS"548405248['attack', (11, 15)]"
p1266
I-50
sS"385875969['attack', (16, 12)]"
p1267
I-10
sS"315621376['attack', (12, 9)]"
p1268
I-20
sS"448790528['attack', (11, 13)]"
p1269
I-20
sS"419430400['guard']"
p1270
F8.660132194230003e+70
sS"104857604['move', (4, 2)]"
p1271
I-10
sS"544211008['move', (7, 17)]"
p1272
I-20
sS"116391940['guard']"
p1273
F4.102646909660097e+71
sS"478150656['attack', (9, 14)]"
p1274
I-30
sS"78643200['move', (11, 1)]"
p1275
F-80.68417915990308
sS"549453824['attack', (13, 16)]"
p1276
I-140
sS"79691808['attack', (12, 3)]"
p1277
I-30
sS"581959808['attack', (10, 17)]"
p1278
I-10
sS"304087104['attack', (2, 8)]"
p1279
I-10
sS"1393557568['attack', (16, 9)]"
p1280
I-10
sS"104857600['attack', (3, 3)]"
p1281
I-110
sS"41943040['suicide']"
p1282
F-120.28241953
sS"578813952['attack', (8, 18)]"
p1283
I-120
sS"472907808['suicide']"
p1284
I-50
sS"286261312['guard']"
p1285
F-278.38537588521416
sS"41943170['attack', (8, 0)]"
p1286
I-20
sS"318767168['attack', (17, 9)]"
p1287
I-10
sS"317718532['move', (15, 10)]"
p1288
F-13.0
sS"549453825['guard']"
p1289
F3.4314653735024734e+58
sS"385876032['attack', (16, 10)]"
p1290
I-10
sS"577765377['move', (6, 17)]"
p1291
I-20
sS"41943106['suicide']"
p1292
F9.524104933212547e+31
sS"548405249['attack', (11, 17)]"
p1293
I-10
sS"418381824['suicide']"
p1294
F5.953237817263515e+55
sS"148897792['move', (14, 3)]"
p1295
F-39.16985852489838
sS"542113824['guard']"
p1296
F-406.70290397258077
sS"72351776['attack', (5, 3)]"
p1297
I-20
sS"549453824['move', (13, 16)]"
p1298
F-1038.802387203096
sS"579862657['attack', (10, 17)]"
p1299
I-10
sS"44040224['attack', (10, 0)]"
p1300
I-20
sS"577765378['move', (8, 17)]"
p1301
F-51.75092806801342
sS"581959680['attack', (11, 18)]"
p1302
I-140
sS"370147328['move', (1, 12)]"
p1303
I-60
sS"137363456['suicide']"
p1304
I-50
sS"415236096['attack', (12, 11)]"
p1305
I-10
sS"40894496['attack', (8, 1)]"
p1306
I-20
sS"252706820['attack', (18, 7)]"
p1307
I-30
sS"319815692['guard']"
p1308
F8.906202411471303e+30
sS"476053504['attack', (5, 14)]"
p1309
I-10
sS"472907840['attack', (2, 14)]"
p1310
I-60
sS"113246208['guard']"
p1311
F364803404857279.6
sS"485490692['move', (15, 15)]"
p1312
I-20
sS"114294784['attack', (13, 2)]"
p1313
I-70
sS"447741952['attack', (11, 12)]"
p1314
I-10
sS"507510784['move', (3, 15)]"
p1315
F-350.3152045784008
sS"149946432['attack', (14, 4)]"
p1316
I-10
sS"77594624['attack', (10, 1)]"
p1317
I-80
sS"404750400['move', (2, 13)]"
p1318
F1.068660290760141e+56
sS"515899396['suicide']"
p1319
F5.315156677794342e+60
sS"169869348['move', (2, 4)]"
p1320
I-20
sS"252706816['attack', (18, 7)]"
p1321
I-160
sS"519045248['guard']"
p1322
F2.9277433577205444e+61
sS"284164096['attack', (15, 9)]"
p1323
I-50
sS"42991618['move', (9, 0)]"
p1324
I-30
sS"404750336['attack', (1, 12)]"
p1325
I-10
sS"251658240['move', (16, 8)]"
p1326
F-1020.0
sS"452984832['attack', (17, 13)]"
p1327
I-260
sS"183500802['attack', (15, 6)]"
p1328
I-10
sS"286261376['attack', (16, 8)]"
p1329
I-10
sS"386924544['move', (18, 11)]"
p1330
I-50
sS"103809088['attack', (2, 3)]"
p1331
I-20
sS"213909506['attack', (12, 7)]"
p1332
I-10
sS"41943042['move', (8, 0)]"
p1333
I-40
sS"235929600['suicide']"
p1334
F-1051.112300584796
sS"76546177['attack', (8, 2)]"
p1335
I-10
sS"40894468['move', (7, 2)]"
p1336
I-10
sS"76546056['attack', (9, 1)]"
p1337
I-20
sS"177209344['attack', (9, 6)]"
p1338
I-20
sS"75497474['attack', (8, 1)]"
p1339
I-20
sS"549453832['move', (11, 16)]"
p1340
F-12.0
sS"42991616['guard']"
p1341
F4.2342816887454176e+74
sS"318767106['suicide']"
p1342
F37412875.51543691
sS"548405248['attack', (12, 16)]"
p1343
I-50
sS"511705088['attack', (8, 16)]"
p1344
I-50
sS"217055232['suicide']"
p1345
F-52.51400611
sS"251658240['attack', (15, 7)]"
p1346
I-70
sS"579862657['attack', (8, 17)]"
p1347
I-10
sS"548405249['attack', (10, 16)]"
p1348
I-20
sS"337641600['suicide']"
p1349
I-50
sS"40894528['attack', (6, 1)]"
p1350
I-20
sS"507510913['move', (4, 16)]"
p1351
I-10
sS"175112192['attack', (7, 6)]"
p1352
I-20
sS"475004928['attack', (5, 15)]"
p1353
I-50
sS"438304784['guard']"
p1354
F6.231957643449835e+57
sS"472907840['attack', (4, 14)]"
p1355
I-60
sS"578814080['suicide']"
p1356
I-50
sS"417333248['attack', (14, 13)]"
p1357
I-30
sS"404750340['move', (1, 12)]"
p1358
I-20
sS"578813952['guard']"
p1359
F-5983.382584908413
sS"440401922['attack', (3, 13)]"
p1360
I-10
sS"353370177['attack', (16, 10)]"
p1361
I-30
sS"419430408['guard']"
p1362
I-20
sS"404750401['move', (1, 12)]"
p1363
I-10
sS"452984976['attack', (16, 12)]"
p1364
I-10
sS"217055296['attack', (15, 5)]"
p1365
I-20
sS"443547648['guard']"
p1366
F-14.52
sS"78643208['move', (11, 1)]"
p1367
I-10
sS"579862656['attack', (9, 18)]"
p1368
I-60
sS"105906208['move', (4, 3)]"
p1369
I-10
sS"579862576['move', (9, 18)]"
p1370
I-10
sS"510656576['attack', (6, 15)]"
p1371
I-10
sS"483393536['attack', (13, 13)]"
p1372
I-20
sS"79691776['move', (13, 2)]"
p1373
F-178.40116561222663
sS"438304769['attack', (3, 13)]"
p1374
I-10
sS"40894468['guard']"
p1375
F-1426.1378874881818
sS"149946369['attack', (16, 4)]"
p1376
I-90
sS"138412040['suicide']"
p1377
F2473054544.1471863
sS"480247808['attack', (9, 14)]"
p1378
I-20
sS"353370120['suicide']"
p1379
F9.217551490511025e+33
sS"580911104['attack', (11, 17)]"
p1380
I-50
sS"1147142148['guard']"
p1381
I-10
sS"203423745['move', (2, 5)]"
p1382
F-74.00368147367085
sS"516947968['move', (14, 15)]"
p1383
F31997.416252297313
sS"336592896['attack', (1, 9)]"
p1384
I-40
sS"76546080['attack', (9, 3)]"
p1385
I-10
sS"75497488['attack', (8, 1)]"
p1386
I-30
sS"519045120['attack', (15, 16)]"
p1387
I-70
sS"506462224['guard']"
p1388
F1.5599428389560145e+71
sS"352321536['attack', (16, 11)]"
p1389
I-80
sS"74448896['move', (7, 3)]"
p1390
F7.3780010966227e+71
sS"385875968['attack', (15, 11)]"
p1391
I-30
sS"108003328['attack', (7, 2)]"
p1392
I-80
sS"115343362['move', (14, 2)]"
p1393
I-30
sS"546308097['attack', (8, 16)]"
p1394
I-10
sS"72351776['attack', (6, 2)]"
p1395
I-30
sS"204472320['suicide']"
p1396
I-50
sS"482344960['attack', (12, 13)]"
p1397
I-60
sS"169869316['attack', (3, 5)]"
p1398
I-20
sS"303038484['move', (0, 9)]"
p1399
I-10
sS"106954784['move', (7, 3)]"
p1400
I-10
sS"305135616['attack', (4, 9)]"
p1401
I-30
sS"441450496['attack', (5, 14)]"
p1402
I-40
sS"113246209['move', (12, 2)]"
p1403
F-39.82962087204476
sS"452984833['move', (17, 13)]"
p1404
I-20
sS"438304784['move', (2, 12)]"
p1405
F-22.2
sS"506462209['guard']"
p1406
F5.388030046569373e+53
sS"41943046['suicide']"
p1407
F2.0789797194593285e+40
sS"480247808['attack', (10, 15)]"
p1408
I-10
sS"544211072['attack', (7, 15)]"
p1409
I-20
sS"207618048['suicide']"
p1410
I-100
sS"542113794['move', (6, 16)]"
p1411
F-21.0
sS"45088768['attack', (10, 1)]"
p1412
I-120
sS"41943050['move', (7, 1)]"
p1413
F-11.0
sS"115343360['attack', (13, 3)]"
p1414
I-100
sS"41943072['move', (8, 0)]"
p1415
I-30
sS"109051936['attack', (9, 3)]"
p1416
I-10
sS"519045121['attack', (15, 16)]"
p1417
I-30
sS"169869348['move', (2, 6)]"
p1418
F1.2899863387490503e+52
sS"385875968['suicide']"
p1419
I-50
sS"577765378['move', (7, 18)]"
p1420
I-40
sS"137363457['move', (2, 4)]"
p1421
I-60
sS"42991648['suicide']"
p1422
F-58.2051
sS"235929600['move', (1, 6)]"
p1423
I-160
sS"148897792['attack', (15, 4)]"
p1424
I-40
sS"270532608['attack', (2, 7)]"
p1425
I-70
sS"386924545['attack', (18, 11)]"
p1426
I-10
sS"41943040['attack', (9, 1)]"
p1427
I-100
sS"240123904['suicide']"
p1428
F25364642703610.73
sS"517996546['attack', (15, 15)]"
p1429
F2.416057742093678e+58
sS"1147142148['move', (6, 1)]"
p1430
I-10
sS"506462224['suicide']"
p1431
I-50
sS"1360003072['suicide']"
p1432
F3.702864282239022e+61
sS"79691808['attack', (11, 2)]"
p1433
I-30
sS"580911232['attack', (10, 16)]"
p1434
I-20
sS"452984960['guard']"
p1435
F-21.0
sS"252706880['attack', (17, 6)]"
p1436
I-20
sS"385875969['move', (17, 11)]"
p1437
I-10
sS"419430400['attack', (17, 12)]"
p1438
I-210
sS"103809088['guard']"
p1439
F6.341692905180004e+73
sS"303038469['move', (0, 9)]"
p1440
I-30
sS"438304800['guard']"
p1441
F9.128414126549876e+38
sS"580911112['attack', (10, 18)]"
p1442
I-20
sS"441450496['attack', (6, 13)]"
p1443
I-50
sS"577765392['move', (6, 17)]"
p1444
I-20
sS"76546048['attack', (8, 2)]"
p1445
I-60
sS"485490816['guard']"
p1446
F-12.5
sS"439353344['attack', (4, 13)]"
p1447
I-60
sS"507510784['guard']"
p1448
F2.897247616663717e+75
sS"40894528['attack', (7, 2)]"
p1449
I-20
sS"103809028['suicide']"
p1450
F-39.54661
sS"271581184['attack', (3, 7)]"
p1451
I-40
sS"1592786952['suicide']"
p1452
F2.926176160463906e+66
sS"473956352['attack', (5, 14)]"
p1453
I-80
sS"203423762['guard']"
p1454
I-10
sS"74448920['attack', (7, 1)]"
p1455
I-10
sS"419430400['move', (16, 13)]"
p1456
I-10
sS"303038468['attack', (0, 9)]"
p1457
I-20
sS"73400384['guard']"
p1458
I-10
sS"336592897['attack', (0, 10)]"
p1459
I-20
sS"276824064['suicide']"
p1460
F-53.0
sS"580911136['attack', (10, 18)]"
p1461
I-30
sS"137363457['attack', (2, 4)]"
p1462
I-60
sS"270532628['suicide']"
p1463
F-443.8538569230463
sS"112197632['guard']"
p1464
F3.1630663948511437e+19
sS"103809028['attack', (2, 3)]"
p1465
I-20
sS"286261248['move', (17, 9)]"
p1466
F1.4638351045313413e+73
sS"76546177['move', (9, 1)]"
p1467
I-10
sS"45088768['guard']"
p1468
F2.9166104310827562e+75
sS"285212672['attack', (17, 8)]"
p1469
I-20
sS"252706820['suicide']"
p1470
F-38.01
sS"252706944['attack', (18, 7)]"
p1471
I-10
sS"250609684['attack', (16, 7)]"
p1472
I-20
sS"44040320['move', (10, 0)]"
p1473
I-30
sS"517996672['attack', (13, 15)]"
p1474
I-10
sS"286261256['guard']"
p1475
F-64.1
sS"512753664['attack', (9, 16)]"
p1476
I-30
sS"251658240['move', (16, 6)]"
p1477
F-187.64269912759573
sS"238026753['suicide']"
p1478
I-30
sS"41943174['guard']"
p1479
F-21.0
sS"45088768['attack', (12, 1)]"
p1480
I-120
sS"106954753['attack', (5, 3)]"
p1481
I-10
sS"105906176['attack', (6, 3)]"
p1482
I-30
sS"385875968['attack', (16, 10)]"
p1483
I-30
sS"472907778['guard']"
p1484
F-760.612452247334
sS"337641472['attack', (2, 9)]"
p1485
I-60
sS"452984832['move', (15, 13)]"
p1486
I-1010
sS"284164096['attack', (14, 8)]"
p1487
I-20
sS"217055296['move', (15, 7)]"
p1488
I-10
sS"546308160['attack', (8, 16)]"
p1489
I-20
sS"511705088['attack', (9, 15)]"
p1490
I-60
sS"73400450['move', (7, 2)]"
p1491
I-10
sS"203423776['attack', (2, 5)]"
p1492
I-10
sS"272629760['attack', (3, 8)]"
p1493
I-40
sS"148897824['attack', (15, 4)]"
p1494
I-10
sS"549453840['attack', (12, 15)]"
p1495
I-10
sS"371195908['attack', (2, 10)]"
p1496
I-20
sS"218103816['suicide']"
p1497
F-89.65903511170049
sS"472907840['suicide']"
p1498
F1.4253010283983155e+67
sS"74448912['attack', (6, 2)]"
p1499
I-10
sS"1623195648['attack', (13, 16)]"
p1500
I-10
sS"439353344['suicide']"
p1501
F-738.2313251975135
sS"73400322['guard']"
p1502
F-22.331
sS"73400320['suicide']"
p1503
I-100
sS"543162370['move', (7, 16)]"
p1504
F-13.0
sS"269484032['attack', (0, 8)]"
p1505
I-100
sS"579862656['attack', (10, 17)]"
p1506
I-60
sS"269484036['attack', (2, 8)]"
p1507
I-10
sS"108003330['attack', (7, 2)]"
p1508
I-10
sS"75497472['move', (7, 2)]"
p1509
F-20.5767364
sS"143654912['suicide']"
p1510
F23317939258047.812
sS"515899456['attack', (13, 15)]"
p1511
I-10
sS"41943048['move', (7, 1)]"
p1512
F-24.122205100000002
sS"106954752['guard']"
p1513
F-37.705963727849316
sS"580911107['suicide']"
p1514
I-10
sS"579862538['move', (9, 18)]"
p1515
I-10
sS"1258291200['move', (16, 6)]"
p1516
I-10
sS"550502408['guard']"
p1517
F-74.1
sS"203423808['attack', (3, 6)]"
p1518
I-10
sS"313524224['attack', (11, 8)]"
p1519
I-10
sS"108003344['attack', (7, 4)]"
p1520
I-10
sS"352321536['attack', (15, 10)]"
p1521
I-80
sS"510656576['attack', (7, 14)]"
p1522
I-10
sS"217055237['attack', (14, 6)]"
p1523
I-10
sS"473956360['attack', (4, 13)]"
p1524
I-30
sS"419430464['attack', (16, 11)]"
p1525
I-10
sS"519045121['move', (15, 16)]"
p1526
I-30
sS"353370121['guard']"
p1527
F-52.461360000000006
sS"286261252['attack', (17, 7)]"
p1528
I-10
sS"269484096['move', (1, 9)]"
p1529
F-26.0
sS"41943200['attack', (9, 1)]"
p1530
I-10
sS"1182793728['attack', (8, 4)]"
p1531
I-10
sS"303038464['suicide']"
p1532
F-229.94404031144012
sS"236978192['move', (2, 6)]"
p1533
I-10
sS"515899456['suicide']"
p1534
F-482.69271202553966
sS"74448896['attack', (6, 2)]"
p1535
I-80
sS"115343360['guard']"
p1536
F1.003315028528328e+72
sS"545259584['attack', (7, 16)]"
p1537
I-10
sS"548405250['attack', (11, 15)]"
p1538
I-20
sS"1592786953['move', (15, 16)]"
p1539
I-10
sS"74449056['attack', (7, 1)]"
p1540
I-10
sS"580911104['move', (11, 17)]"
p1541
F-157.53462170244012
sS"217055296['attack', (14, 6)]"
p1542
I-10
sS"1427111937['guard']"
p1543
F-33.1
sS"485490692['suicide']"
p1544
I-30
sS"452984832['move', (17, 13)]"
p1545
I-260
sS"217055250['attack', (14, 6)]"
p1546
I-10
sS"149946496['attack', (15, 3)]"
p1547
I-10
sS"452984832['guard']"
p1548
F-21338303.5804179
sS"509607936['attack', (7, 15)]"
p1549
I-10
sS"303038529['attack', (1, 10)]"
p1550
I-10
sS"286261256['move', (16, 8)]"
p1551
F-13.31
sS"546308160['suicide']"
p1552
F5.78078050596126e+68
sS"251658240['attack', (16, 6)]"
p1553
I-70
sS"545259524['attack', (9, 16)]"
p1554
I-10
sS"452984832['suicide']"
p1555
F1.409770253892766e+71
sS"42991648['attack', (8, 1)]"
p1556
I-20
sS"109051920['suicide']"
p1557
I-50
sS"204472320['attack', (2, 6)]"
p1558
I-20
sS"103809030['suicide']"
p1559
F1.1689745246621038e+31
sS"542113824['attack', (5, 17)]"
p1560
I-10
sS"353370116['suicide']"
p1561
F-93.77401464415317
sS"577765408['attack', (8, 17)]"
p1562
I-10
sS"76546049['attack', (9, 3)]"
p1563
I-20
sS"1182793728['attack', (9, 3)]"
p1564
I-10
sS"103809028['guard']"
p1565
F2.6124917176213293e+47
sS"304087040['attack', (3, 9)]"
p1566
I-50
sS"76546048['attack', (9, 3)]"
p1567
I-60
sS"353370128['move', (17, 11)]"
p1568
F-185.58736613832127
sS"353370113['attack', (17, 11)]"
p1569
I-30
sS"405798912['attack', (3, 13)]"
p1570
I-20
sS"303038469['suicide']"
p1571
F7.768615854027409e+57
sS"578814080['move', (8, 18)]"
p1572
I-10
sS"269484032['guard']"
p1573
F7.794713571161176e+76
sS"515899392['attack', (12, 14)]"
p1574
I-10
sS"519045120['attack', (14, 15)]"
p1575
I-70
sS"580911232['move', (10, 18)]"
p1576
I-20
sS"404750432['guard']"
p1577
F6.392285475615227e+33
sS"506462240['guard']"
p1578
F1.0047249434609652e+60
sS"283115520['attack', (13, 8)]"
p1579
I-10
sS"404750400['move', (1, 12)]"
p1580
I-10
sS"542113793['suicide']"
p1581
F59192477.46425424
sS"41943072['move', (9, 1)]"
p1582
F-58.274414846317114
sS"353370112['attack', (17, 9)]"
p1583
I-100
sS"73400450['attack', (5, 2)]"
p1584
I-10
sS"515899392['attack', (11, 15)]"
p1585
I-20
sS"545259526['suicide']"
p1586
I-10
sS"235929600['attack', (1, 8)]"
p1587
I-160
sS"139460608['guard']"
p1588
F-20.917139810000002
sS"507510784['attack', (5, 15)]"
p1589
I-160
sS"577765408['guard']"
p1590
F-36.0
sS"1360003076['attack', (16, 8)]"
p1591
I-10
sS"442499072['attack', (7, 13)]"
p1592
I-30
sS"45088896['move', (11, 0)]"
p1593
I-10
sS"116391944['attack', (15, 2)]"
p1594
I-30
sS"73400328['move', (6, 1)]"
p1595
I-30
sS"304087048['suicide']"
p1596
I-30
sS"73400320['attack', (6, 1)]"
p1597
I-60
sS"103809030['guard']"
p1598
F-21.0
sS"353370128['suicide']"
p1599
F-53.96592152
sS"506462224['attack', (4, 15)]"
p1600
I-30
sS"40894528['move', (7, 2)]"
p1601
F-34.52667731865307
sS"252706816['move', (17, 6)]"
p1602
I-160
sS"44040192['attack', (10, 2)]"
p1603
I-120
sS"352321538['suicide']"
p1604
F-1758889.3561970785
sS"514850818['suicide']"
p1605
F1.1010989258968362e+36
sS"336592897['move', (0, 10)]"
p1606
I-20
sS"182452226['suicide']"
p1607
I-30
sS"319815696['attack', (18, 9)]"
p1608
I-20
sS"42991680['attack', (9, 2)]"
p1609
I-10
sS"581959688['attack', (11, 16)]"
p1610
I-20
sS"74448904['attack', (8, 2)]"
p1611
I-20
sS"336592897['guard']"
p1612
F9.846230874245531e+70
sS"336592900['suicide']"
p1613
F2.8216353109742713e+60
sS"516947968['suicide']"
p1614
I-50
sS"476053520['move', (6, 13)]"
p1615
I-10
sS"579862537['move', (9, 18)]"
p1616
I-10
sS"137363489['attack', (2, 4)]"
p1617
I-10
sS"483393536['guard']"
p1618
F1.8903538563439718e+23
sS"352321568['suicide']"
p1619
I-50
sS"1148190722['attack', (7, 1)]"
p1620
I-10
sS"203423808['guard']"
p1621
F7839.611033830352
sS"579862568['move', (8, 17)]"
p1622
I-10
sS"285212672['suicide']"
p1623
I-50
sS"42991616['attack', (10, 1)]"
p1624
I-60
sS"353370176['guard']"
p1625
F6.923287014570199e+62
sS"451936257['move', (15, 12)]"
p1626
F-11.0
sS"170918016['guard']"
p1627
F1.483642842002769e+55
sS"336592928['attack', (1, 9)]"
p1628
I-10
sS"544210946['attack', (7, 15)]"
p1629
I-10
sS"269484033['move', (1, 7)]"
p1630
F-42.944
sS"442499072['attack', (6, 12)]"
p1631
I-30
sS"578813952['suicide']"
p1632
F-166.10663302547601
sS"76546176['move', (8, 2)]"
p1633
I-20
sS"580911120['attack', (10, 16)]"
p1634
I-10
sS"386924544['move', (17, 12)]"
p1635
I-50
sS"115343362['attack', (14, 2)]"
p1636
I-30
sS"439353473['suicide']"
p1637
F-57.997300953931
sS"252706944['guard']"
p1638
F259097.10205147063
sS"75497473['attack', (7, 2)]"
p1639
I-20
sS"386924672['move', (17, 12)]"
p1640
I-10
sS"517996672['guard']"
p1641
I-10
sS"218103824['guard']"
p1642
F-89.151
sS"579862537['guard']"
p1643
F46623430727.49721
sS"318767136['attack', (16, 10)]"
p1644
I-20
sS"238026752['attack', (3, 6)]"
p1645
I-30
sS"317718528['guard']"
p1646
F196141478.67764094
sS"104857602['guard']"
p1647
F-36.1
sS"419430400['move', (17, 12)]"
p1648
I-220
sS"318767136['attack', (15, 9)]"
p1649
I-20
sS"44040192['suicide']"
p1650
F15150017691.270761
sS"485490816['attack', (15, 15)]"
p1651
I-10
sS"303038466['guard']"
p1652
F-178.11858131979477
sS"203423808['move', (1, 6)]"
p1653
I-10
sS"478150656['attack', (8, 15)]"
p1654
I-30
sS"40894528['attack', (8, 1)]"
p1655
I-30
sS"353370113['guard']"
p1656
F-137.24536
sS"169869314['move', (2, 6)]"
p1657
F92.9711851747698
sS"545259648['attack', (8, 17)]"
p1658
I-10
sS"147849216['attack', (12, 4)]"
p1659
I-50
sS"472907776['attack', (3, 13)]"
p1660
I-140
sS"105906176['attack', (5, 2)]"
p1661
I-30
sS"550502400['suicide']"
p1662
F-101.0
sS"303038464['attack', (2, 9)]"
p1663
I-180
sS"73400328['move', (6, 3)]"
p1664
F1.5856307558146256e+64
sS"44040320['suicide']"
p1665
I-50
sS"545259520['suicide']"
p1666
I-100
sS"472907778['move', (2, 14)]"
p1667
I-20
sS"485490688['move', (16, 14)]"
p1668
I-100
sS"370147329['move', (1, 10)]"
p1669
F-35.61
sS"506462208['suicide']"
p1670
F1.5599426050315094e+72
sS"204472336['suicide']"
p1671
F-502.82736977296264
sS"73400324['guard']"
p1672
I-10
sS"510656512['attack', (7, 14)]"
p1673
I-40
sS"319815680['move', (17, 8)]"
p1674
F-90.33356811955765
sS"303038529['guard']"
p1675
F3.0932545942542616e+46
sS"72351776['attack', (5, 1)]"
p1676
I-20
sS"269484032['attack', (1, 9)]"
p1677
I-110
sS"110100480['attack', (10, 3)]"
p1678
I-30
sS"269484048['attack', (0, 8)]"
p1679
I-10
sS"40894464['move', (7, 0)]"
p1680
I-140
sS"513802240['suicide']"
p1681
F-160.65563857048912
sS"319815680['attack', (17, 10)]"
p1682
I-40
sS"543162496['guard']"
p1683
F2.1377392000151915e+68
sS"269484032['suicide']"
p1684
I-100
sS"149946368['move', (16, 4)]"
p1685
I-20
sS"506462226['attack', (2, 15)]"
p1686
I-10
sS"542113808['attack', (5, 15)]"
p1687
I-10
sS"319815681['move', (17, 8)]"
p1688
F-21.0
sS"73400320['guard']"
p1689
F-887.1562733235105
sS"112197632['attack', (11, 2)]"
p1690
I-10
sS"418381824['attack', (16, 12)]"
p1691
I-50
sS"484442114['guard']"
p1692
F-1111.0
sS"1114636288['guard']"
p1693
F-38.1
sS"507510792['suicide']"
p1694
I-30
sS"45088832['suicide']"
p1695
I-50
sS"76546048['suicide']"
p1696
F-103.61
sS"513802306['attack', (10, 14)]"
p1697
I-10
sS"580911106['attack', (10, 18)]"
p1698
I-30
sS"137363461['move', (2, 4)]"
p1699
I-10
sS"472907776['attack', (3, 15)]"
p1700
I-140
sS"385875968['move', (17, 11)]"
p1701
F4.340265168011051e+41
sS"269484033['attack', (1, 9)]"
p1702
I-30
sS"507510800['guard']"
p1703
F-44.12375
sS"75497480['suicide']"
p1704
I-30
sS"303038529['move', (0, 9)]"
p1705
I-20
sS"347078656['attack', (11, 11)]"
p1706
I-10
sS"506462224['move', (3, 14)]"
p1707
F-53.19738814621778
sS"513802241['suicide']"
p1708
F-392.0639796466741
sS"542113824['move', (4, 16)]"
p1709
I-20
sS"139460624['attack', (5, 5)]"
p1710
I-10
sS"544210946['move', (8, 16)]"
p1711
I-10
sS"184549440['move', (16, 4)]"
p1712
I-10
sS"319815684['attack', (16, 9)]"
p1713
I-10
sS"452984848['move', (16, 12)]"
p1714
F-15.0
sS"104857728['attack', (4, 2)]"
p1715
I-20
sS"148897792['attack', (13, 4)]"
p1716
I-40
sS"42991616['attack', (9, 0)]"
p1717
I-60
sS"472907778['attack', (3, 13)]"
p1718
I-30
sS"577765378['attack', (6, 17)]"
p1719
I-30
sS"303038465['move', (0, 9)]"
p1720
I-30
sS"517996546['suicide']"
p1721
F-37.6148409895821
sS"1180696576['attack', (7, 3)]"
p1722
I-20
sS"550502408['attack', (13, 17)]"
p1723
I-20
sS"252706820['attack', (16, 7)]"
p1724
I-30
sS"336592898['guard']"
p1725
I-10
sS"41943168['attack', (8, 2)]"
p1726
I-40
sS"205520896['attack', (5, 6)]"
p1727
I-20
sS"251658272['attack', (15, 7)]"
p1728
I-10
sS"73400320['attack', (5, 2)]"
p1729
I-60
sS"507510792['attack', (4, 14)]"
p1730
I-40
sS"318767136['attack', (17, 9)]"
p1731
I-20
sS"580911104['move', (10, 18)]"
p1732
I-50
sS"404750368['suicide']"
p1733
F1.9654674916527672e+32
sS"579862536['guard']"
p1734
F5.012242499755555e+63
sS"269484037['suicide']"
p1735
F5.829985519584323e+69
sS"78643200['attack', (10, 2)]"
p1736
I-30
sS"79691776['attack', (11, 2)]"
p1737
I-120
sS"80740356['move', (13, 3)]"
p1738
I-10
sS"318767104['attack', (16, 10)]"
p1739
I-40
sS"519045128['attack', (15, 14)]"
p1740
I-10
sS"116391936['move', (16, 3)]"
p1741
I-70
sS"447741952['attack', (12, 13)]"
p1742
I-20
sS"386924544['attack', (18, 11)]"
p1743
I-30
sS"1427111936['attack', (18, 10)]"
p1744
I-20
sS"580911106['attack', (9, 17)]"
p1745
I-20
sS"419430400['attack', (16, 11)]"
p1746
I-220
sS"1622147072['suicide']"
p1747
F3.181925718638538e+21
sS"41943136['attack', (7, 1)]"
p1748
I-10
sS"580911106['attack', (10, 16)]"
p1749
I-30
sS"169869316['guard']"
p1750
F1.5448243763734792e+68
sS"578813953['suicide']"
p1751
F-31.179201
sS"352321568['attack', (17, 10)]"
p1752
I-10
sS"577765378['move', (6, 17)]"
p1753
I-40
sS"149946496['move', (16, 4)]"
p1754
I-20
sS"549453826['attack', (12, 17)]"
p1755
I-40
sS"285212672['attack', (16, 7)]"
p1756
I-30
sS"173015040['suicide']"
p1757
F-53.0
sS"217055233['suicide']"
p1758
F-1036.3531041248848
sS"550502401['move', (13, 15)]"
p1759
F-11.0
sS"45088768['move', (11, 0)]"
p1760
I-120
sS"205520896['attack', (4, 7)]"
p1761
I-20
sS"550502416['guard']"
p1762
F-71.8333778458618
sS"336592896['move', (0, 10)]"
p1763
I-50
sS"550502528['suicide']"
p1764
F1.3651604996090286e+49
sS"578813960['guard']"
p1765
F3.2163308281252365e+55
sS"577765376['attack', (6, 17)]"
p1766
I-160
sS"111149088['suicide']"
p1767
I-50
sS"76546056['attack', (9, 3)]"
p1768
I-10
sS"507510912['attack', (4, 14)]"
p1769
I-20
sS"550502408['move', (12, 16)]"
p1770
F1.173445804445773e+69
sS"80740352['attack', (12, 2)]"
p1771
I-180
sS"512753664['move', (9, 14)]"
p1772
F3.875467077324474e+25
sS"72351746['move', (6, 2)]"
p1773
F-15.51400611
sS"442499136['attack', (6, 14)]"
p1774
I-10
sS"205521025['attack', (4, 7)]"
p1775
I-10
sS"76546049['attack', (10, 2)]"
p1776
I-10
sS"137363472['move', (3, 5)]"
p1777
F-31.0
sS"1427111936['attack', (17, 11)]"
p1778
I-20
sS"238026752['move', (3, 6)]"
p1779
F-10.85473527603351
sS"318767104['suicide']"
p1780
I-50
sS"285212736['attack', (17, 8)]"
p1781
I-10
sS"580911112['attack', (11, 17)]"
p1782
I-20
sS"42991616['move', (10, 1)]"
p1783
F-76.8730420154096
sS"404750400['guard']"
p1784
F-68.3
sS"580911104['guard']"
p1785
F-409.74024341099994
sS"138412032['guard']"
p1786
F5.16504974121949e+40
sS"511705088['guard']"
p1787
F-123.1261550689006
sS"104857608['attack', (5, 3)]"
p1788
I-40
sS"550502408['move', (13, 17)]"
p1789
I-20
sS"40894468['attack', (6, 1)]"
p1790
I-20
sS"485490688['attack', (16, 14)]"
p1791
I-90
sS"40894464['guard']"
p1792
F-8613.86324466656
sS"170917890['attack', (3, 6)]"
p1793
I-10
sS"374341632['attack', (5, 10)]"
p1794
I-10
sS"303038480['guard']"
p1795
F1.0007488184371165e+59
sS"74449024['attack', (7, 1)]"
p1796
I-10
sS"337641472['attack', (1, 10)]"
p1797
I-50
sS"75497474['suicide']"
p1798
F106009362.67125905
sS"303038529['attack', (0, 9)]"
p1799
I-10
sS"270532608['attack', (3, 8)]"
p1800
I-70
sS"507510784['attack', (4, 14)]"
p1801
I-160
sS"544211008['attack', (7, 17)]"
p1802
I-20
sS"580911232['suicide']"
p1803
F-68.2324491
sS"352321536['attack', (17, 10)]"
p1804
I-80
sS"184549384['move', (16, 4)]"
p1805
I-20
sS"351272964['attack', (16, 10)]"
p1806
I-10
sS"550502400['move', (14, 16)]"
p1807
I-100
sS"578814080['move', (7, 17)]"
p1808
F-15.0
sS"111149056['attack', (11, 3)]"
p1809
I-40
sS"104857632['attack', (4, 4)]"
p1810
I-10
sS"544210944['attack', (8, 16)]"
p1811
I-60
sS"72351746['guard']"
p1812
F3.2634383620796356e+57
sS"140509184['attack', (6, 5)]"
p1813
I-20
sS"80740352['move', (13, 1)]"
p1814
I-180
sS"319815808['attack', (17, 10)]"
p1815
I-20
sS"580911112['guard']"
p1816
F1.240984273431698e+66
sS"73400352['attack', (6, 1)]"
p1817
I-10
sS"382730242['suicide']"
p1818
F-31.0
sS"579862544['attack', (9, 18)]"
p1819
I-10
sS"72351744['move', (4, 2)]"
p1820
I-60
sS"419430464['attack', (17, 12)]"
p1821
I-20
sS"473956384['suicide']"
p1822
F4.436688038091377e+42
sS"542113794['attack', (4, 16)]"
p1823
I-10
sS"137363488['suicide']"
p1824
I-100
sS"105906176['attack', (4, 3)]"
p1825
I-30
sS"106954880['attack', (6, 4)]"
p1826
I-10
sS"45088768['attack', (11, 0)]"
p1827
I-110
sS"169869314['attack', (2, 6)]"
p1828
I-10
sS"581959688['move', (12, 17)]"
p1829
I-20
sS"353370117['suicide']"
p1830
F1.1930711518064662e+37
sS"138412160['attack', (5, 4)]"
p1831
I-10
sS"485490752['attack', (15, 13)]"
p1832
I-40
sS"578813984['attack', (8, 16)]"
p1833
I-20
sS"42991620['move', (9, 2)]"
p1834
I-10
sS"450887680['suicide']"
p1835
F-117.54793460100001
sS"203423745['attack', (1, 6)]"
p1836
I-40
sS"472907808['move', (2, 14)]"
p1837
I-10
sS"307232768['suicide']"
p1838
F10870711.57001767
sS"546308096['attack', (9, 15)]"
p1839
I-40
sS"270532608['attack', (2, 9)]"
p1840
I-70
sS"480247808['attack', (10, 13)]"
p1841
I-20
sS"74448900['move', (7, 1)]"
p1842
F-39.352662023345296
sS"271581184['attack', (2, 8)]"
p1843
I-30
sS"1460666368['attack', (18, 11)]"
p1844
I-10
sS"579862536['attack', (9, 18)]"
p1845
I-20
sS"80740356['guard']"
p1846
I-10
sS"1622147072['move', (12, 16)]"
p1847
F-15.0
sS"74448904['move', (6, 2)]"
p1848
I-10
sS"285212704['move', (17, 8)]"
p1849
I-10
sS"579862552['guard']"
p1850
F2.338248117536849e+62
sS"419430404['attack', (17, 12)]"
p1851
I-60
sS"75497600['suicide']"
p1852
F4.662254933050028e+71
sS"44040224['attack', (9, 1)]"
p1853
I-10
sS"472907776['attack', (4, 14)]"
p1854
I-130
sS"44040320['attack', (11, 1)]"
p1855
I-20
sS"370147328['move', (2, 11)]"
p1856
F-118.48717099999999
sS"517996560['attack', (13, 15)]"
p1857
I-10
sS"581959696['attack', (11, 18)]"
p1858
I-10
sS"449839104['attack', (13, 12)]"
p1859
I-10
sS"319815745['attack', (17, 10)]"
p1860
I-20
sS"549453826['move', (12, 17)]"
p1861
I-50
sS"1360003076['guard']"
p1862
F1.676318298195711e+70
sS"451936256['attack', (16, 13)]"
p1863
I-10
sS"514850880['attack', (11, 16)]"
p1864
I-10
sS"353370128['attack', (16, 10)]"
p1865
I-40
sS"139460608['attack', (4, 4)]"
p1866
I-20
sS"337641472['attack', (2, 11)]"
p1867
I-50
sS"170917888['move', (2, 5)]"
p1868
F-240.9013399894007
sS"42991618['attack', (9, 2)]"
p1869
I-20
sS"108003328['attack', (7, 4)]"
p1870
I-80
sS"549453840['guard']"
p1871
F-177.94140600344411
sS"106954784['attack', (5, 3)]"
p1872
I-10
sS"511705088['attack', (8, 14)]"
p1873
I-60
sS"77594632['move', (10, 1)]"
p1874
F-49.19202178770994
sS"484442116['attack', (14, 13)]"
p1875
I-10
sS"45088776['attack', (11, 2)]"
p1876
I-10
sS"519045120['move', (16, 15)]"
p1877
I-80
sS"577765392['attack', (7, 18)]"
p1878
I-10
sS"473956352['move', (3, 14)]"
p1879
F-342.66642330645124
sS"303038528['attack', (1, 10)]"
p1880
I-30
sS"203423744['suicide']"
p1881
F-175.91225263969932
sS"110100608['move', (8, 3)]"
p1882
I-10
sS"184549376['move', (16, 4)]"
p1883
I-110
sS"45088960['move', (11, 2)]"
p1884
I-10
sS"171966464['attack', (3, 5)]"
p1885
I-20
sS"581959808['attack', (11, 18)]"
p1886
I-10
sS"251658250['move', (17, 7)]"
p1887
I-10
sS"104857728['attack', (4, 4)]"
p1888
I-20
sS"579862560['attack', (8, 17)]"
p1889
I-30
sS"544210944['move', (7, 17)]"
p1890
F-422.4637789434225
sS"104857728['attack', (3, 3)]"
p1891
I-10
sS"353370256['attack', (17, 9)]"
p1892
I-10
sS"317718532['attack', (15, 8)]"
p1893
I-10
sS"103809088['move', (3, 2)]"
p1894
I-40
sS"44040194['attack', (9, 1)]"
p1895
I-70
sS"80740360['guard']"
p1896
F-10569.672705382112
sS"251658272['guard']"
p1897
F2095881.936324329
sS"108003328['attack', (6, 3)]"
p1898
I-80
sS"183500800['attack', (14, 5)]"
p1899
I-80
sS"169869316['attack', (2, 4)]"
p1900
I-40
sS"149946369['attack', (14, 4)]"
p1901
I-90
sS"75497472['guard']"
p1902
F6.335866980748965e+75
sS"353370136['guard']"
p1903
F-21.0
sS"42991616['attack', (8, 1)]"
p1904
I-50
sS"438304768['move', (2, 12)]"
p1905
F1.961230806204809e+76
sS"80740360['move', (13, 1)]"
p1906
I-30
sS"507510784['attack', (4, 16)]"
p1907
I-150
sS"318767136['attack', (16, 8)]"
p1908
I-10
sS"519045120['attack', (15, 14)]"
p1909
I-80
sS"305135616['suicide']"
p1910
I-50
sS"450887680['attack', (13, 13)]"
p1911
I-30
sS"205520960['move', (4, 7)]"
p1912
I-10
sS"512753664['attack', (9, 14)]"
p1913
I-30
sS"143654912['attack', (9, 5)]"
p1914
I-20
sS"577765378['attack', (7, 16)]"
p1915
I-40
sS"235929664['guard']"
p1916
I-20
sS"545259520['attack', (7, 16)]"
p1917
I-70
sS"336592900['attack', (2, 10)]"
p1918
I-40
sS"507510912['suicide']"
p1919
F3.158722812449578e+58
sS"138412033['move', (4, 3)]"
p1920
F-13.0
sS"104857608['suicide']"
p1921
F-32.0
sS"519045120['guard']"
p1922
F2.9179569213446257e+75
sS"352321536['guard']"
p1923
F29442.39505530424
sS"204472320['attack', (4, 6)]"
p1924
I-20
sS"44040256['attack', (10, 0)]"
p1925
I-20
sS"103809024['attack', (4, 3)]"
p1926
I-50
sS"74448928['attack', (6, 2)]"
p1927
I-30
sS"477102080['attack', (7, 15)]"
p1928
I-30
sS"507510786['guard']"
p1929
F1.577946092413403e+16
sS"347078656['suicide']"
p1930
F-52.3
sS"73400328['attack', (7, 2)]"
p1931
I-20
sS"72351776['move', (4, 2)]"
p1932
I-20
sS"506462210['attack', (3, 14)]"
p1933
I-10
sS"140509184['suicide']"
p1934
I-50
sS"286261248['attack', (17, 7)]"
p1935
I-70
sS"548405250['attack', (11, 17)]"
p1936
I-10
sS"41943168['guard']"
p1937
F4.450992915330423e+61
sS"79691776['suicide']"
p1938
F3.236233965639945e+72
sS"419430416['guard']"
p1939
F-20.137161
sS"105906176['suicide']"
p1940
I-50
sS"41943080['attack', (9, 1)]"
p1941
I-20
sS"137363456['move', (3, 5)]"
p1942
F1.4294960176524135e+72
sS"319815809['move', (17, 8)]"
p1943
F-12.1
sS"384827392['attack', (14, 11)]"
p1944
I-30
sS"249561088['suicide']"
p1945
F3510856.4477217905
sS"303038465['attack', (1, 10)]"
p1946
I-20
sS"103809060['move', (3, 2)]"
p1947
I-10
sS"106954760['attack', (6, 4)]"
p1948
I-10
sS"169869312['attack', (1, 5)]"
p1949
I-160
sS"286261256['attack', (17, 9)]"
p1950
I-20
sS"115343392['attack', (14, 2)]"
p1951
I-50
sS"251658240['suicide']"
p1952
I-100
sS"472907840['attack', (3, 13)]"
p1953
I-60
sS"106954752['attack', (7, 3)]"
p1954
I-40
sS"73400448['attack', (5, 2)]"
p1955
I-10
sS"184549384['suicide']"
p1956
F1.3978674637351263e+57
sS"203423745['move', (1, 6)]"
p1957
I-40
sS"75497472['attack', (8, 3)]"
p1958
I-70
sS"543162400['suicide']"
p1959
I-50
sS"506462208['move', (4, 15)]"
p1960
F-275.61869612222887
sS"485490820['guard']"
p1961
I-10
sS"439353472['move', (2, 13)]"
p1962
I-20
sS"543162400['attack', (6, 17)]"
p1963
I-20
sS"546308160['attack', (10, 16)]"
p1964
I-30
sS"115343392['suicide']"
p1965
F1.3247986395976928e+70
sS"218104000['guard']"
p1966
F-11.41
sS"319815872['guard']"
p1967
F4168471.0189164975
sS"104857664['move', (4, 2)]"
p1968
I-10
sS"304087040['suicide']"
p1969
I-50
sS"439353344['attack', (2, 13)]"
p1970
I-60
sS"480247808['attack', (11, 14)]"
p1971
I-20
sS"269484034['move', (0, 8)]"
p1972
I-10
sS"269484033['move', (0, 8)]"
p1973
I-40
sS"550502408['attack', (14, 16)]"
p1974
I-20
sS"506462209['attack', (4, 15)]"
p1975
I-20
sS"106954793['attack', (6, 4)]"
p1976
I-10
sS"218103808['move', (16, 5)]"
p1977
F33271757481.097103
sS"352321540['attack', (15, 10)]"
p1978
I-10
sS"406847488['attack', (4, 13)]"
p1979
I-20
sS"250609696['attack', (16, 7)]"
p1980
I-10
sS"77594624['attack', (9, 2)]"
p1981
I-80
sS"137363457['attack', (4, 4)]"
p1982
I-60
sS"44040232['move', (11, 1)]"
p1983
F-24.310000000000002
sS"248512512['attack', (13, 6)]"
p1984
I-10
sS"284164097['move', (15, 7)]"
p1985
I-10
sS"519045248['attack', (16, 15)]"
p1986
I-40
sS"170917888['move', (3, 4)]"
p1987
F2.9924099274801386e+72
sS"184549388['suicide']"
p1988
F-1230.9972559911107
sS"1182793736['suicide']"
p1989
F2.2684212892235584e+28
sS"42991656['attack', (9, 2)]"
p1990
I-20
sS"184549376['suicide']"
p1991
F-101.79201
sS"109051904['attack', (7, 3)]"
p1992
I-20
sS"580911136['attack', (10, 16)]"
p1993
I-40
sS"481296384['attack', (12, 14)]"
p1994
I-10
sS"506462209['attack', (2, 15)]"
p1995
I-20
sS"545259520['attack', (9, 16)]"
p1996
I-80
sS"517996546['move', (15, 15)]"
p1997
F-24.3
sS"269484096['attack', (1, 9)]"
p1998
I-20
sS"103809028['move', (3, 2)]"
p1999
I-20
sS"438304768['move', (3, 13)]"
p2000
F-22.375
sS"249561088['attack', (14, 8)]"
p2001
I-50
sS"109051904['attack', (8, 4)]"
p2002
I-30
sS"1249902592['attack', (7, 5)]"
p2003
I-10
sS"269484033['attack', (2, 8)]"
p2004
I-40
sS"1393557504['move', (17, 8)]"
p2005
F2.0850252088229306e+54
sS"109051904['attack', (9, 3)]"
p2006
I-20
sS"351272976['move', (15, 9)]"
p2007
I-10
sS"313524224['attack', (10, 9)]"
p2008
I-20
sS"76546049['attack', (8, 2)]"
p2009
I-20
sS"404750401['move', (2, 11)]"
p2010
I-10
sS"73400320['move', (7, 2)]"
p2011
F3.735760920686207e+70
sS"250609668['suicide']"
p2012
F-40.0
sS"452984832['attack', (16, 14)]"
p2013
I-260
sS"444596224['suicide']"
p2014
F-72.18485613749999
sS"41943080['move', (9, 1)]"
p2015
F-11.0
sS"116391944['guard']"
p2016
F1.1462517081842897e+72
sS"478150656['attack', (8, 13)]"
p2017
I-30
sS"1360003072['attack', (17, 7)]"
p2018
I-10
sS"319815744['move', (17, 10)]"
p2019
F-21.0
sS"149946373['guard']"
p2020
F-175.23739493772945
sS"103809028['move', (3, 4)]"
p2021
F-14.6
sS"477102084['attack', (8, 14)]"
p2022
I-10
sS"137363474['move', (3, 3)]"
p2023
F9764724831.944206
sS"1427111937['move', (17, 11)]"
p2024
F9.114460838556128e+69
sS"506462224['move', (2, 15)]"
p2025
I-20
sS"303038528['attack', (2, 9)]"
p2026
I-40
sS"544210944['attack', (7, 17)]"
p2027
I-50
sS"137363489['guard']"
p2028
F-15.0
sS"74449024['attack', (7, 3)]"
p2029
I-10
sS"148897792['attack', (14, 5)]"
p2030
I-30
sS"319815681['attack', (17, 8)]"
p2031
F4.561870039744951e+69
sS"336592896['suicide']"
p2032
I-50
sS"550502401['guard']"
p2033
F-1056.5045676973264
sS"40894464['attack', (7, 2)]"
p2034
I-130
sS"184549504['attack', (16, 4)]"
p2035
I-10
sS"40894466['attack', (6, 1)]"
p2036
I-20
sS"1147142144['suicide']"
p2037
F7.438233597870653e+61
sS"41943040['attack', (7, 1)]"
p2038
I-100
sS"371195908['suicide']"
p2039
I-30
sS"44040192['attack', (10, 0)]"
p2040
I-120
sS"578813960['move', (7, 17)]"
p2041
I-10
sS"108003328['suicide']"
p2042
F3.678540901911775e+72
sS"103809056['guard']"
p2043
F3.231499310041035e+67
sS"205520896['attack', (3, 6)]"
p2044
I-30
sS"384827392['attack', (16, 11)]"
p2045
I-30
sS"315621376['attack', (13, 8)]"
p2046
I-10
sS"581959680['attack', (11, 16)]"
p2047
I-140
sS"544210944['attack', (7, 15)]"
p2048
I-60
sS"448790528['suicide']"
p2049
F-1389.1213320720274
sS"542113792['guard']"
p2050
F5.739811008733704e+72
sS"137363461['attack', (2, 4)]"
p2051
I-10
sS"44040192['attack', (11, 1)]"
p2052
I-120
sS"79691808['move', (13, 2)]"
p2053
F-44.616317056062414
sS"370147344['suicide']"
p2054
I-50
sS"548405248['attack', (11, 17)]"
p2055
I-50
sS"484442112['attack', (14, 15)]"
p2056
I-110
sS"80740352['attack', (13, 3)]"
p2057
I-170
sS"509607936['move', (6, 16)]"
p2058
F2942676.338899385
sS"349175808['suicide']"
p2059
F-95.80982617411755
sS"419430404['move', (17, 12)]"
p2060
I-70
sS"579862530['suicide']"
p2061
F-85.1069515406871
sS"183500800['attack', (15, 6)]"
p2062
I-80
sS"1182793728['move', (8, 2)]"
p2063
I-20
sS"112197664['attack', (11, 2)]"
p2064
I-10
sS"482344960['suicide']"
p2065
F5.632067573843889e+62
sS"303038480['attack', (2, 9)]"
p2066
I-10
sS"383778816['attack', (13, 11)]"
p2067
I-30
sS"171966464['attack', (4, 4)]"
p2068
I-30
sS"509607940['attack', (7, 15)]"
p2069
I-10
sS"405798912['suicide']"
p2070
F-35120.91024826568
sS"579862528['attack', (8, 17)]"
p2071
I-90
sS"579862674['guard']"
p2072
F3.121586582031147e+23
sS"269484036['attack', (1, 9)]"
p2073
I-10
sS"519045120['attack', (16, 15)]"
p2074
I-80
sS"218103936['move', (17, 6)]"
p2075
I-10
sS"41943168['move', (7, 1)]"
p2076
F-47.31
sS"550502400['move', (13, 17)]"
p2077
I-100
sS"74448896['attack', (8, 2)]"
p2078
I-80
sS"175112192['suicide']"
p2079
F-3952.3322846849223
sS"80740356['move', (13, 1)]"
p2080
I-10
sS"78643218['attack', (10, 2)]"
p2081
I-10
sS"473956354['attack', (4, 15)]"
p2082
I-20
sS"443547648['attack', (7, 14)]"
p2083
I-10
sS"548405260['attack', (12, 16)]"
p2084
I-10
sS"203423776['attack', (3, 6)]"
p2085
I-10
sS"269484037['move', (0, 8)]"
p2086
I-10
sS"506462208['attack', (2, 15)]"
p2087
I-120
sS"80740360['suicide']"
p2088
F6.763895599435773e+69
sS"1376780288['guard']"
p2089
F1.8110260259145826e+69
sS"547356672['attack', (9, 16)]"
p2090
I-20
sS"40894464['move', (6, 1)]"
p2091
I-130
sS"204472448['move', (2, 6)]"
p2092
I-10
sS"80740480['suicide']"
p2093
I-50
sS"74448928['move', (8, 2)]"
p2094
F1.3869992315463866e+71
sS"386924560['move', (17, 12)]"
p2095
I-20
sS"317718532['attack', (16, 9)]"
p2096
I-10
sS"218103824['attack', (15, 6)]"
p2097
I-30
sS"578813952['move', (7, 17)]"
p2098
F3.140452988384437e+69
sS"75497600['attack', (8, 1)]"
p2099
I-30
sS"318767168['attack', (16, 8)]"
p2100
I-10
sS"472907778['move', (4, 14)]"
p2101
F-21.609275145821
sS"236978184['attack', (3, 7)]"
p2102
I-20
sS"217055232['attack', (16, 6)]"
p2103
I-30
sS"286261248['attack', (16, 8)]"
p2104
I-70
sS"353370177['attack', (17, 11)]"
p2105
I-40
sS"386924552['guard']"
p2106
F104.07460158389
sS"42991618['guard']"
p2107
F7.148782601706113e+34
sS"581959680['suicide']"
p2108
F-328.2604235728885
sS"78643200['move', (10, 2)]"
p2109
F-11.0
sS"41943048['attack', (7, 1)]"
p2110
F-24.575425609999996
sS"404750401['move', (2, 13)]"
p2111
I-10
sS"106954760['attack', (6, 2)]"
p2112
I-10
sS"239075344['attack', (5, 7)]"
p2113
I-10
sS"137363474['attack', (2, 4)]"
p2114
I-10
sS"75497472['attack', (9, 2)]"
p2115
I-70
sS"40894464['move', (7, 2)]"
p2116
F1.957732941003308e+69
sS"472907778['attack', (2, 14)]"
p2117
I-30
sS"510656512['attack', (8, 15)]"
p2118
I-30
sS"116391936['move', (14, 3)]"
p2119
F-1026.5035991
sS"103809060['attack', (2, 3)]"
p2120
I-10
sS"451936257['attack', (16, 13)]"
p2121
I-20
sS"286261312['move', (17, 7)]"
p2122
F1.6008350702753258e+48
sS"452984832['attack', (16, 12)]"
p2123
I-260
sS"549453832['guard']"
p2124
F7.697063539426104e+52
sS"484442112['attack', (15, 14)]"
p2125
I-110
sS"443547648['attack', (7, 12)]"
p2126
I-20
sS"439353348['attack', (4, 13)]"
p2127
I-20
sS"580911120['guard']"
p2128
F38855858389.18868
sS"519045120['move', (15, 14)]"
p2129
F-101.00369139689339
sS"103809088['attack', (4, 3)]"
p2130
I-30
sS"419430400['suicide']"
p2131
F-212.79276792123432
sS"149946368['suicide']"
p2132
I-50
sS"546308096['suicide']"
p2133
F-57.072
sS"104857600['move', (4, 2)]"
p2134
I-110
sS"580911104['attack', (9, 17)]"
p2135
I-50
sS"41943042['attack', (7, 1)]"
p2136
I-40
sS"549453824['attack', (11, 16)]"
p2137
I-150
sS"44040352['move', (11, 1)]"
p2138
F-13.452797171
sS"1358954532['attack', (16, 7)]"
p2139
I-10
sS"75497488['attack', (8, 3)]"
p2140
I-30
sS"1148190721['attack', (8, 2)]"
p2141
I-10
sS"545259520['move', (9, 16)]"
p2142
F-71.051
sS"485490752['attack', (14, 14)]"
p2143
I-30
sS"40894560['suicide']"
p2144
F5.4081111213305196e+69
sS"284164096['attack', (15, 7)]"
p2145
I-20
sS"544211076['move', (7, 17)]"
p2146
I-10
sS"251658384['suicide']"
p2147
F52.53111253729287
sS"181403776['attack', (13, 4)]"
p2148
I-10
sS"74448896['move', (7, 1)]"
p2149
F-497.1011174252848
sS"286261312['attack', (18, 8)]"
p2150
I-20
sS"252706880['guard']"
p2151
F3.038535597786593e+68
sS"252706820['move', (18, 7)]"
p2152
I-30
sS"303038497['suicide']"
p2153
F2.4196538250343434e+59
sS"579862544['move', (9, 16)]"
p2154
F-13.1
sS"318767106['move', (17, 9)]"
p2155
I-10
sS"116391944['attack', (15, 4)]"
p2156
I-30
sS"138412032['suicide']"
p2157
F-449.43381831825354
sS"75497480['move', (8, 1)]"
p2158
F6.208270116676347e+70
sS"450887680['attack', (14, 14)]"
p2159
I-30
sS"484442114['attack', (14, 15)]"
p2160
I-10
sS"115343392['guard']"
p2161
F-85.55687812719496
sS"577765394['guard']"
p2162
F-339.96049371208505
sS"44040232['move', (10, 0)]"
p2163
I-20
sS"210763776['attack', (8, 6)]"
p2164
I-20
sS"439353348['move', (3, 14)]"
p2165
I-10
sS"236978248['attack', (3, 7)]"
p2166
I-10
sS"517996576['attack', (13, 15)]"
p2167
I-40
sS"513802240['attack', (9, 15)]"
p2168
I-40
sS"548405250['suicide']"
p2169
I-30
sS"452984840['guard']"
p2170
F-4304.665513153415
sS"40894528['attack', (7, 0)]"
p2171
I-20
sS"104857728['move', (3, 3)]"
p2172
I-10
sS"203423744['move', (2, 5)]"
p2173
F-1902.858459988338
sS"208666624['attack', (7, 5)]"
p2174
I-10
sS"319815681['guard']"
p2175
F-105.10710000000002
sS"235929602['attack', (1, 8)]"
p2176
I-10
sS"40894466['move', (7, 0)]"
p2177
I-10
sS"252706816['move', (18, 7)]"
p2178
I-160
sS"74448904['move', (7, 3)]"
p2179
I-10
sS"508559488['suicide']"
p2180
I-50
sS"542113792['move', (5, 17)]"
p2181
I-170
sS"103809024['move', (4, 3)]"
p2182
F-21.0
sS"511705088['attack', (7, 15)]"
p2183
I-50
sS"441450498['attack', (5, 14)]"
p2184
I-10
sS"269484033['guard']"
p2185
F-221.38463999999996
sS"1291845632['move', (17, 6)]"
p2186
I-30
sS"386924544['attack', (17, 12)]"
p2187
I-50
sS"549453826['attack', (12, 15)]"
p2188
I-40
sS"217055232['move', (15, 5)]"
p2189
F7.807952627609222e+65
sS"104857728['attack', (5, 3)]"
p2190
I-10
sS"103809024['attack', (2, 3)]"
p2191
I-50
sS"286261380['move', (18, 8)]"
p2192
I-10
sS"319815681['attack', (18, 9)]"
p2193
I-20
sS"578813984['move', (8, 18)]"
p2194
I-20
sS"545259552['attack', (9, 16)]"
p2195
I-10
sS"336592900['guard']"
p2196
F-302.309578913
sS"216006656['attack', (15, 6)]"
p2197
I-50
sS"507510786['move', (4, 16)]"
p2198
I-10
sS"316669952['attack', (13, 9)]"
p2199
I-10
sS"109051936['attack', (7, 3)]"
p2200
I-10
sS"76546072['attack', (9, 1)]"
p2201
I-10
sS"549453856['move', (12, 17)]"
p2202
I-10
sS"109051904['suicide']"
p2203
I-50
sS"549453824['attack', (12, 17)]"
p2204
I-140
sS"170917889['attack', (4, 5)]"
p2205
I-10
sS"579862528['move', (9, 16)]"
p2206
F8.490785592997678e+83
sS"44040202['move', (9, 1)]"
p2207
F-26.62
sS"485490704['suicide']"
p2208
I-50
sS"577765408['suicide']"
p2209
F8.45320157163249e+51
sS"73400320['move', (5, 2)]"
p2210
F-95.22368775768216
sS"72351746['attack', (5, 3)]"
p2211
I-20
sS"44040200['attack', (10, 0)]"
p2212
I-40
sS"42991648['move', (10, 1)]"
p2213
F-26.741
sS"103809026['move', (3, 2)]"
p2214
I-30
sS"1148190720['move', (7, 1)]"
p2215
F8.374599534224436e+39
sS"338690048['attack', (3, 9)]"
p2216
I-20
sS"42991744['attack', (10, 1)]"
p2217
I-20
sS"108003456['suicide']"
p2218
F-51.1
sS"579862656['suicide']"
p2219
F2.8653554153693325e+53
sS"441450496['attack', (4, 13)]"
p2220
I-40
sS"353370112['attack', (18, 10)]"
p2221
I-100
sS"45088776['suicide']"
p2222
I-30
sS"475004928['attack', (6, 14)]"
p2223
I-50
sS"507510786['attack', (4, 14)]"
p2224
I-10
sS"72351746['attack', (5, 1)]"
p2225
I-20
sS"203423745['attack', (2, 7)]"
p2226
I-40
sS"284164096['suicide']"
p2227
F-51.79201
sS"149946376['attack', (15, 3)]"
p2228
I-10
sS"74448912['attack', (7, 3)]"
p2229
I-20
sS"581959680['move', (12, 17)]"
p2230
I-140
sS"451936256['attack', (14, 13)]"
p2231
I-50
sS"244318208['suicide']"
p2232
F-113.098625
sS"1427111936['attack', (17, 9)]"
p2233
I-10
sS"472907780['move', (3, 15)]"
p2234
F-33.0
sS"517996546['attack', (13, 15)]"
p2235
I-30
sS"149946369['suicide']"
p2236
F-127.46232942573386
sS"73400320['attack', (7, 2)]"
p2237
I-60
sS"408944640['suicide']"
p2238
I-50
sS"483393536['attack', (12, 14)]"
p2239
I-40
sS"75497536['move', (8, 1)]"
p2240
F3.2905294391318817e+68
sS"139460608['attack', (5, 3)]"
p2241
I-30
sS"103809060['attack', (4, 3)]"
p2242
I-10
sS"385875968['attack', (17, 11)]"
p2243
I-40
sS"416284672['attack', (14, 12)]"
p2244
I-10
sS"286261256['move', (18, 8)]"
p2245
I-20
sS"441450624['move', (4, 13)]"
p2246
I990
sS"45088896['attack', (11, 2)]"
p2247
I-20
sS"75497476['attack', (9, 2)]"
p2248
I-10
sS"251658304['suicide']"
p2249
F-344.1402443282807
sS"507510792['attack', (4, 16)]"
p2250
I-30
sS"238026752['attack', (2, 7)]"
p2251
I-30
sS"440402080['move', (4, 14)]"
p2252
F-11.0
sS"319815872['attack', (18, 9)]"
p2253
I-10
sS"484442112['move', (14, 15)]"
p2254
F-234.1392382838243
sS"235929604['attack', (0, 7)]"
p2255
I-20
sS"286261252['move', (17, 9)]"
p2256
F-21.803339681925905
sS"114294792['attack', (13, 4)]"
p2257
I-10
sS"451936256['suicide']"
p2258
F-119.71252417741111
sS"507510792['attack', (3, 15)]"
p2259
F-14.3
sS"41943170['guard']"
p2260
F5.741010103390844e+66
sS"72351744['attack', (4, 2)]"
p2261
I-50
sS"251658241['attack', (17, 7)]"
p2262
I-10
sS"203423744['attack', (1, 6)]"
p2263
I-140
sS"353370136['attack', (18, 10)]"
p2264
I-10
sS"370147329['suicide']"
p2265
I-30
sS"74448928['attack', (8, 2)]"
p2266
I-30
sS"42991618['suicide']"
p2267
F-292.4903511170049
sS"581959681['attack', (10, 17)]"
p2268
I-10
sS"139460624['attack', (6, 4)]"
p2269
I-10
sS"216006656['attack', (13, 6)]"
p2270
I-40
sS"79691776['move', (12, 1)]"
p2271
I-130
sS"406847488['attack', (3, 12)]"
p2272
I-10
sS"73400360['guard']"
p2273
I-10
sS"286261252['move', (18, 8)]"
p2274
I-10
sS"41943104['guard']"
p2275
F-23.0
sS"508559360['attack', (6, 15)]"
p2276
I-110
sS"269484112['suicide']"
p2277
I-50
sS"174063616['attack', (6, 6)]"
p2278
I-10
sS"249561088['attack', (13, 7)]"
p2279
I-50
sS"579862528['attack', (9, 18)]"
p2280
I-90
sS"214958080['suicide']"
p2281
F-240.40762498283902
sS"519045248['attack', (15, 16)]"
p2282
I-10
sS"419430404['guard']"
p2283
F-586.8720215042932
sS"44040192['move', (9, 1)]"
p2284
F1.753024571065425e+73
sS"514850820['attack', (10, 15)]"
p2285
I-10
sS"549453824['move', (12, 17)]"
p2286
I-150
sS"442499072['attack', (6, 14)]"
p2287
I-30
sS"544210944['suicide']"
p2288
F-51.0
sS"1460666368['attack', (17, 12)]"
p2289
I-10
sS"75497473['attack', (9, 2)]"
p2290
I-40
sS"546308128['attack', (8, 16)]"
p2291
I-10
sS"250609684['move', (15, 8)]"
p2292
I-10
sS"104857602['move', (4, 2)]"
p2293
I-20
sS"472907776['attack', (2, 14)]"
p2294
I-130
sS"1118830600['move', (10, 1)]"
p2295
I-10
sS"74448896['attack', (7, 1)]"
p2296
I-80
sS"137363457['guard']"
p2297
F5.315156677794342e+60
sS"1360003072['attack', (17, 9)]"
p2298
I-10
sS"252706880['move', (16, 7)]"
p2299
F-15.0
sS"235929600['move', (0, 7)]"
p2300
I-160
sS"448790528['attack', (12, 12)]"
p2301
I-30
sS"169869348['move', (1, 5)]"
p2302
I-20
sS"106954784['attack', (6, 4)]"
p2303
I-10
sS"580911136['move', (10, 18)]"
p2304
I-40
sS"105906177['attack', (6, 3)]"
p2305
I-10
sS"507510785['guard']"
p2306
I-20
sS"548405252['suicide']"
p2307
F1.121571414154496e+57
sS"184549384['move', (17, 5)]"
p2308
I-10
sS"370147329['guard']"
p2309
F2.6787749629749773e+72
sS"252706880['move', (17, 8)]"
p2310
F-13.31
sS"580911114['guard']"
p2311
F-60.720000000000006
sS"42991620['move', (9, 0)]"
p2312
I-10
sS"438304768['attack', (2, 14)]"
p2313
I-20
sS"41943072['attack', (7, 1)]"
p2314
I-30
sS"74448896['attack', (7, 3)]"
p2315
I-80
sS"485490696['guard']"
p2316
F-77.46071381294247
sS"204472320['move', (2, 6)]"
p2317
F-17.182000000000002
sS"41943168['move', (8, 0)]"
p2318
I-10
sS"115343362['suicide']"
p2319
F-31.1
sS"252706816['move', (17, 8)]"
p2320
F-180.64262592303996
sS"506462210['move', (3, 16)]"
p2321
I-10
sS"303038528['move', (0, 9)]"
p2322
I-40
sS"45088960['move', (11, 0)]"
p2323
I-10
sS"383778816['suicide']"
p2324
F-68.516191
sS"353370128['attack', (17, 9)]"
p2325
I-40
sS"272629760['attack', (4, 9)]"
p2326
I-30
sS"109051936['suicide']"
p2327
F19.839039887914737
sS"386924560['guard']"
p2328
F1.8674570597205323e+65
sS"485490752['attack', (16, 14)]"
p2329
I-40
sS"104857600['attack', (4, 4)]"
p2330
I-110
sS"383778816['attack', (14, 10)]"
p2331
I-10
sS"579862528['guard']"
p2332
F-3537.9056738950544
sS"143654912['attack', (8, 4)]"
p2333
I-20
sS"542113792['attack', (4, 16)]"
p2334
I-160
sS"484442112['suicide']"
p2335
F-246.504247845475
sS"41943080['attack', (8, 2)]"
p2336
I-20
sS"170917888['suicide']"
p2337
F-147.48808696594216
sS"577765378['guard']"
p2338
F6.597765567512815e+71
sS"353370113['attack', (16, 10)]"
p2339
I-30
sS"78643200['attack', (11, 1)]"
p2340
I-40
sS"519045136['guard']"
p2341
F6.235844323875546e+57
sS"41943136['guard']"
p2342
F-82.4568
sS"439353472['suicide']"
p2343
F-108.96317056062408
sS"72351746['attack', (4, 2)]"
p2344
I-10
sS"303038528['suicide']"
p2345
F-81.612749401
sS"349175810['attack', (13, 11)]"
p2346
I-10
sS"104857602['suicide']"
p2347
F955.8504115599862
sS"269484033['suicide']"
p2348
F3.868960360896092e+37
sS"404750400['attack', (2, 11)]"
p2349
I-10
sS"404750432['attack', (2, 11)]"
p2350
I-10
sS"373293056['move', (3, 11)]"
p2351
F-34.37206291
sS"414187520['attack', (10, 12)]"
p2352
I-10
sS"579862544['attack', (8, 17)]"
p2353
I-10
sS"115343362['move', (15, 3)]"
p2354
F-8578.580241510641
sS"303038480['attack', (1, 8)]"
p2355
I-20
sS"472907780['attack', (4, 14)]"
p2356
I-20
sS"353370116['move', (18, 10)]"
p2357
I-60
sS"579862538['guard']"
p2358
F-11.0
sS"170917904['attack', (4, 5)]"
p2359
I-20
sS"44040200['move', (10, 0)]"
p2360
I-40
sS"184549380['suicide']"
p2361
F-195.553476684347
sS"507510792['guard']"
p2362
F-194.6834
sS"174063616['attack', (7, 5)]"
p2363
I-10
sS"72351746['move', (4, 2)]"
p2364
I-10
sS"184549388['move', (16, 4)]"
p2365
I-10
sS"451936256['attack', (15, 14)]"
p2366
I-50
sS"578813984['attack', (7, 17)]"
p2367
I-20
sS"419430404['suicide']"
p2368
F-1677.808455554039
sS"317718592['attack', (14, 9)]"
p2369
I-10
sS"303038469['guard']"
p2370
F-34.1
sS"417333248['guard']"
p2371
F-1831.910425643303
sS"485490752['guard']"
p2372
F1.2550107878619253e+56
sS"580911232['attack', (11, 17)]"
p2373
I-10
sS"78643202['move', (12, 2)]"
p2374
I-10
sS"519045128['guard']"
p2375
F2.9261788516364106e+65
sS"473956352['attack', (3, 14)]"
p2376
I-70
sS"305135616['attack', (3, 10)]"
p2377
I-20
sS"580911136['suicide']"
p2378
F-44.68191825833108
sS"183500816['suicide']"
p2379
F-176.50243640309793
sS"80740480['attack', (12, 2)]"
p2380
I-30
sS"250609664['attack', (14, 7)]"
p2381
I-30
sS"45088896['guard']"
p2382
F1.0504773667799432e+55
sS"1343225856['attack', (1, 7)]"
p2383
I-10
sS"218103809['move', (16, 5)]"
p2384
F-48.07403460100001
sS"170918018['attack', (3, 6)]"
p2385
I-10
sS"108003329['attack', (7, 4)]"
p2386
I-10
sS"472907840['attack', (3, 15)]"
p2387
I-60
sS"113246336['attack', (11, 3)]"
p2388
I-10
sS"370147344['guard']"
p2389
F1.1176719778114054e+59
sS"336592912['move', (0, 10)]"
p2390
I-10
sS"203423745['guard']"
p2391
F3.929225028943556e+59
sS"517996560['guard']"
p2392
F-41.830655272099996
sS"319815684['attack', (17, 10)]"
p2393
F-18.232862941904806
sS"41943040['move', (8, 2)]"
p2394
F4.761146245465395e+74
sS"473956368['attack', (4, 15)]"
p2395
I-10
sS"1592786953['move', (15, 14)]"
p2396
I-10
sS"40894496['move', (8, 1)]"
p2397
F-31.71799723633439
sS"546308096['guard']"
p2398
F8.45648010056063e+87
sS"145752064['attack', (10, 4)]"
p2399
I-10
sS"316669952['attack', (14, 8)]"
p2400
I-10
sS"303038464['move', (0, 9)]"
p2401
I-180
sS"337641488['move', (2, 9)]"
p2402
I-10
sS"544211072['attack', (7, 17)]"
p2403
I-10
sS"1223688192['suicide']"
p2404
F4.527415620338196e+62
sS"351272960['attack', (15, 9)]"
p2405
I-20
sS"442499072['suicide']"
p2406
I-50
sS"353370241['suicide']"
p2407
F-31.7951
sS"139460608['attack', (6, 4)]"
p2408
I-20
sS"371195904['move', (2, 12)]"
p2409
I-20
sS"543162376['attack', (6, 17)]"
p2410
I-20
sS"477102080['attack', (7, 13)]"
p2411
I-30
sS"40894464['attack', (6, 1)]"
p2412
I-140
sS"406847496['suicide']"
p2413
F-156.05901322598686
sS"41943042['guard']"
p2414
F-172.168661
sS"542113792['suicide']"
p2415
F-209.08751271063682
sS"169869348['guard']"
p2416
F-89.3871
sS"318767104['attack', (15, 9)]"
p2417
I-40
sS"104857608['move', (4, 2)]"
p2418
I-40
sS"76546176['suicide']"
p2419
F-66.0437449882898
sS"579862528['attack', (9, 16)]"
p2420
I-90
sS"319815684['attack', (18, 9)]"
p2421
I-10
sS"175112192['attack', (7, 4)]"
p2422
I-30
sS"507510792['move', (3, 15)]"
p2423
F-46.7894
sS"350224388['suicide']"
p2424
I-30
sS"578813960['attack', (8, 18)]"
p2425
I-10
sS"548405250['move', (12, 16)]"
p2426
I-20
sS"353370112['move', (17, 9)]"
p2427
F1.2630744898518537e+74
sS"370147328['attack', (1, 12)]"
p2428
I-60
sS"543162368['guard']"
p2429
F5.729365870998535e+72
sS"72351746['move', (5, 1)]"
p2430
I-10
sS"218103824['attack', (17, 6)]"
p2431
I-20
sS"515899392['suicide']"
p2432
F-184.27866950807805
sS"146800640['attack', (13, 4)]"
p2433
I-10
sS"519045128['attack', (16, 15)]"
p2434
I-20
sS"315621376['suicide']"
p2435
I-50
sS"103809088['attack', (3, 4)]"
p2436
I-40
sS"284164096['attack', (16, 8)]"
p2437
I-20
sS"579862656['guard']"
p2438
F-1432.3716780260263
sS"239075328['attack', (3, 7)]"
p2439
I-20
sS"419430464['move', (16, 13)]"
p2440
I-10
sS"506462224['attack', (3, 14)]"
p2441
I-20
sS"507510784['attack', (3, 15)]"
p2442
I-150
sS"353370132['attack', (18, 10)]"
p2443
I-10
sS"319815688['guard']"
p2444
F-174.79969006846198
sS"40894496['suicide']"
p2445
I-50
sS"438304800['suicide']"
p2446
F-66.7719081
sS"170917888['attack', (4, 5)]"
p2447
I-100
sS"216006656['suicide']"
p2448
F-689.8204996765926
sS"353370112['suicide']"
p2449
F-1305.053241846801
sS"143655040['attack', (8, 4)]"
p2450
I-10
sS"578813968['move', (8, 16)]"
p2451
I-10
sS"472907778['move', (3, 15)]"
p2452
F-62.159090448414545
sS"542113792['attack', (5, 17)]"
p2453
I-160
sS"41943136['suicide']"
p2454
F4.480205942473228e+56
sS"73400320['attack', (6, 3)]"
p2455
I-60
sS"104857608['move', (3, 3)]"
p2456
F-56.9983
sS"137363456['move', (2, 4)]"
p2457
I-30
sS"577765392['attack', (6, 17)]"
p2458
I-20
sS"252706816['guard']"
p2459
F2.1859022415530916e+75
sS"74448897['attack', (6, 2)]"
p2460
I-20
sS"41943072['attack', (9, 1)]"
p2461
I-30
sS"485490688['suicide']"
p2462
F-508.7907437592843
sS"110100480['attack', (9, 2)]"
p2463
I-30
sS"137363461['attack', (4, 4)]"
p2464
I-10
sS"44040192['guard']"
p2465
F-3434.0466489470023
sS"41943048['attack', (8, 2)]"
p2466
I-10
sS"546308096['attack', (8, 16)]"
p2467
I-60
sS"137363488['attack', (2, 4)]"
p2468
I-10
sS"109051904['attack', (8, 2)]"
p2469
I-30
sS"370147344['attack', (0, 11)]"
p2470
I-10
sS"546308100['attack', (9, 15)]"
p2471
I-10
sS"44040200['attack', (11, 1)]"
p2472
I-40
sS"548405376['attack', (10, 16)]"
p2473
I-20
sS"473956352['move', (4, 15)]"
p2474
F-199.492236461125
sS"1427111936['move', (18, 10)]"
p2475
I-20
sS"406847488['attack', (4, 11)]"
p2476
I-20
sS"353370113['suicide']"
p2477
I-30
sS"44040194['attack', (10, 0)]"
p2478
I-70
sS"250609664['attack', (16, 7)]"
p2479
I-30
sS"250609664['attack', (15, 6)]"
p2480
I-20
sS"579862528['suicide']"
p2481
F-102.6
sS"76546176['attack', (9, 1)]"
p2482
I-10
sS"578813952['move', (8, 18)]"
p2483
I-120
sS"336592912['guard']"
p2484
F9.28562353353382e+59
sS"513802240['attack', (10, 14)]"
p2485
I-40
sS"42991680['guard']"
p2486
F1.0075661233132077e+38
sS"42991616['suicide']"
p2487
I-100
sS"218103936['attack', (17, 6)]"
p2488
I-10
sS"441450500['attack', (5, 12)]"
p2489
I-10
sS"579862528['attack', (10, 17)]"
p2490
I-90
sS"80740480['move', (14, 2)]"
p2491
I-40
sS"404750401['guard']"
p2492
F-15.73
sS"286261248['attack', (17, 9)]"
p2493
I-70
sS"519045129['move', (14, 15)]"
p2494
F2532603.2964190003
sS"419430404['attack', (15, 12)]"
p2495
I-60
sS"506462226['guard']"
p2496
F-45.87387450100644
sS"141557760['attack', (7, 5)]"
p2497
I-60
sS"303038468['suicide']"
p2498
I-30
sS"184549440['attack', (15, 5)]"
p2499
I-20
sS"75497472['attack', (7, 2)]"
p2500
I-70
sS"218103808['attack', (16, 7)]"
p2501
I-100
sS"114294784['attack', (13, 4)]"
p2502
I-70
sS"548405248['move', (11, 17)]"
p2503
F-10124.77638276865
sS"542113792['move', (6, 16)]"
p2504
F-363.1583689173071
sS"305135616['attack', (3, 8)]"
p2505
I-30
sS"116391944['suicide']"
p2506
I-30
sS"115343360['move', (14, 2)]"
p2507
I-110
sS"73400332['move', (6, 1)]"
p2508
I-10
sS"578813984['guard']"
p2509
F3.163816071277993e+59
sS"276824064['attack', (8, 9)]"
p2510
I-10
sS"218103809['suicide']"
p2511
F2.434130544327546e+71
sS"303038528['guard']"
p2512
F4.474584158691139e+61
sS"75497520['move', (8, 1)]"
p2513
I-10
sS"353370176['attack', (17, 9)]"
p2514
I-40
sS"306184192['suicide']"
p2515
F-641.4077594363188
sS"440401920['attack', (5, 13)]"
p2516
I-40
sS"286261312['attack', (17, 9)]"
p2517
I-20
sS"418381826['move', (16, 12)]"
p2518
F-21.345412398289582
sS"41943136['move', (9, 1)]"
p2519
F-13.31
sS"204472448['suicide']"
p2520
F-73.18485613749999
sS"116391936['attack', (16, 3)]"
p2521
I-70
sS"75497473['attack', (8, 3)]"
p2522
I-40
sS"543162400['guard']"
p2523
I-20
sS"149946368['attack', (16, 4)]"
p2524
I-30
sS"517996576['move', (15, 15)]"
p2525
F-43.11
sS"303038469['move', (1, 10)]"
p2526
F-21.1
sS"204472448['attack', (4, 6)]"
p2527
I-10
sS"519045136['attack', (14, 15)]"
p2528
I-10
sS"182452224['attack', (14, 6)]"
p2529
I-60
sS"183500800['attack', (15, 4)]"
p2530
I-90
sS"404750340['attack', (1, 12)]"
p2531
I-20
sS"579862560['attack', (10, 17)]"
p2532
I-20
sS"149946369['guard']"
p2533
F-1530.8061103453315
sS"318767105['suicide']"
p2534
F-31.612000000000002
sS"543162496['attack', (6, 17)]"
p2535
I-20
sS"271581184['attack', (4, 8)]"
p2536
I-40
sS"578813992['guard']"
p2537
I-10
sS"74448914['suicide']"
p2538
F-33.379201
sS"336592896['attack', (2, 10)]"
p2539
I-40
sS"349175808['attack', (12, 10)]"
p2540
I-10
sS"374341632['attack', (5, 12)]"
p2541
I-10
sS"270532616['attack', (2, 7)]"
p2542
I-20
sS"184549504['suicide']"
p2543
F2.6719096954273146e+61
sS"353370120['move', (17, 9)]"
p2544
I-10
sS"352321536['attack', (16, 9)]"
p2545
I-90
sS"579862568['attack', (9, 18)]"
p2546
I-10
sS"577765377['move', (7, 16)]"
p2547
F-46.64385727535529
sS"77594624['attack', (11, 2)]"
p2548
I-80
sS"351272960['attack', (14, 10)]"
p2549
I-20
sS"184549380['move', (17, 5)]"
p2550
I-10
sS"581959680['move', (11, 18)]"
p2551
I-150
sS"75497488['attack', (9, 2)]"
p2552
I-30
sS"1360003072['guard']"
p2553
F-26.0
sS"1376780288['attack', (1, 8)]"
p2554
I-30
sS"353370116['attack', (16, 10)]"
p2555
I-60
sS"169869312['move', (2, 4)]"
p2556
I-160
sS"1182793744['attack', (9, 3)]"
p2557
I-10
sS"137363488['guard']"
p2558
F8.948553871790617e+60
sS"79691776['attack', (12, 3)]"
p2559
I-120
sS"451936256['attack', (15, 12)]"
p2560
I-50
sS"352321552['suicide']"
p2561
F-261.68851073130975
sS"578813992['move', (7, 17)]"
p2562
F9.692223690491366e+33
sS"319815684['move', (18, 9)]"
p2563
I-20
sS"79691776['guard']"
p2564
F-6670.918949110738
sS"506462208['move', (3, 16)]"
p2565
I-130
sS"485490692['guard']"
p2566
F2.047606023177976e+59
sS"1309671424['suicide']"
p2567
F5.344258010583312e+56
sS"479199232['guard']"
p2568
F2.321929140677059e+53
sS"412090368['attack', (9, 11)]"
p2569
I-10
sS"148897824['attack', (14, 3)]"
p2570
I-10
sS"581959808['attack', (12, 17)]"
p2571
I-10
sS"75497600['attack', (9, 2)]"
p2572
I-30
sS"336592896['attack', (0, 10)]"
p2573
I-40
sS"247463936['suicide']"
p2574
I-50
sS"217055248['attack', (15, 7)]"
p2575
I-10
sS"303038528['attack', (1, 8)]"
p2576
I-20
sS"508559425['suicide']"
p2577
I-30
sS"115343362['attack', (13, 3)]"
p2578
I-40
sS"169869312['attack', (3, 5)]"
p2579
I-160
sS"404750337['suicide']"
p2580
I-30
sS"74448920['attack', (7, 3)]"
p2581
I-10
sS"218104000['move', (17, 6)]"
p2582
I-10
sS"303038464['move', (1, 8)]"
p2583
F7.935005507730447e+74
sS"404750402['attack', (2, 11)]"
p2584
I-20
sS"44040194['move', (11, 1)]"
p2585
F-110.60066405722839
sS"41943040['attack', (8, 2)]"
p2586
I-100
sS"319815696['guard']"
p2587
F-100.29457691
sS"184549376['move', (15, 5)]"
p2588
F4.733919379300887e+72
sS"336592976['suicide']"
p2589
F5.362340340254613e+59
sS"74448929['attack', (6, 2)]"
p2590
I-20
sS"303038484['guard']"
p2591
F-13.0
sS"74448898['suicide']"
p2592
F7.311955640506124e+62
sS"548405312['attack', (12, 16)]"
p2593
I-10
sS"41943044['attack', (7, 1)]"
p2594
I-10
sS"543162496['attack', (6, 15)]"
p2595
I-10
sS"41943040['guard']"
p2596
F-5283.899575135028
sS"41943040['attack', (8, 0)]"
p2597
I-100
sS"577765424['move', (6, 17)]"
p2598
I-10
sS"75497536['attack', (8, 3)]"
p2599
I-10
sS"285212672['attack', (16, 9)]"
p2600
I-30
sS"306184192['attack', (3, 9)]"
p2601
I-20
sS"472907808['attack', (3, 15)]"
p2602
I-10
sS"138412032['attack', (4, 3)]"
p2603
I-70
sS"77594624['attack', (10, 3)]"
p2604
I-80
sS"438304769['guard']"
p2605
F2.427652417085962e+70
sS"512753664['attack', (8, 15)]"
p2606
I-30
sS"269484034['guard']"
p2607
F-113.41844664238664
sS"169869312['move', (1, 5)]"
p2608
I-160
sS"104857728['guard']"
p2609
F-93.15100000000001
sS"217055232['attack', (14, 6)]"
p2610
I-20
sS"218103812['move', (17, 6)]"
p2611
I-10
sS"578813954['attack', (7, 17)]"
p2612
I-30
sS"42991616['move', (9, 0)]"
p2613
I-60
sS"108003329['attack', (8, 3)]"
p2614
I-10
sS"484442176['suicide']"
p2615
I-50
sS"75497504['attack', (7, 2)]"
p2616
I-20
sS"472907777['guard']"
p2617
F-112.54636834685982
sS"517996544['move', (14, 16)]"
p2618
I-110
sS"41943136['attack', (9, 1)]"
p2619
I-20
sS"319815680['move', (18, 9)]"
p2620
I-50
sS"183500864['attack', (16, 5)]"
p2621
I-10
sS"352321600['attack', (16, 9)]"
p2622
I-10
sS"546308128['attack', (9, 17)]"
p2623
I-10
sS"286261264['move', (17, 7)]"
p2624
F-26.310000000000002
sS"285212704['attack', (17, 8)]"
p2625
I-10
sS"203423744['move', (2, 7)]"
p2626
F-20103.9886799416
sS"74448897['attack', (8, 2)]"
p2627
I-20
sS"316669952['attack', (15, 9)]"
p2628
I-10
sS"519045120['move', (15, 16)]"
p2629
I-80
sS"353370128['attack', (18, 10)]"
p2630
I-40
sS"336592900['attack', (0, 10)]"
p2631
I-40
sS"506462208['guard']"
p2632
F-42497.51145392302
sS"517996544['attack', (14, 16)]"
p2633
I-100
sS"318767106['attack', (16, 10)]"
p2634
I-10
sS"577765377['attack', (8, 17)]"
p2635
I-20
sS"407896064['attack', (4, 12)]"
p2636
I-10
sS"79691812['move', (13, 2)]"
p2637
I-20
sS"103809088['move', (2, 3)]"
p2638
I-30
sS"384827392['attack', (15, 12)]"
p2639
I-30
sS"549453856['attack', (13, 16)]"
p2640
I-10
sS"40894466['guard']"
p2641
F1.9577328679076075e+68
sS"351272964['attack', (15, 9)]"
p2642
I-10
sS"440401920['attack', (4, 14)]"
p2643
I-30
sS"170917888['attack', (2, 5)]"
p2644
I-100
sS"104857632['guard']"
p2645
F-1352.5611390767504
sS"40894466['attack', (7, 2)]"
p2646
I-10
sS"79691778['guard']"
p2647
F9.85254456230106e+65
sS"546308096['attack', (9, 17)]"
p2648
I-60
sS"404750340['suicide']"
p2649
F9.553795572802625e+63
sS"417333248['attack', (14, 11)]"
p2650
I-30
sS"545259520['move', (8, 17)]"
p2651
F-1011.11
sS"543162368['attack', (6, 15)]"
p2652
I-40
sS"137363456['attack', (3, 5)]"
p2653
I-20
sS"238026752['attack', (3, 8)]"
p2654
I-20
sS"1258291200['attack', (16, 4)]"
p2655
I-10
sS"40894466['move', (6, 1)]"
p2656
I-20
sS"177209344['attack', (8, 5)]"
p2657
I-10
sS"74448904['attack', (7, 3)]"
p2658
I-20
sS"103809024['guard']"
p2659
F6.619548157931528e+70
sS"485490688['move', (15, 15)]"
p2660
F2.183824503012345e+74
sS"169869378['attack', (1, 5)]"
p2661
I-20
sS"516947968['attack', (14, 15)]"
p2662
I-30
sS"44040192['attack', (9, 1)]"
p2663
I-120
sS"439353348['attack', (2, 13)]"
p2664
I-10
sS"76546049['suicide']"
p2665
F2.6682538115465725e+35
sS"543162368['attack', (7, 16)]"
p2666
I-40
sS"547356672['attack', (10, 15)]"
p2667
I-40
sS"519045120['suicide']"
p2668
F-103.1
sS"319815688['suicide']"
p2669
I-30
sS"106954752['suicide']"
p2670
F-93.35534906061481
sS"116392000['suicide']"
p2671
F5.115776105090777e+70
sS"270532616['move', (1, 8)]"
p2672
F-13.2
sS"149946432['guard']"
p2673
I-10
sS"169869348['attack', (3, 5)]"
p2674
I-20
sS"1623195648['attack', (12, 15)]"
p2675
I-10
sS"579862530['guard']"
p2676
F6.95497981461593e+31
sS"269484032['move', (0, 8)]"
p2677
I-110
sS"353370176['move', (18, 10)]"
p2678
I-40
sS"550502400['attack', (12, 16)]"
p2679
I-100
sS"1376780288['move', (0, 9)]"
p2680
I-10
sS"236978184['move', (1, 7)]"
p2681
I-20
sS"385875970['attack', (16, 12)]"
p2682
I-10
sS"42991808['guard']"
p2683
I-20
sS"76546050['move', (9, 1)]"
p2684
F-13.14641
sS"80740484['attack', (14, 2)]"
p2685
I-10
sS"337641600['attack', (2, 9)]"
p2686
I-20
sS"472907808['attack', (2, 14)]"
p2687
I-10
sS"141557760['attack', (6, 4)]"
p2688
I-60
sS"336592960['attack', (0, 10)]"
p2689
I-20
sS"137363520['attack', (4, 4)]"
p2690
I-30
sS"579862529['guard']"
p2691
F6.757939222279983e+81
sS"516947972['move', (13, 16)]"
p2692
I-10
sS"543162368['suicide']"
p2693
F-58.303
sS"580911106['move', (11, 17)]"
p2694
I-30
sS"74448928['suicide']"
p2695
F-88.9740243411
sS"72351748['move', (5, 1)]"
p2696
I-10
sS"479199232['attack', (9, 15)]"
p2697
I-10
sS"79691808['attack', (13, 2)]"
p2698
I-30
sS"319815680['attack', (17, 8)]"
p2699
I-40
sS"319815680['guard']"
p2700
F1.7724084038813583e+75
sS"146800640['suicide']"
p2701
I-50
sS"252706880['attack', (16, 7)]"
p2702
I-20
sS"386924544['guard']"
p2703
F-572.142962802368
sS"1343225856['guard']"
p2704
I-10
sS"41943174['move', (9, 1)]"
p2705
F-11.0
sS"75497488['suicide']"
p2706
F-52.0
sS"546308240['attack', (8, 16)]"
p2707
I-20
sS"485490752['move', (15, 15)]"
p2708
F-55.7414519
sS"450887808['suicide']"
p2709
F-57.6121012087
sS"549453826['attack', (11, 16)]"
p2710
I-40
sS"285212704['attack', (15, 8)]"
p2711
I-10
sS"137363472['guard']"
p2712
F5.524897435015797e+69
sS"286261380['guard']"
p2713
F-24.0
sS"108003456['attack', (8, 3)]"
p2714
I-10
sS"546308160['attack', (9, 17)]"
p2715
I-20
sS"452984976['attack', (16, 14)]"
p2716
I-30
sS"385875984['move', (16, 10)]"
p2717
I-10
sS"1427111936['guard']"
p2718
F6.846370452575445e+67
sS"550502400['move', (12, 16)]"
p2719
F1.6127053366839416e+73
sS"238026752['attack', (4, 7)]"
p2720
I-30
sS"251658248['suicide']"
p2721
F-88.1069515406871
sS"75497632['attack', (8, 1)]"
p2722
I-10
sS"73400328['move', (7, 2)]"
p2723
F-40.830655272099996
sS"482344960['attack', (11, 14)]"
p2724
I-60
sS"1393557568['attack', (17, 10)]"
p2725
I-10
sS"213909504['attack', (12, 5)]"
p2726
I-10
sS"303038468['attack', (1, 8)]"
p2727
I-20
sS"579862560['move', (9, 18)]"
p2728
I-30
sS"41943168['attack', (9, 1)]"
p2729
I-10
sS"149946384['guard']"
p2730
F2.186159276411865e+68
sS"440401920['move', (3, 13)]"
p2731
F5.128116553421572e+27
sS"547356688['suicide']"
p2732
F-57.1051
sS"270532608['suicide']"
p2733
F3.1329819874524524e+18
sS"169869348['attack', (1, 5)]"
p2734
I-20
sS"578813952['move', (9, 17)]"
p2735
F-265.0861429043786
sS"506462210['attack', (3, 16)]"
p2736
I-10
sS"138412033['attack', (5, 4)]"
p2737
I-10
sS"477102080['attack', (8, 14)]"
p2738
I-30
sS"108003456['attack', (7, 4)]"
p2739
I-10
sS"304087040['move', (1, 9)]"
p2740
F4.726996045071295e+16
sS"40894468['suicide']"
p2741
F132096821427.24707
sS"137363456['guard']"
p2742
F-211.91417061099997
sS"44040194['attack', (11, 1)]"
p2743
F7.123031518741473e+64
sS"336592928['guard']"
p2744
F2.9855126215469837e+30
sS"1182793728['attack', (7, 3)]"
p2745
I-20
sS"104857600['attack', (5, 3)]"
p2746
I-110
sS"476053504['suicide']"
p2747
F-167.43547453342572
sS"338690048['attack', (3, 11)]"
p2748
I-20
sS"577765378['attack', (7, 18)]"
p2749
I-30
sS"44040202['attack', (10, 2)]"
p2750
I-30
sS"482344960['attack', (12, 15)]"
p2751
I-60
sS"438304784['move', (2, 14)]"
p2752
I-30
sS"235929604['guard']"
p2753
F3.836292981790064e+73
sS"371195904['attack', (3, 11)]"
p2754
I-10
sS"546308100['suicide']"
p2755
F1.9297121814793937e+68
sS"74449056['attack', (8, 2)]"
p2756
I-10
sS"109051968['attack', (9, 3)]"
p2757
I-10
sS"203423744['attack', (3, 6)]"
p2758
I-130
sS"108003328['attack', (8, 3)]"
p2759
I-80
sS"73400448['suicide']"
p2760
F1.741999627562826e+68
sS"286261248['move', (17, 7)]"
p2761
F-82720.3092657673
s.