(dp0
S"32['move', (12, 3)]"
p1
I-2
sS"0['attack', (13, 13)]"
p2
I-2
sS"0['move', (4, 15)]"
p3
I-4
sS"128['attack', (9, 16)]"
p4
I-1
sS"4['attack', (10, 0)]"
p5
I-1
sS"0['move', (8, 0)]"
p6
I-1
sS"0['attack', (7, 7)]"
p7
I-2
sS"2['move', (8, 0)]"
p8
I-1
sS"0['attack', (8, 8)]"
p9
I-4
sS"0['move', (15, 5)]"
p10
I-3
sS"16['move', (10, 5)]"
p11
I-1
sS"32['move', (14, 3)]"
p12
I-1
sS"0['move', (15, 10)]"
p13
I-3
sS"16['move', (7, 9)]"
p14
I-1
sS"2['move', (7, 2)]"
p15
I-1
sS"0['attack', (10, 2)]"
p16
I-3
sS"0['move', (11, 14)]"
p17
I-2
sS"72['move', (11, 1)]"
p18
I-1
sS"0['attack', (13, 10)]"
p19
I-2
sS"1['attack', (4, 16)]"
p20
I-1
sS"0['move', (6, 17)]"
p21
I-2
sS"0['attack', (17, 12)]"
p22
I-2
sS"1['attack', (11, 13)]"
p23
I-1
sS"0['move', (16, 6)]"
p24
I-3
sS"0['attack', (15, 13)]"
p25
I-1
sS"0['move', (14, 4)]"
p26
I-2
sS"0['attack', (16, 14)]"
p27
I-2
sS"8['attack', (3, 11)]"
p28
I-1
sS"0['attack', (1, 12)]"
p29
I-2
sS"0['move', (13, 11)]"
p30
I-2
sS"0['move', (11, 3)]"
p31
I-4
sS"0['move', (4, 3)]"
p32
I-1
sS"0['move', (7, 15)]"
p33
I-2
sS"0['move', (11, 4)]"
p34
I-3
sS"0['move', (9, 15)]"
p35
I-2
sS"0['move', (17, 9)]"
p36
I-2
sS"0['move', (10, 2)]"
p37
I-3
sS"0['move', (16, 9)]"
p38
I-3
sS"0['move', (18, 11)]"
p39
I-2
sS"0['attack', (11, 15)]"
p40
I-3
sS"0['attack', (11, 16)]"
p41
I-2
sS"5['move', (4, 15)]"
p42
I-1
sS"0['move', (16, 14)]"
p43
I-2
sS"1['attack', (15, 5)]"
p44
I-1
sS"0['move', (3, 15)]"
p45
I-2
sS"0['attack', (14, 13)]"
p46
I-1
sS"0['move', (3, 12)]"
p47
I-3
sS"16['move', (16, 12)]"
p48
I-2
sS"0['move', (8, 8)]"
p49
I-2
sS"0['move', (7, 18)]"
p50
I-2
sS"0['attack', (9, 18)]"
p51
I-2
sS"0['attack', (18, 10)]"
p52
I-2
sS"0['move', (14, 14)]"
p53
I-2
sS"8['move', (14, 2)]"
p54
I-1
sS"0['move', (8, 3)]"
p55
I-1
sS"0['attack', (12, 2)]"
p56
I-3
sS"2['move', (5, 15)]"
p57
I-1
sS"0['attack', (9, 10)]"
p58
I-2
sS"0['move', (4, 8)]"
p59
I-2
sS"0['move', (16, 3)]"
p60
I-2
sS"0['move', (5, 15)]"
p61
I-2
sS"0['attack', (8, 0)]"
p62
I-2
sS"0['attack', (15, 16)]"
p63
I-2
sS"0['attack', (7, 8)]"
p64
I-3
sS"0['attack', (14, 10)]"
p65
I-2
sS"0['attack', (8, 3)]"
p66
I-3
sS"0['move', (15, 8)]"
p67
I-1
sS"0['guard']"
p68
I491
sS"64['attack', (17, 12)]"
p69
I-1
sS"8['move', (2, 10)]"
p70
I-1
sS"16['move', (17, 12)]"
p71
I-2
sS"1['move', (12, 14)]"
p72
I-1
sS"4['suicide']"
p73
I0
sS"64['attack', (15, 11)]"
p74
I-1
sS"64['attack', (16, 11)]"
p75
I-1
sS"0['attack', (13, 11)]"
p76
I-2
sS"0['move', (11, 13)]"
p77
I-1
sS"0['attack', (17, 13)]"
p78
I-2
sS"0['attack', (4, 13)]"
p79
I-2
sS"0['move', (4, 6)]"
p80
I-2
sS"0['move', (3, 2)]"
p81
I-4
sS"0['move', (7, 10)]"
p82
I-4
sS"0['move', (2, 13)]"
p83
I-3
sS"0['attack', (12, 16)]"
p84
I-2
sS"0['attack', (16, 8)]"
p85
I-2
sS"0['move', (16, 15)]"
p86
I-2
sS"0['attack', (13, 16)]"
p87
I-3
sS"0['attack', (12, 15)]"
p88
I-3
sS"8['move', (1, 9)]"
p89
I-1
sS"0['move', (16, 8)]"
p90
I-3
sS"0['attack', (1, 5)]"
p91
I-2
sS"0['attack', (17, 10)]"
p92
I-3
sS"0['attack', (14, 12)]"
p93
I-2
sS"0['attack', (11, 17)]"
p94
I-2
sS"4['attack', (5, 15)]"
p95
I-1
sS"0['move', (8, 9)]"
p96
I-5
sS"0['move', (12, 13)]"
p97
I-2
sS"32['move', (4, 7)]"
p98
I-1
sS"0['move', (12, 14)]"
p99
I-2
sS"0['attack', (9, 15)]"
p100
I-2
sS"0['move', (1, 5)]"
p101
I-2
sS"128['attack', (7, 7)]"
p102
I-1
sS"0['attack', (9, 4)]"
p103
I-2
sS"64['attack', (12, 2)]"
p104
I-1
sS"32['attack', (15, 14)]"
p105
I-1
sS"0['attack', (12, 3)]"
p106
I-2
sS"0['attack', (12, 4)]"
p107
I-3
sS"0['move', (3, 7)]"
p108
I-1
sS"4['move', (12, 13)]"
p109
I-1
sS"0['move', (15, 15)]"
p110
I-1
sS"0['move', (7, 16)]"
p111
I-3
sS"0['move', (2, 11)]"
p112
I-2
sS"0['move', (10, 3)]"
p113
I-3
sS"16['move', (14, 3)]"
p114
I-1
sS"16['move', (15, 6)]"
p115
I-1
sS"0['attack', (13, 14)]"
p116
I-3
sS"0['move', (2, 7)]"
p117
I-2
sS"64['attack', (9, 3)]"
p118
I-1
sS"2['attack', (2, 13)]"
p119
I-1
sS"2['attack', (8, 0)]"
p120
I-1
sS"0['move', (15, 13)]"
p121
I-1
sS"64['attack', (16, 10)]"
p122
I-1
sS"0['move', (2, 12)]"
p123
I-3
sS"0['attack', (3, 15)]"
p124
I-2
sS"4['move', (0, 7)]"
p125
I-1
sS"0['attack', (15, 10)]"
p126
I-2
sS"0['attack', (17, 11)]"
p127
I-2
sS"0['attack', (1, 11)]"
p128
I-1
sS"0['attack', (12, 14)]"
p129
I-2
sS"0['attack', (6, 5)]"
p130
I-2
sS"32['attack', (15, 12)]"
p131
I-1
sS"0['attack', (8, 16)]"
p132
I-1
sS"0['move', (14, 12)]"
p133
I-2
sS"0['move', (13, 15)]"
p134
I-3
sS"16['attack', (13, 3)]"
p135
I-1
sS"0['attack', (7, 17)]"
p136
I-2
sS"0['attack', (8, 4)]"
p137
I-2
sS"8['attack', (2, 8)]"
p138
I-1
sS"0['attack', (13, 9)]"
p139
I-2
sS"0['attack', (9, 5)]"
p140
I-2
sS"0['suicide']"
p141
I-4
sS"32['move', (14, 13)]"
p142
I-1
sS"0['move', (2, 8)]"
p143
I-1
sS"0['move', (5, 8)]"
p144
I-3
sS"0['move', (6, 1)]"
p145
I-1
sS"0['move', (8, 4)]"
p146
I-2
sS"1['move', (3, 15)]"
p147
I-1
sS"0['attack', (8, 7)]"
p148
I-3
sS"0['move', (3, 6)]"
p149
I-2
sS"128['move', (17, 13)]"
p150
I-3
sS"0['move', (15, 14)]"
p151
I-1
sS"0['attack', (7, 10)]"
p152
I-3
sS"32['move', (16, 13)]"
p153
I-2
sS"0['move', (16, 10)]"
p154
I-3
sS"0['move', (2, 10)]"
p155
I-2
sS"0['attack', (3, 13)]"
p156
I-3
sS"0['attack', (13, 15)]"
p157
I-2
sS"0['attack', (3, 5)]"
p158
I-2
sS"0['attack', (16, 11)]"
p159
I-2
sS"0['attack', (8, 10)]"
p160
I-2
sS"0['attack', (13, 1)]"
p161
I-2
sS"0['attack', (8, 18)]"
p162
I-1
sS"32['attack', (7, 17)]"
p163
I-1
sS"0['move', (13, 3)]"
p164
I-3
sS"0['move', (13, 1)]"
p165
I-2
sS"0['move', (7, 6)]"
p166
I-2
sS"0['attack', (16, 9)]"
p167
I-2
sS"32['suicide']"
p168
I-1
sS"0['move', (3, 5)]"
p169
I-4
sS"64['attack', (10, 2)]"
p170
I-1
sS"0['move', (10, 15)]"
p171
I-3
sS"0['attack', (13, 12)]"
p172
I-2
sS"20['attack', (12, 3)]"
p173
I-1
sS"64['attack', (16, 12)]"
p174
I-1
sS"20['attack', (13, 2)]"
p175
I-1
sS"0['attack', (12, 11)]"
p176
I-2
sS"64['move', (17, 5)]"
p177
I-1
sS"0['attack', (3, 14)]"
p178
I-3
sS"0['attack', (14, 4)]"
p179
I-1
sS"2['move', (9, 5)]"
p180
I-1
sS"0['attack', (6, 6)]"
p181
I-1
sS"0['attack', (6, 4)]"
p182
I-2
sS"0['attack', (8, 1)]"
p183
I-2
sS"64['attack', (13, 1)]"
p184
I-1
sS"0['move', (7, 4)]"
p185
I-3
sS"0['attack', (11, 13)]"
p186
I-1
sS"0['move', (14, 13)]"
p187
I-2
sS"64['attack', (17, 11)]"
p188
I-1
sS"0['move', (8, 10)]"
p189
I-4
sS"0['attack', (8, 9)]"
p190
I-3
sS"0['attack', (12, 1)]"
p191
I-3
sS"0['move', (7, 3)]"
p192
I-3
sS"0['attack', (5, 7)]"
p193
I-2
sS"64['suicide']"
p194
I-2
sS"0['move', (2, 9)]"
p195
I-1
sS"0['attack', (15, 6)]"
p196
I-1
sS"4['move', (2, 10)]"
p197
I-1
sS"64['move', (11, 2)]"
p198
I-1
sS"0['attack', (13, 2)]"
p199
I-2
sS"0['attack', (9, 16)]"
p200
I-2
sS"64['move', (16, 9)]"
p201
I-1
sS"128['move', (6, 7)]"
p202
I-1
sS"0['attack', (15, 9)]"
p203
I-2
sS"32['attack', (13, 4)]"
p204
I-1
sS"0['attack', (2, 13)]"
p205
I-2
sS"64['guard']"
p206
I98
sS"32['move', (16, 12)]"
p207
I-1
sS"0['attack', (12, 17)]"
p208
I-2
sS"24['attack', (12, 2)]"
p209
I-1
sS"0['attack', (3, 12)]"
p210
I-2
sS"2['move', (11, 1)]"
p211
I-1
sS"1['move', (3, 16)]"
p212
I-1
sS"0['move', (16, 7)]"
p213
I-1
sS"0['attack', (8, 11)]"
p214
I-2
sS"0['move', (10, 5)]"
p215
I-1
sS"0['attack', (14, 2)]"
p216
I-3
sS"0['move', (2, 4)]"
p217
I-2
sS"0['move', (14, 10)]"
p218
I-3
sS"0['move', (14, 16)]"
p219
I-1
sS"1['move', (7, 3)]"
p220
I-1
sS"16['attack', (16, 14)]"
p221
I-2
sS"0['move', (14, 5)]"
p222
I-1
sS"0['move', (6, 3)]"
p223
I-3
sS"8['move', (17, 8)]"
p224
I-1
sS"0['attack', (6, 3)]"
p225
I-2
sS"8['attack', (15, 4)]"
p226
I-1
sS"128['move', (14, 2)]"
p227
I-1
sS"2['suicide']"
p228
I0
sS"0['attack', (12, 10)]"
p229
I-3
sS"8['move', (2, 9)]"
p230
I-1
sS"0['attack', (2, 11)]"
p231
I-2
sS"128['move', (17, 12)]"
p232
I-1
sS"0['move', (8, 15)]"
p233
I-2
sS"0['attack', (3, 7)]"
p234
I-3
sS"0['attack', (6, 17)]"
p235
I-2
sS"0['move', (7, 17)]"
p236
I-2
sS"0['attack', (15, 3)]"
p237
I-1
sS"0['attack', (17, 7)]"
p238
I-2
sS"0['attack', (14, 8)]"
p239
I-1
sS"0['move', (7, 2)]"
p240
I-3
sS"0['attack', (17, 8)]"
p241
I-3
sS"0['move', (13, 10)]"
p242
I98
sS"0['attack', (11, 3)]"
p243
I-4
sS"0['move', (10, 1)]"
p244
I-3
sS"0['move', (6, 6)]"
p245
I-1
sS"0['attack', (15, 8)]"
p246
I-1
sS"128['move', (12, 2)]"
p247
I-1
sS"0['move', (12, 3)]"
p248
I-3
sS"33['move', (14, 6)]"
p249
I-1
sS"0['attack', (7, 1)]"
p250
I-1
sS"128['move', (13, 4)]"
p251
I-1
sS"0['attack', (6, 7)]"
p252
I-3
sS"0['move', (7, 9)]"
p253
I-2
sS"16['move', (17, 13)]"
p254
I-2
sS"0['attack', (10, 0)]"
p255
I-1
sS"0['attack', (14, 3)]"
p256
I-2
sS"16['attack', (12, 3)]"
p257
I-1
sS"0['move', (14, 11)]"
p258
I-2
sS"0['move', (17, 11)]"
p259
I-3
sS"0['attack', (7, 2)]"
p260
I-3
sS"0['attack', (17, 9)]"
p261
I-2
sS"0['attack', (16, 12)]"
p262
I-3
sS"1['guard']"
p263
I-1
sS"128['attack', (16, 5)]"
p264
I-1
sS"0['attack', (6, 8)]"
p265
I-2
sS"0['move', (13, 13)]"
p266
I-2
sS"32['attack', (12, 4)]"
p267
I-1
sS"0['attack', (6, 2)]"
p268
I-3
sS"64['move', (13, 2)]"
p269
I-2
sS"0['attack', (11, 5)]"
p270
I-3
sS"0['attack', (4, 4)]"
p271
I-1
sS"0['move', (4, 14)]"
p272
I-3
sS"0['move', (9, 16)]"
p273
I-2
sS"0['attack', (4, 7)]"
p274
I-2
sS"0['attack', (2, 8)]"
p275
I-1
sS"128['move', (10, 17)]"
p276
I-1
sS"1048576['attack', (11, 15)]"
p277
I-1
sS"0['move', (14, 2)]"
p278
I-3
sS"0['move', (9, 18)]"
p279
I-2
sS"0['move', (3, 13)]"
p280
I-4
sS"0['attack', (15, 2)]"
p281
I-2
sS"0['move', (3, 10)]"
p282
I-2
sS"0['move', (7, 7)]"
p283
I-2
sS"0['attack', (5, 3)]"
p284
I-3
sS"0['attack', (14, 9)]"
p285
I-2
sS"0['attack', (6, 15)]"
p286
I-2
sS"64['attack', (13, 3)]"
p287
I-1
sS"0['move', (10, 4)]"
p288
I-3
sS"0['move', (8, 17)]"
p289
I-2
sS"32['move', (11, 4)]"
p290
I-1
sS"0['attack', (16, 3)]"
p291
I-2
sS"0['move', (13, 4)]"
p292
I-2
sS"0['attack', (10, 16)]"
p293
I-2
sS"0['attack', (13, 6)]"
p294
I-2
sS"128['suicide']"
p295
I-2
sS"0['move', (4, 4)]"
p296
I-2
sS"0['attack', (15, 5)]"
p297
I-3
sS"0['attack', (7, 9)]"
p298
I-2
sS"0['attack', (10, 3)]"
p299
I-3
sS"16['move', (15, 13)]"
p300
I-2
sS"0['attack', (11, 2)]"
p301
I-2
sS"0['attack', (8, 17)]"
p302
I-2
sS"128['attack', (15, 12)]"
p303
I-2
sS"0['move', (12, 2)]"
p304
I-4
sS"0['move', (4, 7)]"
p305
I-2
sS"128['move', (13, 3)]"
p306
I-1
sS"0['attack', (9, 8)]"
p307
I-3
sS"0['move', (10, 16)]"
p308
I-2
sS"0['attack', (2, 6)]"
p309
I-2
sS"16['attack', (17, 11)]"
p310
I-1
sS"0['move', (1, 10)]"
p311
I-2
sS"0['move', (7, 8)]"
p312
I-3
sS"128['attack', (6, 8)]"
p313
I-1
sS"0['attack', (16, 6)]"
p314
I-3
sS"64['move', (8, 2)]"
p315
I-1
sS"0['attack', (13, 3)]"
p316
I-3
sS"0['move', (8, 1)]"
p317
I-1
sS"0['move', (6, 8)]"
p318
I-2
sS"0['move', (17, 10)]"
p319
I-3
sS"4['attack', (1, 6)]"
p320
I-1
sS"0['attack', (7, 3)]"
p321
I-4
sS"0['attack', (5, 6)]"
p322
I-1
sS"8['move', (13, 3)]"
p323
I-2
sS"0['move', (15, 2)]"
p324
I-2
sS"0['attack', (0, 11)]"
p325
I-1
sS"0['move', (7, 0)]"
p326
I-2
sS"0['move', (13, 12)]"
p327
I-2
sS"64['move', (13, 3)]"
p328
I-2
sS"1048576['move', (12, 15)]"
p329
I-1
sS"0['attack', (11, 4)]"
p330
I-2
sS"0['attack', (4, 6)]"
p331
I-2
sS"0['move', (4, 16)]"
p332
I-2
sS"0['attack', (7, 4)]"
p333
I-2
sS"0['move', (16, 5)]"
p334
I-1
sS"16['move', (16, 11)]"
p335
I-1
sS"0['attack', (4, 8)]"
p336
I-2
sS"64['attack', (16, 13)]"
p337
I-2
sS"0['move', (3, 11)]"
p338
I-3
sS"0['move', (12, 15)]"
p339
I-3
sS"0['move', (6, 4)]"
p340
I-3
sS"64['attack', (15, 12)]"
p341
I-2
sS"0['move', (12, 16)]"
p342
I-4
sS"2['move', (9, 1)]"
p343
I-1
sS"0['attack', (3, 4)]"
p344
I-2
sS"0['move', (14, 7)]"
p345
I-1
sS"4['attack', (1, 11)]"
p346
I-3
sS"16['suicide']"
p347
I-2
sS"0['move', (8, 16)]"
p348
I-2
sS"0['attack', (13, 17)]"
p349
I-1
sS"0['move', (12, 4)]"
p350
I-3
sS"0['move', (11, 16)]"
p351
I-3
sS"16['attack', (15, 13)]"
p352
I-1
sS"0['attack', (16, 4)]"
p353
I-3
sS"0['attack', (15, 11)]"
p354
I-2
sS"0['move', (16, 4)]"
p355
I-3
sS"0['attack', (16, 10)]"
p356
I-2
sS"0['move', (11, 1)]"
p357
I-1
sS"0['move', (7, 11)]"
p358
I99
sS"16['move', (12, 3)]"
p359
I-2
sS"0['move', (9, 17)]"
p360
I-2
sS"0['attack', (14, 14)]"
p361
I-1
sS"0['attack', (9, 9)]"
p362
I-4
sS"0['attack', (1, 9)]"
p363
I-2
sS"0['attack', (7, 6)]"
p364
I-1
sS"0['move', (15, 4)]"
p365
I-3
sS"192['move', (14, 2)]"
p366
I-1
sS"0['move', (15, 11)]"
p367
I-3
sS"0['attack', (9, 3)]"
p368
I-2
sS"0['move', (5, 4)]"
p369
I-1
sS"0['move', (11, 15)]"
p370
I-3
sS"64['attack', (6, 7)]"
p371
I-1
sS"16['guard']"
p372
I100
sS"0['move', (4, 5)]"
p373
I-2
sS"0['move', (11, 2)]"
p374
I-3
sS"0['move', (15, 3)]"
p375
I-1
sS"0['attack', (1, 10)]"
p376
I-1
sS"0['attack', (15, 12)]"
p377
I-2
sS"0['attack', (2, 4)]"
p378
I-2
sS"0['move', (3, 16)]"
p379
I-4
sS"0['move', (14, 6)]"
p380
I-1
sS"0['move', (4, 13)]"
p381
I-3
sS"0['attack', (4, 3)]"
p382
I-2
sS"0['attack', (1, 13)]"
p383
I-2
sS"0['move', (17, 12)]"
p384
I-2
sS"1048576['move', (12, 14)]"
p385
I98
sS"0['attack', (16, 15)]"
p386
I-2
sS"4['move', (1, 8)]"
p387
I-1
sS"0['move', (15, 9)]"
p388
I-2
sS"0['move', (2, 15)]"
p389
I-3
sS"0['move', (3, 14)]"
p390
I-3
sS"0['move', (12, 1)]"
p391
I-3
sS"0['move', (17, 5)]"
p392
I-3
sS"64['move', (16, 13)]"
p393
I-2
sS"0['move', (16, 11)]"
p394
I-3
sS"16['move', (16, 13)]"
p395
I-1
sS"0['move', (6, 15)]"
p396
I-1
sS"0['attack', (6, 16)]"
p397
I-1
sS"16['move', (13, 3)]"
p398
I-1
sS"0['attack', (15, 14)]"
p399
I-2
sS"0['move', (5, 7)]"
p400
I-2
sS"0['move', (1, 12)]"
p401
I-1
sS"0['attack', (16, 7)]"
p402
I-3
sS"0['attack', (16, 5)]"
p403
I-2
sS"1048576['move', (12, 13)]"
p404
I-1
sS"32['attack', (16, 12)]"
p405
I-1
sS"0['move', (15, 12)]"
p406
I-3
sS"0['move', (16, 12)]"
p407
I-2
sS"0['attack', (14, 11)]"
p408
I-2
sS"64['attack', (7, 8)]"
p409
I-1
sS"8['attack', (16, 8)]"
p410
I-1
sS"0['attack', (10, 4)]"
p411
I-2
s.