(dp0
S"1119092736['move', (11, 2)]"
p1
(F0.0
I10
tp2
sS"544505856['move', (7, 15)]"
p3
(I0
I1
tp4
sS"1119092736['move', (12, 1)]"
p5
(F0.0
I11
tp6
sS"1223688720['move', (16, 4)]"
p7
(F0.0
I7
tp8
sS"480247816['move', (10, 13)]"
p9
(I0
I1
tp10
sS"1118048390['move', (10, 0)]"
p11
(F0.0
I9
tp12
sS"1154744328['move', (14, 2)]"
p13
(F0.0
I7
tp14
sS"271581248['move', (3, 7)]"
p15
(I0
I1
tp16
sS"204734480['move', (3, 5)]"
p17
(F0.0
I5
tp18
sS"176160896['move', (8, 4)]"
p19
(I0
I1
tp20
sS"547389448['move', (10, 15)]"
p21
(I0
I1
tp22
sS"1309704192['move', (2, 7)]"
p23
(F0.0
I12
tp24
sS"406061056['move', (3, 11)]"
p25
(F0.0
I5
tp26
sS"74711552['move', (7, 1)]"
p27
(F0.0
I11
tp28
sS"1258323968['move', (16, 4)]"
p29
(F0.0
I11
tp30
sS"440401920['move', (4, 12)]"
p31
(F0.0
I3
tp32
sS"1115951104['move', (8, 2)]"
p33
(F0.0
I5
tp34
sS"78647826['move', (11, 3)]"
p35
(F0.0
I2
tp36
sS"141557792['move', (7, 3)]"
p37
(I0
I1
tp38
sS"406847488['move', (4, 11)]"
p39
(F0.0
I3
tp40
sS"1460666896['move', (17, 10)]"
p41
(I0
I1
tp42
sS"1146097664['move', (6, 2)]"
p43
(F0.0
I11
tp44
sS"1190428736['move', (16, 3)]"
p45
(F0.0
I6
tp46
sS"275775488['move', (7, 7)]"
p47
(I0
I1
tp48
sS"1309704196['move', (1, 6)]"
p49
(F0.0
I11
tp50
sS"205520896['move', (4, 5)]"
p51
(I0
I2
tp52
sS"175112192['move', (7, 4)]"
p53
(I0
I1
tp54
sS"1393590785['move', (17, 8)]"
p55
(I0
I2
tp56
sS"448790528['move', (12, 12)]"
p57
(F0.0
I7
tp58
sS"344981506['move', (9, 9)]"
p59
(I0
I1
tp60
sS"1309704194['move', (1, 6)]"
p61
(F0.0
I4
tp62
sS"1146097666['move', (5, 1)]"
p63
(F0.0
I9
tp64
sS"114299392['move', (13, 2)]"
p65
(F0.0
I10
tp66
sS"307232768['move', (5, 8)]"
p67
(I0
I1
tp68
sS"138674752['move', (4, 3)]"
p69
(F0.0
I4
tp70
sS"237240856['move', (2, 6)]"
p71
(I0
I1
tp72
sS"204734464['move', (3, 5)]"
p73
(F0.0
I9
tp74
sS"508854272['move', (5, 14)]"
p75
(I0
I1
tp76
sS"237240832['move', (2, 6)]"
p77
(F0.0
I4
tp78
sS"1178861728['move', (4, 2)]"
p79
(F0.0
I3
tp80
sS"106168962['move', (5, 2)]"
p81
(I0
I1
tp82
sS"1178861760['move', (4, 2)]"
p83
(I0
I1
tp84
sS"283115522['move', (14, 7)]"
p85
(I0
I1
tp86
sS"338690048['move', (3, 9)]"
p87
(F0.0
I4
tp88
sS"142606464['move', (8, 3)]"
p89
(I0
I1
tp90
sS"1309704192['move', (0, 7)]"
p91
(F0.0
I3
tp92
sS"1116999686['move', (9, 0)]"
p93
(F0.0
I5
tp94
sS"1624506368['move', (13, 15)]"
p95
(F0.0
I3
tp96
sS"1154744320['move', (14, 2)]"
p97
(F0.0
I11
tp98
sS"380633088['move', (11, 10)]"
p99
(F0.0
I3
tp100
sS"171966480['move', (4, 4)]"
p101
(F0.0
I4
tp102
sS"1154744320['move', (13, 3)]"
p103
(F0.0
I8
tp104
sS"272629824['move', (4, 7)]"
p105
(F0.0
I2
tp106
sS"1277166144['move', (2, 5)]"
p107
(F0.0
I3
tp108
sS"1190428672['move', (15, 4)]"
p109
(F0.0
I10
tp110
sS"171180576['move', (3, 4)]"
p111
(F0.0
I3
tp112
sS"183505410['move', (15, 4)]"
p113
(F0.0
I3
tp114
sS"1393590788['move', (17, 8)]"
p115
(F0.0
I6
tp116
sS"443547648['move', (7, 12)]"
p117
(I0
I1
tp118
sS"1190428736['move', (15, 2)]"
p119
(F0.0
I11
tp120
sS"113246721['move', (12, 2)]"
p121
(F0.0
I11
tp122
sS"337903616['move', (2, 9)]"
p123
(F0.0
I7
tp124
sS"1443889664['move', (1, 10)]"
p125
(F0.0
I7
tp126
sS"315621376['move', (13, 8)]"
p127
(F0.0
I3
tp128
sS"138674880['move', (4, 3)]"
p129
(I0
I1
tp130
sS"1177587744['move', (3, 2)]"
p131
(F0.0
I10
tp132
sS"510656544['move', (7, 14)]"
p133
(I0
I1
tp134
sS"171180672['move', (3, 4)]"
p135
(F0.0
I3
tp136
sS"1190428680['move', (16, 3)]"
p137
(F0.0
I5
tp138
sS"379584520['move', (10, 10)]"
p139
(I0
I1
tp140
sS"239075472['move', (4, 6)]"
p141
(I0
I1
tp142
sS"1376813568['move', (2, 9)]"
p143
(F0.0
I9
tp144
sS"213909504['move', (12, 5)]"
p145
(F0.0
I7
tp146
sS"1326481412['move', (18, 7)]"
p147
(F0.0
I10
tp148
sS"312475656['move', (10, 8)]"
p149
(I0
I1
tp150
sS"484478978['move', (14, 13)]"
p151
(I0
I1
tp152
sS"171966464['move', (4, 4)]"
p153
(I1000
I2
tp154
sS"1243643904['move', (3, 5)]"
p155
(F0.0
I2
tp156
sS"1211105808['move', (3, 3)]"
p157
(F0.0
I11
tp158
sS"382730240['move', (13, 10)]"
p159
(F0.0
I3
tp160
sS"250609664['move', (15, 6)]"
p161
(F0.0
I5
tp162
sS"108003328['move', (7, 2)]"
p163
(F0.0
I2
tp164
sS"1546682368['move', (3, 13)]"
p165
(F0.0
I5
tp166
sS"381681664['move', (12, 10)]"
p167
(F0.0
I7
tp168
sS"1116999682['move', (9, 0)]"
p169
(F0.0
I10
tp170
sS"270794752['move', (3, 8)]"
p171
(F0.0
I9
tp172
sS"1154744448['move', (13, 1)]"
p173
(F0.0
I10
tp174
sS"1393590848['move', (17, 8)]"
p175
(I0
I1
tp176
sS"1153437768['move', (12, 1)]"
p177
(F0.0
I2
tp178
sS"1119092864['move', (12, 1)]"
p179
(F0.0
I10
tp180
sS"351272960['move', (15, 9)]"
p181
(F0.0
I7
tp182
sS"1223688704['move', (16, 4)]"
p183
(F0.0
I10
tp184
sS"1118048258['move', (11, 1)]"
p185
(F0.0
I7
tp186
sS"306184208['move', (4, 8)]"
p187
(I0
I1
tp188
sS"373293184['move', (4, 10)]"
p189
(I0
I1
tp190
sS"1147404288['move', (6, 1)]"
p191
(F0.0
I11
tp192
sS"279969792['move', (11, 7)]"
p193
(F0.0
I3
tp194
sS"449839104['move', (13, 12)]"
p195
(F0.0
I3
tp196
sS"77595145['move', (10, 1)]"
p197
(F0.0
I9
tp198
sS"446693384['move', (10, 12)]"
p199
(I0
I1
tp200
sS"1153437708['move', (12, 1)]"
p201
(F0.0
I11
tp202
sS"479199234['move', (9, 13)]"
p203
(I0
I1
tp204
sS"139460608['move', (5, 3)]"
p205
(F0.0
I3
tp206
sS"110100480['move', (9, 2)]"
p207
(I0
I1
tp208
sS"2260730369['move', (12, 2)]"
p209
(I0
I1
tp210
sS"1211105808['move', (4, 4)]"
p211
(I0
I1
tp212
sS"1546682400['move', (3, 13)]"
p213
(I0
I1
tp214
sS"106168833['move', (5, 2)]"
p215
(F0.0
I6
tp216
sS"376438784['move', (7, 10)]"
p217
(I0
I1
tp218
sS"141557760['move', (7, 3)]"
p219
(I0
I1
tp220
sS"1326481412['move', (17, 8)]"
p221
(F0.0
I9
tp222
sS"106955392['move', (6, 2)]"
p223
(I0
I1
tp224
sS"1146097696['move', (5, 1)]"
p225
(F0.0
I11
tp226
sS"1115951104['move', (9, 1)]"
p227
(F0.0
I11
tp228
sS"238026768['move', (3, 6)]"
p229
(F0.0
I2
tp230
sS"1211105872['move', (3, 3)]"
p231
(F0.0
I9
tp232
sS"1115951104['move', (8, 0)]"
p233
(F0.0
I11
tp234
sS"1177587712['move', (4, 3)]"
p235
(F0.0
I10
tp236
sS"277872640['move', (9, 7)]"
p237
(I0
I1
tp238
sS"1427145232['move', (17, 9)]"
p239
(I0
I1
tp240
sS"411041920['move', (8, 11)]"
p241
(I0
I1
tp242
sS"1277166081['move', (2, 5)]"
p243
(F0.0
I11
tp244
sS"350224386['move', (14, 9)]"
p245
(I0
I1
tp246
sS"352325632['move', (16, 9)]"
p247
(F0.0
I5
tp248
sS"78647826['move', (11, 1)]"
p249
(F0.0
I10
tp250
sS"1277166096['move', (3, 6)]"
p251
(F0.0
I5
tp252
sS"316669954['move', (14, 8)]"
p253
(I0
I1
tp254
sS"214958080['move', (13, 5)]"
p255
(F0.0
I3
tp256
sS"106168848['move', (5, 2)]"
p257
(F0.0
I5
tp258
sS"146800640['move', (12, 3)]"
p259
(F0.0
I5
tp260
sS"482344960['move', (12, 13)]"
p261
(F0.0
I7
tp262
sS"1326481408['move', (18, 7)]"
p263
(F0.0
I10
tp264
sS"1118048288['move', (10, 0)]"
p265
(F0.0
I11
tp266
sS"1360036417['move', (17, 7)]"
p267
(F0.0
I11
tp268
sS"409993248['move', (7, 11)]"
p269
(I0
I1
tp270
sS"378535936['move', (9, 10)]"
p271
(I0
I1
tp272
sS"304349184['move', (3, 9)]"
p273
(F0.0
I6
tp274
sS"440402048['move', (4, 12)]"
p275
(I0
I1
tp276
sS"351272968['move', (15, 9)]"
p277
(I0
I1
tp278
sS"175112224['move', (7, 4)]"
p279
(I0
I1
tp280
sS"1223688720['move', (15, 3)]"
p281
(F0.0
I11
tp282
sS"1153437704['move', (12, 1)]"
p283
(F0.0
I8
tp284
sS"1326481412['move', (17, 6)]"
p285
(F0.0
I11
tp286
sS"1211105824['move', (3, 3)]"
p287
(F0.0
I3
tp288
sS"378535938['move', (9, 10)]"
p289
(I0
I1
tp290
sS"347078656['move', (11, 9)]"
p291
(F0.0
I3
tp292
sS"338690080['move', (3, 9)]"
p293
(I0
I1
tp294
sS"412090368['move', (9, 11)]"
p295
(I0
I1
tp296
sS"270794768['move', (2, 7)]"
p297
(I0
I2
tp298
sS"1360036352['move', (18, 8)]"
p299
(F0.0
I10
tp300
sS"1153437698['move', (12, 1)]"
p301
(F0.0
I3
tp302
sS"2224030337['move', (9, 1)]"
p303
(I0
I1
tp304
sS"1118048258['move', (10, 0)]"
p305
(F0.0
I10
tp306
sS"1119092800['move', (12, 1)]"
p307
(I0
I1
tp308
sS"1119092808['move', (11, 0)]"
p309
(F0.0
I11
tp310
sS"1115951118['move', (8, 0)]"
p311
(F0.0
I7
tp312
sS"2226131474['move', (11, 1)]"
p313
(F0.0
I3
tp314
sS"111149064['move', (10, 2)]"
p315
(I0
I1
tp316
sS"416284672['move', (13, 11)]"
p317
(F0.0
I3
tp318
sS"247463936['move', (12, 6)]"
p319
(F0.0
I7
tp320
sS"1119092800['move', (11, 0)]"
p321
(F0.0
I10
tp322
sS"1116999720['move', (9, 0)]"
p323
(F0.0
I3
tp324
sS"1153437770['move', (12, 1)]"
p325
(F0.0
I9
tp326
sS"1177587808['move', (3, 2)]"
p327
(F0.0
I9
tp328
sS"1243643936['move', (2, 4)]"
p329
(F0.0
I3
tp330
sS"1427145216['move', (17, 9)]"
p331
(I0
I1
tp332
sS"1119092736['move', (10, 1)]"
p333
(F-1000.0
I5
tp334
sS"414187520['move', (11, 11)]"
p335
(F0.0
I3
tp336
sS"340787200['move', (5, 9)]"
p337
(I0
I1
tp338
sS"282066944['move', (13, 7)]"
p339
(F0.0
I3
tp340
sS"143654912['move', (9, 3)]"
p341
(I0
I1
tp342
sS"238026784['move', (3, 6)]"
p343
(I0
I1
tp344
sS"1119092808['move', (12, 1)]"
p345
(F0.0
I5
tp346
sS"1118048386['move', (10, 0)]"
p347
(F0.0
I8
tp348
sS"1591742466['move', (14, 14)]"
p349
(I0
I1
tp350
sS"384827392['move', (15, 10)]"
p351
(F0.0
I7
tp352
sS"1343259137['move', (1, 7)]"
p353
(F0.0
I11
tp354
sS"1393590800['move', (17, 8)]"
p355
(F0.0
I11
tp356
sS"183505408['move', (15, 4)]"
p357
(F0.0
I2
tp358
sS"77595144['move', (10, 1)]"
p359
(F0.0
I2
tp360
sS"238026752['move', (4, 7)]"
p361
(I0
I1
tp362
sS"1177587744['move', (4, 3)]"
p363
(F1000.0
I8
tp364
sS"1153437736['move', (12, 1)]"
p365
(F0.0
I11
tp366
sS"1116999784['move', (9, 0)]"
p367
(F0.0
I7
tp368
sS"245366792['move', (10, 6)]"
p369
(I0
I1
tp370
sS"1258323968['move', (15, 5)]"
p371
(F0.0
I2
tp372
sS"1243643968['move', (3, 5)]"
p373
(F0.0
I4
tp374
sS"1243643968['move', (2, 4)]"
p375
(F0.0
I11
tp376
sS"1190428672['move', (15, 2)]"
p377
(F0.0
I11
tp378
sS"249561090['move', (14, 6)]"
p379
(I1000
I2
tp380
sS"3490742785['move', (1, 7)]"
p381
(I0
I1
tp382
sS"76546576['move', (9, 1)]"
p383
(F0.0
I5
tp384
sS"305135648['move', (3, 8)]"
p385
(I0
I1
tp386
sS"75498113['move', (8, 1)]"
p387
(I0
I1
tp388
sS"474251392['move', (4, 13)]"
p389
(I0
I1
tp390
sS"1178861568['move', (4, 4)]"
p391
(F0.0
I7
tp392
sS"177209346['move', (9, 4)]"
p393
(I0
I1
tp394
sS"1460666880['move', (17, 10)]"
p395
(I0
I1
tp396
sS"179306496['move', (11, 4)]"
p397
(F0.0
I3
tp398
sS"444596352['move', (8, 12)]"
p399
(I0
I1
tp400
sS"237240848['move', (2, 6)]"
p401
(F0.0
I2
tp402
sS"1189089282['move', (14, 2)]"
p403
(F0.0
I11
tp404
sS"1653870592['move', (9, 16)]"
p405
(I0
I1
tp406
sS"548442112['move', (11, 15)]"
p407
(F0.0
I3
tp408
sS"1116999712['move', (9, 0)]"
p409
(F0.0
I4
tp410
sS"372244512['move', (3, 10)]"
p411
(I0
I1
tp412
sS"1153437708['move', (13, 2)]"
p413
(I0
I1
tp414
sS"1652822144['move', (8, 16)]"
p415
(I0
I1
tp416
sS"1178861632['move', (5, 3)]"
p417
(I0
I2
tp418
sS"1258324096['move', (16, 4)]"
p419
(F0.0
I7
tp420
sS"1360036352['move', (17, 7)]"
p421
(F0.0
I10
tp422
sS"443547680['move', (7, 12)]"
p423
(I0
I1
tp424
sS"1118048288['move', (11, 1)]"
p425
(F0.0
I6
tp426
sS"217059344['move', (15, 5)]"
p427
(I0
I1
tp428
sS"1223688704['move', (15, 3)]"
p429
(F0.0
I10
tp430
sS"239075392['move', (4, 6)]"
p431
(F0.0
I3
tp432
sS"450887682['move', (14, 12)]"
p433
(I0
I1
tp434
sS"445644800['move', (9, 12)]"
p435
(I0
I1
tp436
sS"1512047104['move', (2, 12)]"
p437
(F0.0
I2
tp438
sS"277872642['move', (9, 7)]"
p439
(I0
I1
tp440
sS"1211105792['move', (4, 4)]"
p441
(F0.0
I10
tp442
sS"1116999688['move', (9, 0)]"
p443
(F0.0
I9
tp444
sS"510656512['move', (7, 14)]"
p445
(I0
I1
tp446
sS"1115951110['move', (8, 0)]"
p447
(I0
I1
tp448
sS"1393590784['move', (17, 8)]"
p449
(F0.0
I10
tp450
sS"515932160['move', (12, 14)]"
p451
(F0.0
I7
tp452
sS"439648288['move', (3, 12)]"
p453
(I0
I1
tp454
sS"441450496['move', (5, 12)]"
p455
(I0
I1
tp456
sS"511705216['move', (8, 14)]"
p457
(I0
I1
tp458
sS"205520912['move', (4, 5)]"
p459
(F0.0
I3
tp460
sS"183505456['move', (15, 4)]"
p461
(I0
I1
tp462
sS"1651511296['move', (7, 16)]"
p463
(I0
I1
tp464
sS"273678336['move', (5, 7)]"
p465
(I0
I1
tp466
sS"1258323976['move', (16, 4)]"
p467
(F0.0
I3
tp468
sS"1118048296['move', (11, 1)]"
p469
(I0
I1
tp470
sS"1223688768['move', (15, 3)]"
p471
(F0.0
I4
tp472
sS"1291846144['move', (17, 6)]"
p473
(F0.0
I11
tp474
sS"1211105792['move', (3, 3)]"
p475
(F0.0
I11
tp476
sS"3391127554['move', (2, 4)]"
p477
(I0
I1
tp478
sS"546340864['move', (9, 15)]"
p479
(I0
I1
tp480
sS"138674832['move', (4, 3)]"
p481
(F0.0
I2
tp482
sS"1178861568['move', (4, 2)]"
p483
(F0.0
I10
tp484
sS"1360036353['move', (18, 8)]"
p485
(F-1000.0
I10
tp486
sS"76546578['move', (9, 1)]"
p487
(F0.0
I9
tp488
sS"1581514880['move', (4, 14)]"
p489
(I0
I1
tp490
sS"171180552['move', (3, 4)]"
p491
(F0.0
I2
tp492
sS"1119092864['move', (11, 2)]"
p493
(F0.0
I8
tp494
sS"447741952['move', (11, 12)]"
p495
(F0.0
I3
tp496
sS"278921224['move', (10, 7)]"
p497
(I0
I1
tp498
sS"1116999692['move', (9, 0)]"
p499
(F0.0
I5
tp500
sS"1189089282['move', (15, 3)]"
p501
(F0.0
I7
tp502
sS"178257928['move', (10, 4)]"
p503
(I0
I1
tp504
sS"2226131458['move', (11, 1)]"
p505
(I0
I1
tp506
sS"113246736['move', (13, 3)]"
p507
(F0.0
I4
tp508
sS"339738752['move', (4, 9)]"
p509
(I0
I1
tp510
sS"139460624['move', (5, 3)]"
p511
(I0
I1
tp512
sS"205521040['move', (4, 5)]"
p513
(I0
I1
tp514
sS"171180608['move', (3, 4)]"
p515
(I0
I3
tp516
sS"106955264['move', (6, 2)]"
p517
(F0.0
I9
tp518
sS"313524224['move', (11, 8)]"
p519
(F0.0
I3
tp520
sS"1154744328['move', (13, 1)]"
p521
(F0.0
I11
tp522
sS"384827400['move', (15, 10)]"
p523
(I0
I1
tp524
sS"318771200['move', (16, 8)]"
p525
(F0.0
I5
tp526
sS"317718536['move', (15, 8)]"
p527
(I0
I1
tp528
sS"372244480['move', (3, 10)]"
p529
(F0.0
I5
tp530
sS"2224030209['move', (9, 1)]"
p531
(F0.0
I5
tp532
sS"1343259136['move', (1, 7)]"
p533
(F0.0
I4
tp534
sS"171966656['move', (4, 4)]"
p535
(F0.0
I3
tp536
sS"306184320['move', (4, 8)]"
p537
(I0
I1
tp538
sS"1654919176['move', (10, 16)]"
p539
(I0
I1
tp540
sS"1177587776['move', (4, 3)]"
p541
(I0
I1
tp542
sS"1114640384['move', (8, 1)]"
p543
(F0.0
I7
tp544
sS"204734528['move', (3, 5)]"
p545
(F0.0
I2
tp546
sS"1116999680['move', (9, 0)]"
p547
(F0.0
I11
tp548
sS"110100482['move', (9, 2)]"
p549
(I0
I1
tp550
sS"1116999684['move', (9, 0)]"
p551
(F0.0
I6
tp552
sS"1258323968['move', (17, 5)]"
p553
(F0.0
I11
tp554
sS"1116999682['move', (10, 1)]"
p555
(I0
I1
tp556
sS"3473965060['move', (17, 6)]"
p557
(F1000.0
I9
tp558
sS"3424649729['move', (2, 5)]"
p559
(I0
I1
tp560
sS"78647810['move', (11, 1)]"
p561
(F0.0
I10
tp562
sS"1116999744['move', (9, 0)]"
p563
(F0.0
I5
tp564
sS"1147404296['move', (6, 1)]"
p565
(F0.0
I9
tp566
sS"114299394['move', (13, 2)]"
p567
(F0.0
I3
tp568
sS"1147404288['move', (6, 3)]"
p569
(F0.0
I10
tp570
sS"311427074['move', (9, 8)]"
p571
(I0
I1
tp572
sS"483393536['move', (13, 13)]"
p573
(F0.0
I3
tp574
sS"1190428672['move', (16, 3)]"
p575
(F0.0
I10
tp576
sS"1146097664['move', (5, 3)]"
p577
(F0.0
I11
tp578
sS"143654914['move', (9, 3)]"
p579
(I0
I1
tp580
sS"1593049608['move', (15, 14)]"
p581
(I0
I1
tp582
sS"74711552['move', (8, 2)]"
p583
(I0
I1
tp584
sS"285216768['move', (16, 7)]"
p585
(F0.0
I5
tp586
sS"171180592['move', (3, 4)]"
p587
(F0.0
I2
tp588
sS"1478524928['move', (2, 11)]"
p589
(F0.0
I7
tp590
sS"309329920['move', (7, 8)]"
p591
(I0
I1
tp592
sS"113246736['move', (12, 2)]"
p593
(F0.0
I10
tp594
sS"1119092744['move', (11, 0)]"
p595
(F0.0
I10
tp596
sS"171966528['move', (4, 4)]"
p597
(I0
I1
tp598
sS"305135616['move', (3, 8)]"
p599
(F0.0
I8
tp600
sS"412090370['move', (9, 11)]"
p601
(I0
I1
tp602
sS"270794752['move', (2, 7)]"
p603
(F0.0
I10
tp604
sS"212860928['move', (11, 5)]"
p605
(F0.0
I3
tp606
sS"1153437762['move', (12, 1)]"
p607
(F0.0
I3
tp608
sS"138674704['move', (5, 4)]"
p609
(F0.0
I3
tp610
sS"418385920['move', (15, 11)]"
p611
(F0.0
I7
tp612
sS"1189089280['move', (14, 2)]"
p613
(F0.0
I5
tp614
sS"406847616['move', (4, 11)]"
p615
(I0
I1
tp616
sS"1147404288['move', (7, 2)]"
p617
(F0.0
I11
tp618
sS"1116999776['move', (9, 0)]"
p619
(I0
I1
tp620
sS"343933056['move', (8, 9)]"
p621
(I0
I1
tp622
sS"237240896['move', (2, 6)]"
p623
(F0.0
I2
tp624
sS"1326481416['move', (17, 6)]"
p625
(F0.0
I5
tp626
sS"106168864['move', (5, 2)]"
p627
(I0
I1
tp628
sS"512753664['move', (9, 14)]"
p629
(I0
I1
tp630
sS"271581184['move', (3, 7)]"
p631
(F0.0
I10
tp632
sS"445644802['move', (9, 12)]"
p633
(I0
I1
tp634
sS"147849216['move', (13, 3)]"
p635
(F0.0
I3
tp636
sS"238026752['move', (3, 6)]"
p637
(F0.0
I11
tp638
sS"1119092864['move', (11, 0)]"
p639
(F0.0
I11
tp640
sS"309329952['move', (7, 8)]"
p641
(I0
I1
tp642
sS"451973120['move', (15, 12)]"
p643
(F0.0
I7
tp644
sS"1277166096['move', (2, 5)]"
p645
(F0.0
I11
tp646
sS"3507520001['move', (17, 7)]"
p647
(F0.0
I5
tp648
sS"1360036352['move', (17, 9)]"
p649
(F0.0
I7
tp650
sS"1309704196['move', (2, 7)]"
p651
(F0.0
I2
tp652
sS"250609672['move', (15, 6)]"
p653
(I-1000
I2
tp654
sS"183505440['move', (15, 4)]"
p655
(F0.0
I6
tp656
sS"1118048296['move', (10, 0)]"
p657
(F0.0
I10
tp658
sS"272629904['move', (4, 7)]"
p659
(I0
I1
tp660
sS"284164104['move', (15, 7)]"
p661
(I0
I1
tp662
sS"78647810['move', (12, 2)]"
p663
(F0.0
I11
tp664
sS"418385928['move', (15, 11)]"
p665
(I0
I1
tp666
sS"1291846144['move', (16, 5)]"
p667
(F0.0
I11
tp668
sS"1427145280['move', (17, 9)]"
p669
(I0
I1
tp670
sS"1243643908['move', (3, 5)]"
p671
(I0
I1
tp672
sS"1178861696['move', (5, 3)]"
p673
(F1000.0
I12
tp674
sS"349175808['move', (13, 9)]"
p675
(F0.0
I3
tp676
sS"1343259152['move', (2, 8)]"
p677
(F0.0
I3
tp678
sS"180355072['move', (12, 4)]"
p679
(F0.0
I7
tp680
sS"1309704192['move', (1, 6)]"
p681
(F0.0
I11
tp682
sS"512753666['move', (9, 14)]"
p683
(I0
I1
tp684
sS"1153437706['move', (12, 1)]"
p685
(I0
I1
tp686
sS"1360036353['move', (17, 7)]"
p687
(F0.0
I11
tp688
sS"1655963648['move', (11, 16)]"
p689
(F0.0
I3
tp690
sS"409993216['move', (7, 11)]"
p691
(I0
I1
tp692
sS"74711592['move', (7, 1)]"
p693
(I0
I1
tp694
sS"244318208['move', (9, 6)]"
p695
(I0
I1
tp696
sS"1190428680['move', (15, 2)]"
p697
(F0.0
I11
tp698
sS"1116999680['move', (10, 1)]"
p699
(F0.0
I8
tp700
sS"339738624['move', (4, 9)]"
p701
(I0
I2
tp702
sS"248512512['move', (13, 6)]"
p703
(F0.0
I3
tp704
sS"76546561['move', (9, 1)]"
p705
(F0.0
I11
tp706
sS"112197632['move', (11, 2)]"
p707
(F0.0
I5
tp708
sS"106168832['move', (6, 3)]"
p709
(F0.0
I4
tp710
sS"75497985['move', (8, 1)]"
p711
(F0.0
I7
tp712
sS"481296384['move', (11, 13)]"
p713
(F0.0
I3
tp714
sS"1177587776['move', (3, 2)]"
p715
(F0.0
I11
tp716
sS"478150784['move', (8, 13)]"
p717
(I0
I1
tp718
sS"1190428672['move', (14, 3)]"
p719
(F0.0
I2
tp720
sS"250609680['move', (15, 6)]"
p721
(I0
I1
tp722
sS"3336572930['move', (14, 2)]"
p723
(I1000
I2
tp724
sS"1291846144['move', (15, 6)]"
p725
(F0.0
I5
tp726
sS"1115951106['move', (9, 1)]"
p727
(F0.0
I5
tp728
sS"1623199744['move', (12, 15)]"
p729
(F0.0
I7
tp730
sS"272629776['move', (4, 7)]"
p731
(I0
I1
tp732
sS"317718528['move', (15, 8)]"
p733
(F0.0
I7
tp734
sS"474251264['move', (4, 13)]"
p735
(F0.0
I3
tp736
sS"78647826['move', (12, 2)]"
p737
(F0.0
I11
tp738
sS"217059392['move', (15, 5)]"
p739
(I0
I1
tp740
sS"271581216['move', (3, 7)]"
p741
(I0
I1
tp742
sS"75497984['move', (8, 1)]"
p743
(F-1000.0
I6
tp744
sS"342884384['move', (7, 9)]"
p745
(I0
I1
tp746
sS"377487488['move', (8, 10)]"
p747
(I0
I1
tp748
sS"208666624['move', (7, 5)]"
p749
(I0
I1
tp750
sS"1153437728['move', (12, 1)]"
p751
(F0.0
I4
tp752
sS"1119092748['move', (11, 0)]"
p753
(F0.0
I4
tp754
sS"1147404290['move', (6, 1)]"
p755
(F0.0
I2
tp756
sS"1118048264['move', (10, 0)]"
p757
(F0.0
I5
tp758
sS"514850816['move', (11, 14)]"
p759
(F0.0
I3
tp760
sS"1114640384['move', (7, 0)]"
p761
(F0.0
I10
tp762
sS"138674688['move', (4, 3)]"
p763
(F0.0
I7
tp764
sS"1178861632['move', (4, 2)]"
p765
(F0.0
I10
tp766
sS"1178861568['move', (5, 3)]"
p767
(F0.0
I11
tp768
sS"1146097668['move', (5, 1)]"
p769
(F0.0
I5
tp770
sS"1118048256['move', (10, 0)]"
p771
(F0.0
I12
tp772
sS"311427072['move', (9, 8)]"
p773
(I0
I1
tp774
sS"373293056['move', (4, 10)]"
p775
(F0.0
I3
tp776
sS"407896064['move', (5, 11)]"
p777
(I0
I1
tp778
sS"211812360['move', (10, 5)]"
p779
(I0
I1
tp780
sS"1119092740['move', (11, 0)]"
p781
(F0.0
I3
tp782
sS"516984832['move', (13, 14)]"
p783
(F0.0
I3
tp784
sS"1147404416['move', (7, 2)]"
p785
(I0
I1
tp786
sS"1581514752['move', (4, 14)]"
p787
(F0.0
I3
tp788
sS"217059328['move', (15, 5)]"
p789
(F0.0
I7
tp790
sS"1427145217['move', (17, 9)]"
p791
(F0.0
I6
tp792
sS"314572800['move', (12, 8)]"
p793
(F0.0
I7
tp794
sS"3507520065['move', (17, 7)]"
p795
(F0.0
I3
tp796
sS"1211105856['move', (3, 3)]"
p797
(I0
I1
tp798
sS"346030088['move', (10, 9)]"
p799
(I0
I1
tp800
sS"284164096['move', (15, 7)]"
p801
(F0.0
I6
tp802
sS"439648256['move', (3, 12)]"
p803
(F0.0
I5
tp804
sS"275775520['move', (7, 7)]"
p805
(I0
I1
tp806
sS"210763778['move', (9, 5)]"
p807
(I0
I1
tp808
sS"1326481408['move', (17, 8)]"
p809
(F0.0
I10
tp810
sS"545292416['move', (8, 15)]"
p811
(I0
I1
tp812
sS"106955266['move', (6, 2)]"
p813
(I0
I1
tp814
sS"271581184['move', (4, 8)]"
p815
(F0.0
I5
tp816
sS"1309704256['move', (2, 7)]"
p817
(I0
I2
tp818
sS"1559265288['move', (15, 13)]"
p819
(I0
I1
tp820
sS"406061088['move', (3, 11)]"
p821
(I0
I1
tp822
sS"415236096['move', (12, 11)]"
p823
(F0.0
I7
tp824
sS"374341632['move', (5, 10)]"
p825
(I0
I1
tp826
sS"451973128['move', (15, 12)]"
p827
(I0
I1
tp828
sS"205520960['move', (4, 5)]"
p829
(F0.0
I3
tp830
sS"1146097728['move', (5, 1)]"
p831
(F0.0
I5
tp832
sS"1559265280['move', (15, 13)]"
p833
(F0.0
I7
tp834
sS"242221056['move', (7, 6)]"
p835
(I0
I1
tp836
sS"1291846144['move', (16, 7)]"
p837
(F0.0
I11
tp838
sS"276824192['move', (8, 7)]"
p839
(I0
I1
tp840
sS"171966608['move', (4, 4)]"
p841
(I0
I1
tp842
sS"240123904['move', (5, 6)]"
p843
(I0
I1
tp844
sS"1115951168['move', (8, 0)]"
p845
(F0.0
I11
tp846
sS"238026816['move', (3, 6)]"
p847
(I0
I1
tp848
sS"479199232['move', (9, 13)]"
p849
(I0
I1
tp850
sS"1393590800['move', (18, 9)]"
p851
(F0.0
I3
tp852
sS"251662850['move', (16, 6)]"
p853
(F0.0
I6
tp854
sS"3391127552['move', (2, 4)]"
p855
(I0
I1
tp856
sS"242221088['move', (7, 6)]"
p857
(I0
I1
tp858
sS"383778818['move', (14, 10)]"
p859
(I0
I1
tp860
sS"75498000['move', (8, 1)]"
p861
(F0.0
I11
tp862
sS"210763776['move', (9, 5)]"
p863
(I0
I1
tp864
sS"114299392['move', (14, 3)]"
p865
(I0
I1
tp866
sS"246415360['move', (11, 6)]"
p867
(F0.0
I3
tp868
sS"106168832['move', (5, 2)]"
p869
(F0.0
I10
tp870
sS"1177587712['move', (3, 2)]"
p871
(F0.0
I11
tp872
sS"177209344['move', (9, 4)]"
p873
(I0
I1
tp874
sS"208666656['move', (7, 5)]"
p875
(I0
I1
tp876
sS"310378624['move', (8, 8)]"
p877
(I0
I1
tp878
sS"1118048256['move', (11, 1)]"
p879
(F0.0
I6
tp880
sS"1153437696['move', (12, 1)]"
p881
(F0.0
I7
tp882
sS"1147404416['move', (6, 1)]"
p883
(F0.0
I11
tp884
sS"75498000['move', (9, 2)]"
p885
(I0
I1
tp886
sS"108003368['move', (7, 2)]"
p887
(I0
I1
tp888
sS"1178861696['move', (4, 2)]"
p889
(F0.0
I10
tp890
sS"413138952['move', (10, 11)]"
p891
(I0
I1
tp892
sS"417333250['move', (14, 11)]"
p893
(I0
I1
tp894
sS"1258323968['move', (16, 6)]"
p895
(F0.0
I10
tp896
sS"385912832['move', (16, 10)]"
p897
(F0.0
I5
tp898
sS"1189089290['move', (14, 2)]"
p899
(I0
I2
tp900
sS"1309704192['move', (1, 8)]"
p901
(F0.0
I12
tp902
sS"243269760['move', (8, 6)]"
p903
(I0
I1
tp904
sS"106168896['move', (5, 2)]"
p905
(I0
I1
tp906
sS"1190428744['move', (15, 2)]"
p907
(F-1000.0
I8
tp908
sS"237240904['move', (2, 6)]"
p909
(I0
I1
tp910
sS"306184192['move', (4, 8)]"
p911
(I0
I1
tp912
sS"1593049600['move', (15, 14)]"
p913
(F0.0
I4
tp914
sS"1376813568['move', (1, 8)]"
p915
(F0.0
I11
tp916
sS"183505488['move', (15, 4)]"
p917
(I0
I1
tp918
sS"371490816['move', (2, 10)]"
p919
(F0.0
I7
tp920
sS"173015040['move', (5, 4)]"
p921
(I0
I1
tp922
sS"304349184['move', (2, 8)]"
p923
(F0.0
I11
tp924
sS"1243643908['move', (2, 4)]"
p925
(F0.0
I11
tp926
sS"1146097696['move', (6, 2)]"
p927
(I0
I1
tp928
sS"1223688784['move', (15, 3)]"
p929
(F-1000.0
I7
tp930
sS"546340866['move', (9, 15)]"
p931
(I0
I1
tp932
sS"112197634['move', (11, 2)]"
p933
(I0
I1
tp934
sS"477102112['move', (7, 13)]"
p935
(I0
I1
tp936
sS"342884352['move', (7, 9)]"
p937
(I0
I1
tp938
sS"1651511328['move', (7, 16)]"
p939
(I0
I1
tp940
sS"1360036356['move', (17, 7)]"
p941
(F0.0
I3
tp942
sS"145752064['move', (11, 3)]"
p943
(I0
I2
tp944
sS"1326481408['move', (17, 6)]"
p945
(F0.0
I11
tp946
sS"475004928['move', (5, 13)]"
p947
(I0
I1
tp948
sS"1154744448['move', (14, 2)]"
p949
(F0.0
I7
tp950
sS"1615859712['move', (5, 15)]"
p951
(I0
I1
tp952
sS"183505424['move', (15, 4)]"
p953
(F-1000.0
I9
tp954
sS"1154744320['move', (13, 1)]"
p955
(F0.0
I11
tp956
sS"1343259152['move', (1, 7)]"
p957
(F0.0
I11
tp958
sS"76546560['move', (9, 1)]"
p959
(F0.0
I8
tp960
sS"1115951106['move', (8, 0)]"
p961
(F0.0
I10
tp962
sS"171180560['move', (3, 4)]"
p963
(F0.0
I8
tp964
sS"181403648['move', (13, 4)]"
p965
(F0.0
I3
tp966
sS"271581200['move', (3, 7)]"
p967
(I0
I1
tp968
sS"113246720['move', (12, 2)]"
p969
(I0
I1
tp970
sS"109052032['move', (8, 2)]"
p971
(I0
I1
tp972
sS"272629760['move', (4, 7)]"
p973
(F0.0
I5
tp974
sS"78647808['move', (11, 1)]"
p975
(F0.0
I9
tp976
sS"513802248['move', (10, 14)]"
p977
(I0
I1
tp978
sS"305135632['move', (3, 8)]"
p979
(I0
I1
tp980
sS"1326481408['move', (16, 7)]"
p981
(F0.0
I2
tp982
sS"281018368['move', (12, 7)]"
p983
(F0.0
I7
tp984
sS"206569472['move', (5, 5)]"
p985
(I0
I1
tp986
sS"344981504['move', (9, 9)]"
p987
(I0
I1
tp988
sS"1580208672['move', (3, 14)]"
p989
(I0
I1
tp990
sS"1146097664['move', (5, 1)]"
p991
(F0.0
I11
tp992
sS"1580208640['move', (3, 14)]"
p993
(F0.0
I3
tp994
sS"1493204992['move', (16, 11)]"
p995
(F0.0
I5
tp996
sS"1410368000['move', (1, 9)]"
p997
(F0.0
I11
tp998
sS"204734496['move', (3, 5)]"
p999
(I0
I1
tp1000
sS"138674704['move', (4, 3)]"
p1001
(F0.0
I10
tp1002
sS"106168960['move', (5, 2)]"
p1003
(F0.0
I2
tp1004
sS"544505888['move', (7, 15)]"
p1005
(I0
I1
tp1006
sS"113246744['move', (12, 2)]"
p1007
(F0.0
I2
tp1008
sS"1119092744['move', (12, 1)]"
p1009
(F0.0
I5
tp1010
sS"1243643904['move', (2, 4)]"
p1011
(F0.0
I10
tp1012
sS"1153437760['move', (12, 1)]"
p1013
(F0.0
I2
tp1014
sS"477102080['move', (7, 13)]"
p1015
(I0
I1
tp1016
sS"1153437736['move', (13, 2)]"
p1017
(F0.0
I2
tp1018
sS"106955272['move', (6, 2)]"
p1019
(I0
I1
tp1020
sS"1146097664['move', (4, 2)]"
p1021
(I1000
I2
tp1022
sS"1115951168['move', (9, 1)]"
p1023
(I0
I1
tp1024
sS"144703496['move', (10, 3)]"
p1025
(I0
I1
tp1026
sS"78647824['move', (11, 1)]"
p1027
(F0.0
I2
tp1028
sS"2226131457['move', (11, 1)]"
p1029
(F0.0
I7
tp1030
sS"1277166080['move', (2, 5)]"
p1031
(F0.0
I3
tp1032
sS"1653870594['move', (9, 16)]"
p1033
(I0
I1
tp1034
sS"1114640386['move', (7, 0)]"
p1035
(F0.0
I7
tp1036
sS"1119092736['move', (11, 0)]"
p1037
(F0.0
I11
tp1038
sS"209715328['move', (8, 5)]"
p1039
(I0
I1
tp1040
sS"1526727168['move', (16, 12)]"
p1041
(F0.0
I2
tp1042
sS"251662848['move', (16, 6)]"
p1043
(F0.0
I11
tp1044
sS"244318210['move', (9, 6)]"
p1045
(I0
I1
tp1046
sS"1309704256['move', (1, 6)]"
p1047
(F0.0
I11
tp1048
sS"348127232['move', (12, 9)]"
p1049
(F0.0
I7
tp1050
sS"76546562['move', (9, 1)]"
p1051
(F0.0
I2
tp1052
sS"239075328['move', (4, 6)]"
p1053
(F1000.0
I5
tp1054
sS"75498016['move', (8, 1)]"
p1055
(I0
I1
tp1056
sS"171180544['move', (3, 4)]"
p1057
(F0.0
I11
tp1058
sS"239075344['move', (4, 6)]"
p1059
(F0.0
I2
tp1060
sS"376438816['move', (7, 10)]"
p1061
(I0
I1
tp1062
s.